; Listing generated by Microsoft (R) Optimizing Compiler Version 19.00.24215.1 

	TITLE	D:\qijianban\laok\服务端\游戏组件\老K子游戏\红中麻将\服务器组件\GameLogic.cpp
	.686P
	.XMM
	include listing.inc
	.model	flat

INCLUDELIB MSVCRT
INCLUDELIB OLDNAMES

PUBLIC	?m_cbCardDataArray@CGameLogic@@1QBEB		; CGameLogic::m_cbCardDataArray
PUBLIC	?chDirSep@ATL@@3_WB				; ATL::chDirSep
PUBLIC	?chRightBracket@ATL@@3_WB			; ATL::chRightBracket
PUBLIC	?chLeftBracket@ATL@@3_WB			; ATL::chLeftBracket
PUBLIC	?chQuote@ATL@@3_WB				; ATL::chQuote
PUBLIC	?chEquals@ATL@@3_WB				; ATL::chEquals
PUBLIC	?szStringVal@ATL@@3QB_WB			; ATL::szStringVal
PUBLIC	?multiszStringVal@ATL@@3QB_WB			; ATL::multiszStringVal
PUBLIC	?szDwordVal@ATL@@3QB_WB				; ATL::szDwordVal
PUBLIC	?szBinaryVal@ATL@@3QB_WB			; ATL::szBinaryVal
PUBLIC	?szValToken@ATL@@3QB_WB				; ATL::szValToken
PUBLIC	?szForceRemove@ATL@@3QB_WB			; ATL::szForceRemove
PUBLIC	?szNoRemove@ATL@@3QB_WB				; ATL::szNoRemove
PUBLIC	__pAtlLocaleNameToIndexTable
PUBLIC	?szDelete@ATL@@3QB_WB				; ATL::szDelete
PUBLIC	_IID_IAxWinHostWindow
PUBLIC	?CLSID_ImageOle@@3U_GUID@@A			; CLSID_ImageOle
PUBLIC	?IID_IImageOle@@3U_GUID@@A			; IID_IImageOle
PUBLIC	?IID_IRichEditOleCallback2@@3U_GUID@@A		; IID_IRichEditOleCallback2
PUBLIC	?CLSID_WinFormsControl@@3U_GUID@@B		; CLSID_WinFormsControl
PUBLIC	?_pAtlAutoThreadModule@ATL@@3PAUIAtlAutoThreadModule@1@A ; ATL::_pAtlAutoThreadModule
PUBLIC	_IID_IAxWinHostWindowLic
PUBLIC	_IID_IAxWinAmbientDispatch
PUBLIC	?_pAtlModule@ATL@@3PAVCAtlModule@1@A		; ATL::_pAtlModule
PUBLIC	__pIncludeInitManaged
PUBLIC	_IID_IAxWinAmbientDispatchEx
PUBLIC	_IID_IInternalConnection
PUBLIC	_LIBID_ShockwaveFlashObjects
PUBLIC	_IID_IShockwaveFlash
PUBLIC	_DIID__IShockwaveFlashEvents
PUBLIC	_CLSID_ShockwaveFlash
PUBLIC	?szInvalidDateTime@ATL@@3QB_WB			; ATL::szInvalidDateTime
PUBLIC	_IID_IFlashFactory
PUBLIC	_IID_IDispatchEx
PUBLIC	?szInvalidDateTimeSpan@ATL@@3QB_WB		; ATL::szInvalidDateTimeSpan
PUBLIC	_IID_IFlashObjectInterface
PUBLIC	_CLSID_FlashObjectInterface
PUBLIC	_LIBID_ATLLib
PUBLIC	_CLSID_Registrar
PUBLIC	?_pModule@ATL@@3PAVCComModule@1@A		; ATL::_pModule
PUBLIC	_IID_IRegistrar
PUBLIC	___pobjMapEntryFirst
PUBLIC	___pobjMapEntryLast
PUBLIC	__pAtlLcidToLocaleNameTable
PUBLIC	?_AfxInitManaged@@YAHXZ				; _AfxInitManaged
PUBLIC	?_pPerfRegFunc@ATL@@3P6AJPAUHINSTANCE__@@@ZA	; ATL::_pPerfRegFunc
PUBLIC	?_pPerfUnRegFunc@ATL@@3P6AJXZA			; ATL::_pPerfUnRegFunc
PUBLIC	?_AtlRegisterPerUser@ATL@@3_NA			; ATL::_AtlRegisterPerUser
PUBLIC	_IID_IDocHostUIHandlerDispatch
PUBLIC	?m_bInit@CChiHuRight@@0_NA			; CChiHuRight::m_bInit
PUBLIC	?m_dwRightMask@CChiHuRight@@0PAKA		; CChiHuRight::m_dwRightMask
_BSS	SEGMENT
?GenericSansSerifFontFamily@Gdiplus@@3PAVFontFamily@1@A DD 01H DUP (?) ; Gdiplus::GenericSansSerifFontFamily
?GenericSerifFontFamily@Gdiplus@@3PAVFontFamily@1@A DD 01H DUP (?) ; Gdiplus::GenericSerifFontFamily
?GenericMonospaceFontFamily@Gdiplus@@3PAVFontFamily@1@A DD 01H DUP (?) ; Gdiplus::GenericMonospaceFontFamily
?GenericSansSerifFontFamilyBuffer@Gdiplus@@3PAEA DB 08H DUP (?) ; Gdiplus::GenericSansSerifFontFamilyBuffer
?GenericSerifFontFamilyBuffer@Gdiplus@@3PAEA DB 08H DUP (?) ; Gdiplus::GenericSerifFontFamilyBuffer
?GenericMonospaceFontFamilyBuffer@Gdiplus@@3PAEA DB 08H DUP (?) ; Gdiplus::GenericMonospaceFontFamilyBuffer
_BSS	ENDS
;	COMDAT ?_pAtlAutoThreadModule@ATL@@3PAUIAtlAutoThreadModule@1@A
_BSS	SEGMENT
?_pAtlAutoThreadModule@ATL@@3PAUIAtlAutoThreadModule@1@A DD 01H DUP (?) ; ATL::_pAtlAutoThreadModule
_BSS	ENDS
_BSS	SEGMENT
?GenericTypographicStringFormatBuffer@Gdiplus@@3PAEA DB 08H DUP (?) ; Gdiplus::GenericTypographicStringFormatBuffer
?GenericDefaultStringFormatBuffer@Gdiplus@@3PAEA DB 08H DUP (?) ; Gdiplus::GenericDefaultStringFormatBuffer
_BSS	ENDS
;	COMDAT ?_pAtlModule@ATL@@3PAVCAtlModule@1@A
_BSS	SEGMENT
?_pAtlModule@ATL@@3PAVCAtlModule@1@A DD 01H DUP (?)	; ATL::_pAtlModule
_BSS	ENDS
;	COMDAT ?_pModule@ATL@@3PAVCComModule@1@A
_BSS	SEGMENT
?_pModule@ATL@@3PAVCComModule@1@A DD 01H DUP (?)	; ATL::_pModule
_BSS	ENDS
;	COMDAT ?_pPerfRegFunc@ATL@@3P6AJPAUHINSTANCE__@@@ZA
_BSS	SEGMENT
?_pPerfRegFunc@ATL@@3P6AJPAUHINSTANCE__@@@ZA DD 01H DUP (?) ; ATL::_pPerfRegFunc
_BSS	ENDS
;	COMDAT ?_pPerfUnRegFunc@ATL@@3P6AJXZA
_BSS	SEGMENT
?_pPerfUnRegFunc@ATL@@3P6AJXZA DD 01H DUP (?)		; ATL::_pPerfUnRegFunc
_BSS	ENDS
;	COMDAT ?_AtlRegisterPerUser@ATL@@3_NA
_BSS	SEGMENT
?_AtlRegisterPerUser@ATL@@3_NA DB 01H DUP (?)		; ATL::_AtlRegisterPerUser
_BSS	ENDS
_BSS	SEGMENT
?m_bInit@CChiHuRight@@0_NA DB 01H DUP (?)		; CChiHuRight::m_bInit
	ALIGN	4

?m_dwRightMask@CChiHuRight@@0PAKA DD 01H DUP (?)	; CChiHuRight::m_dwRightMask
_BSS	ENDS
;	COMDAT _IID_IDocHostUIHandlerDispatch
CONST	SEGMENT
_IID_IDocHostUIHandlerDispatch DD 0425b5af0H
	DW	065f1H
	DW	011d1H
	DB	096H
	DB	011H
	DB	00H
	DB	00H
	DB	0f8H
	DB	01eH
	DB	0dH
	DB	0dH
CONST	ENDS
;	COMDAT __pAtlLcidToLocaleNameTable
CONST	SEGMENT
__pAtlLcidToLocaleNameTable DD 01H
	DD	FLAT:$SG61324
	DD	02H
	DD	FLAT:$SG61325
	DD	03H
	DD	FLAT:$SG61326
	DD	04H
	DD	FLAT:$SG61327
	DD	05H
	DD	FLAT:$SG61328
	DD	06H
	DD	FLAT:$SG61329
	DD	07H
	DD	FLAT:$SG61330
	DD	08H
	DD	FLAT:$SG61331
	DD	09H
	DD	FLAT:$SG61332
	DD	0aH
	DD	FLAT:$SG61333
	DD	0bH
	DD	FLAT:$SG61334
	DD	0cH
	DD	FLAT:$SG61335
	DD	0dH
	DD	FLAT:$SG61336
	DD	0eH
	DD	FLAT:$SG61337
	DD	0fH
	DD	FLAT:$SG61338
	DD	010H
	DD	FLAT:$SG61339
	DD	011H
	DD	FLAT:$SG61340
	DD	012H
	DD	FLAT:$SG61341
	DD	013H
	DD	FLAT:$SG61342
	DD	014H
	DD	FLAT:$SG61343
	DD	015H
	DD	FLAT:$SG61344
	DD	016H
	DD	FLAT:$SG61345
	DD	018H
	DD	FLAT:$SG61346
	DD	019H
	DD	FLAT:$SG61347
	DD	01aH
	DD	FLAT:$SG61348
	DD	01bH
	DD	FLAT:$SG61349
	DD	01cH
	DD	FLAT:$SG61350
	DD	01dH
	DD	FLAT:$SG61351
	DD	01eH
	DD	FLAT:$SG61352
	DD	01fH
	DD	FLAT:$SG61353
	DD	020H
	DD	FLAT:$SG61354
	DD	021H
	DD	FLAT:$SG61355
	DD	022H
	DD	FLAT:$SG61356
	DD	023H
	DD	FLAT:$SG61357
	DD	024H
	DD	FLAT:$SG61358
	DD	025H
	DD	FLAT:$SG61359
	DD	026H
	DD	FLAT:$SG61360
	DD	027H
	DD	FLAT:$SG61361
	DD	029H
	DD	FLAT:$SG61362
	DD	02aH
	DD	FLAT:$SG61363
	DD	02bH
	DD	FLAT:$SG61364
	DD	02cH
	DD	FLAT:$SG61365
	DD	02dH
	DD	FLAT:$SG61366
	DD	02fH
	DD	FLAT:$SG61367
	DD	036H
	DD	FLAT:$SG61368
	DD	037H
	DD	FLAT:$SG61369
	DD	038H
	DD	FLAT:$SG61370
	DD	039H
	DD	FLAT:$SG61371
	DD	03eH
	DD	FLAT:$SG61372
	DD	03fH
	DD	FLAT:$SG61373
	DD	040H
	DD	FLAT:$SG61374
	DD	041H
	DD	FLAT:$SG61375
	DD	043H
	DD	FLAT:$SG61376
	DD	044H
	DD	FLAT:$SG61377
	DD	046H
	DD	FLAT:$SG61378
	DD	047H
	DD	FLAT:$SG61379
	DD	049H
	DD	FLAT:$SG61380
	DD	04aH
	DD	FLAT:$SG61381
	DD	04bH
	DD	FLAT:$SG61382
	DD	04eH
	DD	FLAT:$SG61383
	DD	04fH
	DD	FLAT:$SG61384
	DD	050H
	DD	FLAT:$SG61385
	DD	056H
	DD	FLAT:$SG61386
	DD	057H
	DD	FLAT:$SG61387
	DD	05aH
	DD	FLAT:$SG61388
	DD	065H
	DD	FLAT:$SG61389
	DD	07fH
	DD	FLAT:$SG61390
	DD	0401H
	DD	FLAT:$SG61391
	DD	0402H
	DD	FLAT:$SG61392
	DD	0403H
	DD	FLAT:$SG61393
	DD	0404H
	DD	FLAT:$SG61394
	DD	0405H
	DD	FLAT:$SG61395
	DD	0406H
	DD	FLAT:$SG61396
	DD	0407H
	DD	FLAT:$SG61397
	DD	0408H
	DD	FLAT:$SG61398
	DD	0409H
	DD	FLAT:$SG61399
	DD	040bH
	DD	FLAT:$SG61400
	DD	040cH
	DD	FLAT:$SG61401
	DD	040dH
	DD	FLAT:$SG61402
	DD	040eH
	DD	FLAT:$SG61403
	DD	040fH
	DD	FLAT:$SG61404
	DD	0410H
	DD	FLAT:$SG61405
	DD	0411H
	DD	FLAT:$SG61406
	DD	0412H
	DD	FLAT:$SG61407
	DD	0413H
	DD	FLAT:$SG61408
	DD	0414H
	DD	FLAT:$SG61409
	DD	0415H
	DD	FLAT:$SG61410
	DD	0416H
	DD	FLAT:$SG61411
	DD	0418H
	DD	FLAT:$SG61412
	DD	0419H
	DD	FLAT:$SG61413
	DD	041aH
	DD	FLAT:$SG61414
	DD	041bH
	DD	FLAT:$SG61415
	DD	041cH
	DD	FLAT:$SG61416
	DD	041dH
	DD	FLAT:$SG61417
	DD	041eH
	DD	FLAT:$SG61418
	DD	041fH
	DD	FLAT:$SG61419
	DD	0420H
	DD	FLAT:$SG61420
	DD	0421H
	DD	FLAT:$SG61421
	DD	0422H
	DD	FLAT:$SG61422
	DD	0423H
	DD	FLAT:$SG61423
	DD	0424H
	DD	FLAT:$SG61424
	DD	0425H
	DD	FLAT:$SG61425
	DD	0426H
	DD	FLAT:$SG61426
	DD	0427H
	DD	FLAT:$SG61427
	DD	0429H
	DD	FLAT:$SG61428
	DD	042aH
	DD	FLAT:$SG61429
	DD	042bH
	DD	FLAT:$SG61430
	DD	042cH
	DD	FLAT:$SG61431
	DD	042dH
	DD	FLAT:$SG61432
	DD	042fH
	DD	FLAT:$SG61433
	DD	0432H
	DD	FLAT:$SG61434
	DD	0434H
	DD	FLAT:$SG61435
	DD	0435H
	DD	FLAT:$SG61436
	DD	0436H
	DD	FLAT:$SG61437
	DD	0437H
	DD	FLAT:$SG61438
	DD	0438H
	DD	FLAT:$SG61439
	DD	0439H
	DD	FLAT:$SG61440
	DD	043aH
	DD	FLAT:$SG61441
	DD	043bH
	DD	FLAT:$SG61442
	DD	043eH
	DD	FLAT:$SG61443
	DD	043fH
	DD	FLAT:$SG61444
	DD	0440H
	DD	FLAT:$SG61445
	DD	0441H
	DD	FLAT:$SG61446
	DD	0443H
	DD	FLAT:$SG61447
	DD	0444H
	DD	FLAT:$SG61448
	DD	0445H
	DD	FLAT:$SG61449
	DD	0446H
	DD	FLAT:$SG61450
	DD	0447H
	DD	FLAT:$SG61451
	DD	0449H
	DD	FLAT:$SG61452
	DD	044aH
	DD	FLAT:$SG61453
	DD	044bH
	DD	FLAT:$SG61454
	DD	044cH
	DD	FLAT:$SG61455
	DD	044eH
	DD	FLAT:$SG61456
	DD	044fH
	DD	FLAT:$SG61457
	DD	0450H
	DD	FLAT:$SG61458
	DD	0452H
	DD	FLAT:$SG61459
	DD	0456H
	DD	FLAT:$SG61460
	DD	0457H
	DD	FLAT:$SG61461
	DD	045aH
	DD	FLAT:$SG61462
	DD	0465H
	DD	FLAT:$SG61463
	DD	046bH
	DD	FLAT:$SG61464
	DD	046cH
	DD	FLAT:$SG61465
	DD	0481H
	DD	FLAT:$SG61466
	DD	0801H
	DD	FLAT:$SG61467
	DD	0804H
	DD	FLAT:$SG61468
	DD	0807H
	DD	FLAT:$SG61469
	DD	0809H
	DD	FLAT:$SG61470
	DD	080aH
	DD	FLAT:$SG61471
	DD	080cH
	DD	FLAT:$SG61472
	DD	0810H
	DD	FLAT:$SG61473
	DD	0813H
	DD	FLAT:$SG61474
	DD	0814H
	DD	FLAT:$SG61475
	DD	0816H
	DD	FLAT:$SG61476
	DD	081aH
	DD	FLAT:$SG61477
	DD	081dH
	DD	FLAT:$SG61478
	DD	082cH
	DD	FLAT:$SG61479
	DD	083bH
	DD	FLAT:$SG61480
	DD	083eH
	DD	FLAT:$SG61481
	DD	0843H
	DD	FLAT:$SG61482
	DD	086bH
	DD	FLAT:$SG61483
	DD	0c01H
	DD	FLAT:$SG61484
	DD	0c04H
	DD	FLAT:$SG61485
	DD	0c07H
	DD	FLAT:$SG61486
	DD	0c09H
	DD	FLAT:$SG61487
	DD	0c0aH
	DD	FLAT:$SG61488
	DD	0c0cH
	DD	FLAT:$SG61489
	DD	0c1aH
	DD	FLAT:$SG61490
	DD	0c3bH
	DD	FLAT:$SG61491
	DD	0c6bH
	DD	FLAT:$SG61492
	DD	01001H
	DD	FLAT:$SG61493
	DD	01004H
	DD	FLAT:$SG61494
	DD	01007H
	DD	FLAT:$SG61495
	DD	01009H
	DD	FLAT:$SG61496
	DD	0100aH
	DD	FLAT:$SG61497
	DD	0100cH
	DD	FLAT:$SG61498
	DD	0101aH
	DD	FLAT:$SG61499
	DD	0103bH
	DD	FLAT:$SG61500
	DD	01401H
	DD	FLAT:$SG61501
	DD	01404H
	DD	FLAT:$SG61502
	DD	01407H
	DD	FLAT:$SG61503
	DD	01409H
	DD	FLAT:$SG61504
	DD	0140aH
	DD	FLAT:$SG61505
	DD	0140cH
	DD	FLAT:$SG61506
	DD	0141aH
	DD	FLAT:$SG61507
	DD	0143bH
	DD	FLAT:$SG61508
	DD	01801H
	DD	FLAT:$SG61509
	DD	01809H
	DD	FLAT:$SG61510
	DD	0180aH
	DD	FLAT:$SG61511
	DD	0180cH
	DD	FLAT:$SG61512
	DD	0181aH
	DD	FLAT:$SG61513
	DD	0183bH
	DD	FLAT:$SG61514
	DD	01c01H
	DD	FLAT:$SG61515
	DD	01c09H
	DD	FLAT:$SG61516
	DD	01c0aH
	DD	FLAT:$SG61517
	DD	01c1aH
	DD	FLAT:$SG61518
	DD	01c3bH
	DD	FLAT:$SG61519
	DD	02001H
	DD	FLAT:$SG61520
	DD	02009H
	DD	FLAT:$SG61521
	DD	0200aH
	DD	FLAT:$SG61522
	DD	0203bH
	DD	FLAT:$SG61523
	DD	02401H
	DD	FLAT:$SG61524
	DD	02409H
	DD	FLAT:$SG61525
	DD	0240aH
	DD	FLAT:$SG61526
	DD	0243bH
	DD	FLAT:$SG61527
	DD	02801H
	DD	FLAT:$SG61528
	DD	02809H
	DD	FLAT:$SG61529
	DD	0280aH
	DD	FLAT:$SG61530
	DD	02c01H
	DD	FLAT:$SG61531
	DD	02c09H
	DD	FLAT:$SG61532
	DD	02c0aH
	DD	FLAT:$SG61533
	DD	03001H
	DD	FLAT:$SG61534
	DD	03009H
	DD	FLAT:$SG61535
	DD	0300aH
	DD	FLAT:$SG61536
	DD	03401H
	DD	FLAT:$SG61537
	DD	03409H
	DD	FLAT:$SG61538
	DD	0340aH
	DD	FLAT:$SG61539
	DD	03801H
	DD	FLAT:$SG61540
	DD	0380aH
	DD	FLAT:$SG61541
	DD	03c01H
	DD	FLAT:$SG61542
	DD	03c0aH
	DD	FLAT:$SG61543
	DD	04001H
	DD	FLAT:$SG61544
	DD	0400aH
	DD	FLAT:$SG61545
	DD	0440aH
	DD	FLAT:$SG61546
	DD	0480aH
	DD	FLAT:$SG61547
	DD	04c0aH
	DD	FLAT:$SG61548
	DD	0500aH
	DD	FLAT:$SG61549
	DD	07c04H
	DD	FLAT:$SG61550
	DD	07c1aH
	DD	FLAT:$SG61551
CONST	ENDS
;	COMDAT ___pobjMapEntryLast
ATL$__z	SEGMENT
___pobjMapEntryLast DD 00H
ATL$__z	ENDS
;	COMDAT ___pobjMapEntryFirst
ATL$__a	SEGMENT
___pobjMapEntryFirst DD 00H
ATL$__a	ENDS
;	COMDAT _IID_IRegistrar
CONST	SEGMENT
_IID_IRegistrar DD 044ec053bH
	DW	0400fH
	DW	011d0H
	DB	09dH
	DB	0cdH
	DB	00H
	DB	0a0H
	DB	0c9H
	DB	03H
	DB	091H
	DB	0d3H
CONST	ENDS
;	COMDAT _CLSID_Registrar
CONST	SEGMENT
_CLSID_Registrar DD 044ec053aH
	DW	0400fH
	DW	011d0H
	DB	09dH
	DB	0cdH
	DB	00H
	DB	0a0H
	DB	0c9H
	DB	03H
	DB	091H
	DB	0d3H
CONST	ENDS
;	COMDAT _LIBID_ATLLib
CONST	SEGMENT
_LIBID_ATLLib DD 044ec0535H
	DW	0400fH
	DW	011d0H
	DB	09dH
	DB	0cdH
	DB	00H
	DB	0a0H
	DB	0c9H
	DB	03H
	DB	091H
	DB	0d3H
CONST	ENDS
;	COMDAT _CLSID_FlashObjectInterface
CONST	SEGMENT
_CLSID_FlashObjectInterface DD 0d27cdb71H
	DW	0ae6dH
	DW	011cfH
	DB	096H
	DB	0b8H
	DB	044H
	DB	045H
	DB	053H
	DB	054H
	DB	00H
	DB	00H
CONST	ENDS
;	COMDAT _IID_IFlashObjectInterface
CONST	SEGMENT
_IID_IFlashObjectInterface DD 0d27cdb72H
	DW	0ae6dH
	DW	011cfH
	DB	096H
	DB	0b8H
	DB	044H
	DB	045H
	DB	053H
	DB	054H
	DB	00H
	DB	00H
CONST	ENDS
;	COMDAT ?szInvalidDateTimeSpan@ATL@@3QB_WB
CONST	SEGMENT
?szInvalidDateTimeSpan@ATL@@3QB_WB DD FLAT:$SG82626	; ATL::szInvalidDateTimeSpan
CONST	ENDS
;	COMDAT _IID_IDispatchEx
CONST	SEGMENT
_IID_IDispatchEx DD 0a6ef9860H
	DW	0c720H
	DW	011d0H
	DB	093H
	DB	037H
	DB	00H
	DB	0a0H
	DB	0c9H
	DB	0dH
	DB	0caH
	DB	0a9H
CONST	ENDS
;	COMDAT _IID_IFlashFactory
CONST	SEGMENT
_IID_IFlashFactory DD 0d27cdb70H
	DW	0ae6dH
	DW	011cfH
	DB	096H
	DB	0b8H
	DB	044H
	DB	045H
	DB	053H
	DB	054H
	DB	00H
	DB	00H
CONST	ENDS
;	COMDAT ?szInvalidDateTime@ATL@@3QB_WB
CONST	SEGMENT
?szInvalidDateTime@ATL@@3QB_WB DD FLAT:$SG82624		; ATL::szInvalidDateTime
CONST	ENDS
;	COMDAT _CLSID_ShockwaveFlash
CONST	SEGMENT
_CLSID_ShockwaveFlash DD 0d27cdb6eH
	DW	0ae6dH
	DW	011cfH
	DB	096H
	DB	0b8H
	DB	044H
	DB	045H
	DB	053H
	DB	054H
	DB	00H
	DB	00H
CONST	ENDS
;	COMDAT _DIID__IShockwaveFlashEvents
CONST	SEGMENT
_DIID__IShockwaveFlashEvents DD 0d27cdb6dH
	DW	0ae6dH
	DW	011cfH
	DB	096H
	DB	0b8H
	DB	044H
	DB	045H
	DB	053H
	DB	054H
	DB	00H
	DB	00H
CONST	ENDS
;	COMDAT _IID_IShockwaveFlash
CONST	SEGMENT
_IID_IShockwaveFlash DD 0d27cdb6cH
	DW	0ae6dH
	DW	011cfH
	DB	096H
	DB	0b8H
	DB	044H
	DB	045H
	DB	053H
	DB	054H
	DB	00H
	DB	00H
CONST	ENDS
;	COMDAT _LIBID_ShockwaveFlashObjects
CONST	SEGMENT
_LIBID_ShockwaveFlashObjects DD 0d27cdb6bH
	DW	0ae6dH
	DW	011cfH
	DB	096H
	DB	0b8H
	DB	044H
	DB	045H
	DB	053H
	DB	054H
	DB	00H
	DB	00H
CONST	ENDS
;	COMDAT _IID_IInternalConnection
CONST	SEGMENT
_IID_IInternalConnection DD 072ad0770H
	DW	06a9fH
	DW	011d1H
	DB	0bcH
	DB	0ecH
	DB	00H
	DB	060H
	DB	08H
	DB	08fH
	DB	044H
	DB	04eH
CONST	ENDS
;	COMDAT _IID_IAxWinAmbientDispatchEx
CONST	SEGMENT
_IID_IAxWinAmbientDispatchEx DD 0b2d0778bH
	DW	0ac99H
	DW	04c58H
	DB	0a5H
	DB	0c8H
	DB	0e7H
	DB	072H
	DB	04eH
	DB	053H
	DB	016H
	DB	0b5H
CONST	ENDS
;	COMDAT __pIncludeInitManaged
_DATA	SEGMENT
__pIncludeInitManaged DD FLAT:?_AfxInitManaged@@YAHXZ
_DATA	ENDS
;	COMDAT _IID_IAxWinAmbientDispatch
CONST	SEGMENT
_IID_IAxWinAmbientDispatch DD 0b6ea2051H
	DW	048aH
	DW	011d1H
	DB	082H
	DB	0b9H
	DB	00H
	DB	0c0H
	DB	04fH
	DB	0b9H
	DB	094H
	DB	02eH
CONST	ENDS
;	COMDAT _IID_IAxWinHostWindowLic
CONST	SEGMENT
_IID_IAxWinHostWindowLic DD 03935bda8H
	DW	04ed9H
	DW	0495cH
	DB	086H
	DB	050H
	DB	0e0H
	DB	01fH
	DB	0c1H
	DB	0e3H
	DB	08aH
	DB	04bH
CONST	ENDS
_DATA	SEGMENT
?PADDING@@3PAEA DB 080H					; PADDING
	DB	00H
	DB	00H
	DB	00H
	DB	00H
	DB	00H
	DB	00H
	DB	00H
	DB	00H
	DB	00H
	DB	00H
	DB	00H
	DB	00H
	DB	00H
	DB	00H
	DB	00H
	DB	00H
	DB	00H
	DB	00H
	DB	00H
	DB	00H
	DB	00H
	DB	00H
	DB	00H
	DB	00H
	DB	00H
	DB	00H
	DB	00H
	DB	00H
	DB	00H
	DB	00H
	DB	00H
	DB	00H
	DB	00H
	DB	00H
	DB	00H
	DB	00H
	DB	00H
	DB	00H
	DB	00H
	DB	00H
	DB	00H
	DB	00H
	DB	00H
	DB	00H
	DB	00H
	DB	00H
	DB	00H
	DB	00H
	DB	00H
	DB	00H
	DB	00H
	DB	00H
	DB	00H
	DB	00H
	DB	00H
	DB	00H
	DB	00H
	DB	00H
	DB	00H
	DB	00H
	DB	00H
	DB	00H
	DB	00H
_DATA	ENDS
;	COMDAT ?CLSID_WinFormsControl@@3U_GUID@@B
CONST	SEGMENT
?CLSID_WinFormsControl@@3U_GUID@@B DD 0b7e7a666H	; CLSID_WinFormsControl
	DW	0d623H
	DW	0457fH
	DB	0a3H
	DB	0aH
	DB	06aH
	DB	049H
	DB	0a3H
	DB	0e5H
	DB	0b4H
	DB	070H
CONST	ENDS
;	COMDAT ?IID_IRichEditOleCallback2@@3U_GUID@@A
_DATA	SEGMENT
?IID_IRichEditOleCallback2@@3U_GUID@@A DD 089fc1386H	; IID_IRichEditOleCallback2
	DW	091e5H
	DW	0415fH
	DB	0adH
	DB	08fH
	DB	04H
	DB	041H
	DB	05cH
	DB	015H
	DB	0f8H
	DB	0f5H
_DATA	ENDS
;	COMDAT ?IID_IImageOle@@3U_GUID@@A
_DATA	SEGMENT
?IID_IImageOle@@3U_GUID@@A DD 0e41fe3bbH		; IID_IImageOle
	DW	07218H
	DW	0423dH
	DB	095H
	DB	02eH
	DB	096H
	DB	0e5H
	DB	056H
	DB	0aeH
	DB	0e3H
	DB	0fH
_DATA	ENDS
;	COMDAT ?CLSID_ImageOle@@3U_GUID@@A
_DATA	SEGMENT
?CLSID_ImageOle@@3U_GUID@@A DD 0c5b3a481H		; CLSID_ImageOle
	DW	021e3H
	DW	04cabH
	DB	08aH
	DB	0bdH
	DB	03cH
	DB	06aH
	DB	085H
	DB	089H
	DB	02aH
	DB	0d2H
_DATA	ENDS
;	COMDAT _IID_IAxWinHostWindow
CONST	SEGMENT
_IID_IAxWinHostWindow DD 0b6ea2050H
	DW	048aH
	DW	011d1H
	DB	082H
	DB	0b9H
	DB	00H
	DB	0c0H
	DB	04fH
	DB	0b9H
	DB	094H
	DB	02eH
CONST	ENDS
;	COMDAT ?szDelete@ATL@@3QB_WB
CONST	SEGMENT
?szDelete@ATL@@3QB_WB DD FLAT:$SG109682			; ATL::szDelete
CONST	ENDS
;	COMDAT __pAtlLocaleNameToIndexTable
CONST	SEGMENT
__pAtlLocaleNameToIndexTable DD FLAT:$SG61553
	DD	042H
	DD	FLAT:$SG61554
	DD	02cH
	DD	FLAT:$SG61555
	DD	071H
	DD	FLAT:$SG61556
	DD	00H
	DD	FLAT:$SG61557
	DD	0d8H
	DD	FLAT:$SG61558
	DD	0daH
	DD	FLAT:$SG61559
	DD	0b1H
	DD	FLAT:$SG61560
	DD	0a0H
	DD	FLAT:$SG61561
	DD	08fH
	DD	FLAT:$SG61562
	DD	0cfH
	DD	FLAT:$SG61563
	DD	0d5H
	DD	FLAT:$SG61564
	DD	0d2H
	DD	FLAT:$SG61565
	DD	0a9H
	DD	FLAT:$SG61566
	DD	0b9H
	DD	FLAT:$SG61567
	DD	0c4H
	DD	FLAT:$SG61568
	DD	0dcH
	DD	FLAT:$SG61569
	DD	043H
	DD	FLAT:$SG61570
	DD	0ccH
	DD	FLAT:$SG61571
	DD	0bfH
	DD	FLAT:$SG61572
	DD	0c8H
	DD	FLAT:$SG61573
	DD	029H
	DD	FLAT:$SG61574
	DD	09bH
	DD	FLAT:$SG61575
	DD	06bH
	DD	FLAT:$SG61576
	DD	021H
	DD	FLAT:$SG61577
	DD	063H
	DD	FLAT:$SG61578
	DD	01H
	DD	FLAT:$SG61579
	DD	044H
	DD	FLAT:$SG61580
	DD	07dH
	DD	FLAT:$SG61581
	DD	0b7H
	DD	FLAT:$SG61582
	DD	02H
	DD	FLAT:$SG61583
	DD	045H
	DD	FLAT:$SG61584
	DD	04H
	DD	FLAT:$SG61585
	DD	047H
	DD	FLAT:$SG61586
	DD	087H
	DD	FLAT:$SG61587
	DD	05H
	DD	FLAT:$SG61588
	DD	048H
	DD	FLAT:$SG61589
	DD	06H
	DD	FLAT:$SG61590
	DD	0a2H
	DD	FLAT:$SG61591
	DD	091H
	DD	FLAT:$SG61592
	DD	049H
	DD	FLAT:$SG61593
	DD	0b3H
	DD	FLAT:$SG61594
	DD	0abH
	DD	FLAT:$SG61595
	DD	041H
	DD	FLAT:$SG61596
	DD	08bH
	DD	FLAT:$SG61597
	DD	07H
	DD	FLAT:$SG61598
	DD	04aH
	DD	FLAT:$SG61599
	DD	08H
	DD	FLAT:$SG61600
	DD	0a3H
	DD	FLAT:$SG61601
	DD	0cdH
	DD	FLAT:$SG61602
	DD	0acH
	DD	FLAT:$SG61603
	DD	0c9H
	DD	FLAT:$SG61604
	DD	092H
	DD	FLAT:$SG61605
	DD	0baH
	DD	FLAT:$SG61606
	DD	0c5H
	DD	FLAT:$SG61607
	DD	0b4H
	DD	FLAT:$SG61608
	DD	0d6H
	DD	FLAT:$SG61609
	DD	0d0H
	DD	FLAT:$SG61610
	DD	04bH
	DD	FLAT:$SG61611
	DD	0c0H
	DD	FLAT:$SG61612
	DD	0d3H
	DD	FLAT:$SG61613
	DD	09H
	DD	FLAT:$SG61614
	DD	0d1H
	DD	FLAT:$SG61615
	DD	0ddH
	DD	FLAT:$SG61616
	DD	0d7H
	DD	FLAT:$SG61617
	DD	0caH
	DD	FLAT:$SG61618
	DD	0b5H
	DD	FLAT:$SG61619
	DD	0c1H
	DD	FLAT:$SG61620
	DD	0d4H
	DD	FLAT:$SG61621
	DD	0a4H
	DD	FLAT:$SG61622
	DD	0adH
	DD	FLAT:$SG61623
	DD	0dfH
	DD	FLAT:$SG61624
	DD	093H
	DD	FLAT:$SG61625
	DD	0e0H
	DD	FLAT:$SG61626
	DD	0bbH
	DD	FLAT:$SG61627
	DD	0ceH
	DD	FLAT:$SG61628
	DD	0e1H
	DD	FLAT:$SG61629
	DD	0dbH
	DD	FLAT:$SG61630
	DD	0deH
	DD	FLAT:$SG61631
	DD	0d9H
	DD	FLAT:$SG61632
	DD	0c6H
	DD	FLAT:$SG61633
	DD	023H
	DD	FLAT:$SG61634
	DD	065H
	DD	FLAT:$SG61635
	DD	02aH
	DD	FLAT:$SG61636
	DD	06cH
	DD	FLAT:$SG61637
	DD	026H
	DD	FLAT:$SG61638
	DD	068H
	DD	FLAT:$SG61639
	DD	0aH
	DD	FLAT:$SG61640
	DD	04cH
	DD	FLAT:$SG61641
	DD	02eH
	DD	FLAT:$SG61642
	DD	073H
	DD	FLAT:$SG61643
	DD	0bH
	DD	FLAT:$SG61644
	DD	094H
	DD	FLAT:$SG61645
	DD	0a5H
	DD	FLAT:$SG61646
	DD	0aeH
	DD	FLAT:$SG61647
	DD	04dH
	DD	FLAT:$SG61648
	DD	0b6H
	DD	FLAT:$SG61649
	DD	0bcH
	DD	FLAT:$SG61650
	DD	03eH
	DD	FLAT:$SG61651
	DD	088H
	DD	FLAT:$SG61652
	DD	037H
	DD	FLAT:$SG61653
	DD	07fH
	DD	FLAT:$SG61654
	DD	0cH
	DD	FLAT:$SG61655
	DD	04eH
	DD	FLAT:$SG61656
	DD	02fH
	DD	FLAT:$SG61657
	DD	074H
	DD	FLAT:$SG61658
	DD	018H
	DD	FLAT:$SG61659
	DD	0afH
	DD	FLAT:$SG61660
	DD	05aH
	DD	FLAT:$SG61661
	DD	0dH
	DD	FLAT:$SG61662
	DD	04fH
	DD	FLAT:$SG61663
	DD	028H
	DD	FLAT:$SG61664
	DD	06aH
	DD	FLAT:$SG61665
	DD	01fH
	DD	FLAT:$SG61666
	DD	061H
	DD	FLAT:$SG61667
	DD	0eH
	DD	FLAT:$SG61668
	DD	050H
	DD	FLAT:$SG61669
	DD	0fH
	DD	FLAT:$SG61670
	DD	095H
	DD	FLAT:$SG61671
	DD	051H
	DD	FLAT:$SG61672
	DD	010H
	DD	FLAT:$SG61673
	DD	052H
	DD	FLAT:$SG61674
	DD	02dH
	DD	FLAT:$SG61675
	DD	072H
	DD	FLAT:$SG61676
	DD	031H
	DD	FLAT:$SG61677
	DD	078H
	DD	FLAT:$SG61678
	DD	03aH
	DD	FLAT:$SG61679
	DD	082H
	DD	FLAT:$SG61680
	DD	011H
	DD	FLAT:$SG61681
	DD	03fH
	DD	FLAT:$SG61682
	DD	089H
	DD	FLAT:$SG61683
	DD	053H
	DD	FLAT:$SG61684
	DD	032H
	DD	FLAT:$SG61685
	DD	079H
	DD	FLAT:$SG61686
	DD	025H
	DD	FLAT:$SG61687
	DD	067H
	DD	FLAT:$SG61688
	DD	024H
	DD	FLAT:$SG61689
	DD	066H
	DD	FLAT:$SG61690
	DD	08eH
	DD	FLAT:$SG61691
	DD	02bH
	DD	FLAT:$SG61692
	DD	06dH
	DD	FLAT:$SG61693
	DD	083H
	DD	FLAT:$SG61694
	DD	03dH
	DD	FLAT:$SG61695
	DD	086H
	DD	FLAT:$SG61696
	DD	03bH
	DD	FLAT:$SG61697
	DD	084H
	DD	FLAT:$SG61698
	DD	030H
	DD	FLAT:$SG61699
	DD	09dH
	DD	FLAT:$SG61700
	DD	077H
	DD	FLAT:$SG61701
	DD	075H
	DD	FLAT:$SG61702
	DD	055H
	DD	FLAT:$SG61703
	DD	012H
	DD	FLAT:$SG61704
	DD	096H
	DD	FLAT:$SG61705
	DD	054H
	DD	FLAT:$SG61706
	DD	097H
	DD	FLAT:$SG61707
	DD	013H
	DD	FLAT:$SG61708
	DD	08dH
	DD	FLAT:$SG61709
	DD	036H
	DD	FLAT:$SG61710
	DD	07eH
	DD	FLAT:$SG61711
	DD	014H
	DD	FLAT:$SG61712
	DD	056H
	DD	FLAT:$SG61713
	DD	015H
	DD	FLAT:$SG61714
	DD	057H
	DD	FLAT:$SG61715
	DD	098H
	DD	FLAT:$SG61716
	DD	08cH
	DD	FLAT:$SG61717
	DD	09fH
	DD	FLAT:$SG61718
	DD	0a8H
	DD	FLAT:$SG61719
	DD	016H
	DD	FLAT:$SG61720
	DD	058H
	DD	FLAT:$SG61721
	DD	017H
	DD	FLAT:$SG61722
	DD	059H
	DD	FLAT:$SG61723
	DD	03cH
	DD	FLAT:$SG61724
	DD	085H
	DD	FLAT:$SG61725
	DD	0a7H
	DD	FLAT:$SG61726
	DD	076H
	DD	FLAT:$SG61727
	DD	09cH
	DD	FLAT:$SG61728
	DD	019H
	DD	FLAT:$SG61729
	DD	05bH
	DD	FLAT:$SG61730
	DD	022H
	DD	FLAT:$SG61731
	DD	064H
	DD	FLAT:$SG61732
	DD	0beH
	DD	FLAT:$SG61733
	DD	0c3H
	DD	FLAT:$SG61734
	DD	0b0H
	DD	FLAT:$SG61735
	DD	0b8H
	DD	FLAT:$SG61736
	DD	0cbH
	DD	FLAT:$SG61737
	DD	0c7H
	DD	FLAT:$SG61738
	DD	01aH
	DD	FLAT:$SG61739
	DD	05cH
	DD	FLAT:$SG61740
	DD	0e3H
	DD	FLAT:$SG61741
	DD	0c2H
	DD	FLAT:$SG61742
	DD	0bdH
	DD	FLAT:$SG61743
	DD	0a6H
	DD	FLAT:$SG61744
	DD	099H
	DD	FLAT:$SG61745
	DD	01bH
	DD	FLAT:$SG61746
	DD	09aH
	DD	FLAT:$SG61747
	DD	05dH
	DD	FLAT:$SG61748
	DD	033H
	DD	FLAT:$SG61749
	DD	07aH
	DD	FLAT:$SG61750
	DD	040H
	DD	FLAT:$SG61751
	DD	08aH
	DD	FLAT:$SG61752
	DD	038H
	DD	FLAT:$SG61753
	DD	080H
	DD	FLAT:$SG61754
	DD	039H
	DD	FLAT:$SG61755
	DD	081H
	DD	FLAT:$SG61756
	DD	01cH
	DD	FLAT:$SG61757
	DD	05eH
	DD	FLAT:$SG61758
	DD	06eH
	DD	FLAT:$SG61759
	DD	01dH
	DD	FLAT:$SG61760
	DD	05fH
	DD	FLAT:$SG61761
	DD	035H
	DD	FLAT:$SG61762
	DD	07cH
	DD	FLAT:$SG61763
	DD	020H
	DD	FLAT:$SG61764
	DD	062H
	DD	FLAT:$SG61765
	DD	01eH
	DD	FLAT:$SG61766
	DD	060H
	DD	FLAT:$SG61767
	DD	034H
	DD	FLAT:$SG61768
	DD	09eH
	DD	FLAT:$SG61769
	DD	07bH
	DD	FLAT:$SG61770
	DD	027H
	DD	FLAT:$SG61771
	DD	069H
	DD	FLAT:$SG61772
	DD	06fH
	DD	FLAT:$SG61773
	DD	03H
	DD	FLAT:$SG61774
	DD	0e2H
	DD	FLAT:$SG61775
	DD	090H
	DD	FLAT:$SG61776
	DD	0a1H
	DD	FLAT:$SG61777
	DD	0b2H
	DD	FLAT:$SG61778
	DD	0aaH
	DD	FLAT:$SG61779
	DD	046H
	DD	FLAT:$SG61780
	DD	070H
CONST	ENDS
;	COMDAT ?szNoRemove@ATL@@3QB_WB
CONST	SEGMENT
?szNoRemove@ATL@@3QB_WB DD FLAT:$SG109680		; ATL::szNoRemove
CONST	ENDS
;	COMDAT ?szForceRemove@ATL@@3QB_WB
CONST	SEGMENT
?szForceRemove@ATL@@3QB_WB DD FLAT:$SG109678		; ATL::szForceRemove
CONST	ENDS
;	COMDAT ?szValToken@ATL@@3QB_WB
CONST	SEGMENT
?szValToken@ATL@@3QB_WB DD FLAT:$SG109676		; ATL::szValToken
CONST	ENDS
;	COMDAT ?szBinaryVal@ATL@@3QB_WB
CONST	SEGMENT
?szBinaryVal@ATL@@3QB_WB DD FLAT:$SG109674		; ATL::szBinaryVal
CONST	ENDS
;	COMDAT ?szDwordVal@ATL@@3QB_WB
CONST	SEGMENT
?szDwordVal@ATL@@3QB_WB DD FLAT:$SG109672		; ATL::szDwordVal
CONST	ENDS
;	COMDAT ?multiszStringVal@ATL@@3QB_WB
CONST	SEGMENT
?multiszStringVal@ATL@@3QB_WB DD FLAT:$SG109670		; ATL::multiszStringVal
CONST	ENDS
;	COMDAT ?szStringVal@ATL@@3QB_WB
CONST	SEGMENT
?szStringVal@ATL@@3QB_WB DD FLAT:$SG109668		; ATL::szStringVal
CONST	ENDS
;	COMDAT ?chEquals@ATL@@3_WB
CONST	SEGMENT
?chEquals@ATL@@3_WB DW 03dH				; ATL::chEquals
CONST	ENDS
;	COMDAT ?chQuote@ATL@@3_WB
CONST	SEGMENT
?chQuote@ATL@@3_WB DW 027H				; ATL::chQuote
CONST	ENDS
;	COMDAT ?chLeftBracket@ATL@@3_WB
CONST	SEGMENT
?chLeftBracket@ATL@@3_WB DW 07bH			; ATL::chLeftBracket
CONST	ENDS
;	COMDAT ?chRightBracket@ATL@@3_WB
CONST	SEGMENT
?chRightBracket@ATL@@3_WB DW 07dH			; ATL::chRightBracket
CONST	ENDS
;	COMDAT ?chDirSep@ATL@@3_WB
CONST	SEGMENT
?chDirSep@ATL@@3_WB DW 05cH				; ATL::chDirSep
CONST	ENDS
CONST	SEGMENT
$SG61440 DB	'h', 00H, 'i', 00H, '-', 00H, 'I', 00H, 'N', 00H, 00H, 00H
$SG61441 DB	'm', 00H, 't', 00H, '-', 00H, 'M', 00H, 'T', 00H, 00H, 00H
$SG61442 DB	's', 00H, 'e', 00H, '-', 00H, 'N', 00H, 'O', 00H, 00H, 00H
$SG61443 DB	'm', 00H, 's', 00H, '-', 00H, 'M', 00H, 'Y', 00H, 00H, 00H
?m_cbCardDataArray@CGameLogic@@1QBEB DB 01H		; CGameLogic::m_cbCardDataArray
	DB	02H
	DB	03H
	DB	04H
	DB	05H
	DB	06H
	DB	07H
	DB	08H
	DB	09H
	DB	01H
	DB	02H
	DB	03H
	DB	04H
	DB	05H
	DB	06H
	DB	07H
	DB	08H
	DB	09H
	DB	01H
	DB	02H
	DB	03H
	DB	04H
	DB	05H
	DB	06H
	DB	07H
	DB	08H
	DB	09H
	DB	01H
	DB	02H
	DB	03H
	DB	04H
	DB	05H
	DB	06H
	DB	07H
	DB	08H
	DB	09H
	DB	011H
	DB	012H
	DB	013H
	DB	014H
	DB	015H
	DB	016H
	DB	017H
	DB	018H
	DB	019H
	DB	011H
	DB	012H
	DB	013H
	DB	014H
	DB	015H
	DB	016H
	DB	017H
	DB	018H
	DB	019H
	DB	011H
	DB	012H
	DB	013H
	DB	014H
	DB	015H
	DB	016H
	DB	017H
	DB	018H
	DB	019H
	DB	011H
	DB	012H
	DB	013H
	DB	014H
	DB	015H
	DB	016H
	DB	017H
	DB	018H
	DB	019H
	DB	021H
	DB	022H
	DB	023H
	DB	024H
	DB	025H
	DB	026H
	DB	027H
	DB	028H
	DB	029H
	DB	021H
	DB	022H
	DB	023H
	DB	024H
	DB	025H
	DB	026H
	DB	027H
	DB	028H
	DB	029H
	DB	021H
	DB	022H
	DB	023H
	DB	024H
	DB	025H
	DB	026H
	DB	027H
	DB	028H
	DB	029H
	DB	021H
	DB	022H
	DB	023H
	DB	024H
	DB	025H
	DB	026H
	DB	027H
	DB	028H
	DB	029H
	DB	035H
	DB	035H
	DB	035H
	DB	035H
$SG61444 DB	'k', 00H, 'k', 00H, '-', 00H, 'K', 00H, 'Z', 00H, 00H, 00H
$SG61445 DB	'k', 00H, 'y', 00H, '-', 00H, 'K', 00H, 'G', 00H, 00H, 00H
$SG61446 DB	's', 00H, 'w', 00H, '-', 00H, 'K', 00H, 'E', 00H, 00H, 00H
$SG61447 DB	'u', 00H, 'z', 00H, '-', 00H, 'U', 00H, 'Z', 00H, '-', 00H
	DB	'L', 00H, 'a', 00H, 't', 00H, 'n', 00H, 00H, 00H
	ORG $+2
$SG61448 DB	't', 00H, 't', 00H, '-', 00H, 'R', 00H, 'U', 00H, 00H, 00H
$SG61449 DB	'b', 00H, 'n', 00H, '-', 00H, 'I', 00H, 'N', 00H, 00H, 00H
$SG61450 DB	'p', 00H, 'a', 00H, '-', 00H, 'I', 00H, 'N', 00H, 00H, 00H
$SG61451 DB	'g', 00H, 'u', 00H, '-', 00H, 'I', 00H, 'N', 00H, 00H, 00H
$SG61452 DB	't', 00H, 'a', 00H, '-', 00H, 'I', 00H, 'N', 00H, 00H, 00H
$SG61453 DB	't', 00H, 'e', 00H, '-', 00H, 'I', 00H, 'N', 00H, 00H, 00H
$SG61454 DB	'k', 00H, 'n', 00H, '-', 00H, 'I', 00H, 'N', 00H, 00H, 00H
$SG61455 DB	'm', 00H, 'l', 00H, '-', 00H, 'I', 00H, 'N', 00H, 00H, 00H
?IID_IDataBase@@3U_GUID@@B DD 07fbbbffaH		; IID_IDataBase
	DW	0edf4H
	DW	043d2H
	DB	08aH
	DB	0b7H
	DB	028H
	DB	087H
	DB	03bH
	DB	0d0H
	DB	0f5H
	DB	03fH
$SG61456 DB	'm', 00H, 'r', 00H, '-', 00H, 'I', 00H, 'N', 00H, 00H, 00H
$SG61457 DB	's', 00H, 'a', 00H, '-', 00H, 'I', 00H, 'N', 00H, 00H, 00H
$SG61458 DB	'm', 00H, 'n', 00H, '-', 00H, 'M', 00H, 'N', 00H, 00H, 00H
$SG61459 DB	'c', 00H, 'y', 00H, '-', 00H, 'G', 00H, 'B', 00H, 00H, 00H
$SG61460 DB	'g', 00H, 'l', 00H, '-', 00H, 'E', 00H, 'S', 00H, 00H, 00H
$SG61461 DB	'k', 00H, 'o', 00H, 'k', 00H, '-', 00H, 'I', 00H, 'N', 00H
	DB	00H, 00H
	ORG $+2
$SG61462 DB	's', 00H, 'y', 00H, 'r', 00H, '-', 00H, 'S', 00H, 'Y', 00H
	DB	00H, 00H
	ORG $+2
$SG61463 DB	'd', 00H, 'i', 00H, 'v', 00H, '-', 00H, 'M', 00H, 'V', 00H
	DB	00H, 00H
	ORG $+2
$SG61464 DB	'q', 00H, 'u', 00H, 'z', 00H, '-', 00H, 'B', 00H, 'O', 00H
	DB	00H, 00H
	ORG $+2
$SG61465 DB	'n', 00H, 's', 00H, '-', 00H, 'Z', 00H, 'A', 00H, 00H, 00H
$SG61466 DB	'm', 00H, 'i', 00H, '-', 00H, 'N', 00H, 'Z', 00H, 00H, 00H
$SG61467 DB	'a', 00H, 'r', 00H, '-', 00H, 'I', 00H, 'Q', 00H, 00H, 00H
$SG61468 DB	'z', 00H, 'h', 00H, '-', 00H, 'C', 00H, 'N', 00H, 00H, 00H
$SG61469 DB	'd', 00H, 'e', 00H, '-', 00H, 'C', 00H, 'H', 00H, 00H, 00H
$SG61470 DB	'e', 00H, 'n', 00H, '-', 00H, 'G', 00H, 'B', 00H, 00H, 00H
$SG61471 DB	'e', 00H, 's', 00H, '-', 00H, 'M', 00H, 'X', 00H, 00H, 00H
$SG61472 DB	'f', 00H, 'r', 00H, '-', 00H, 'B', 00H, 'E', 00H, 00H, 00H
$SG61473 DB	'i', 00H, 't', 00H, '-', 00H, 'C', 00H, 'H', 00H, 00H, 00H
$SG61474 DB	'n', 00H, 'l', 00H, '-', 00H, 'B', 00H, 'E', 00H, 00H, 00H
$SG61475 DB	'n', 00H, 'n', 00H, '-', 00H, 'N', 00H, 'O', 00H, 00H, 00H
$SG61476 DB	'p', 00H, 't', 00H, '-', 00H, 'P', 00H, 'T', 00H, 00H, 00H
$SG61477 DB	's', 00H, 'r', 00H, '-', 00H, 'S', 00H, 'P', 00H, '-', 00H
	DB	'L', 00H, 'a', 00H, 't', 00H, 'n', 00H, 00H, 00H
	ORG $+2
$SG61478 DB	's', 00H, 'v', 00H, '-', 00H, 'F', 00H, 'I', 00H, 00H, 00H
$SG61479 DB	'a', 00H, 'z', 00H, '-', 00H, 'A', 00H, 'Z', 00H, '-', 00H
	DB	'C', 00H, 'y', 00H, 'r', 00H, 'l', 00H, 00H, 00H
	ORG $+2
$SG61480 DB	's', 00H, 'e', 00H, '-', 00H, 'S', 00H, 'E', 00H, 00H, 00H
$SG61481 DB	'm', 00H, 's', 00H, '-', 00H, 'B', 00H, 'N', 00H, 00H, 00H
$SG61482 DB	'u', 00H, 'z', 00H, '-', 00H, 'U', 00H, 'Z', 00H, '-', 00H
	DB	'C', 00H, 'y', 00H, 'r', 00H, 'l', 00H, 00H, 00H
	ORG $+2
$SG61483 DB	'q', 00H, 'u', 00H, 'z', 00H, '-', 00H, 'E', 00H, 'C', 00H
	DB	00H, 00H
	ORG $+2
$SG60459 DB	'a', 00H, 't', 00H, 'l', 00H, 'T', 00H, 'r', 00H, 'a', 00H
	DB	'c', 00H, 'e', 00H, 'A', 00H, 'l', 00H, 'l', 00H, 'o', 00H, 'c'
	DB	00H, 'a', 00H, 't', 00H, 'i', 00H, 'o', 00H, 'n', 00H, 00H, 00H
	ORG $+2
$SG61484 DB	'a', 00H, 'r', 00H, '-', 00H, 'E', 00H, 'G', 00H, 00H, 00H
$SG61485 DB	'z', 00H, 'h', 00H, '-', 00H, 'H', 00H, 'K', 00H, 00H, 00H
$SG61486 DB	'd', 00H, 'e', 00H, '-', 00H, 'A', 00H, 'T', 00H, 00H, 00H
$SG61487 DB	'e', 00H, 'n', 00H, '-', 00H, 'A', 00H, 'U', 00H, 00H, 00H
$SG61488 DB	'e', 00H, 's', 00H, '-', 00H, 'E', 00H, 'S', 00H, 00H, 00H
$SG61489 DB	'f', 00H, 'r', 00H, '-', 00H, 'C', 00H, 'A', 00H, 00H, 00H
$SG61490 DB	's', 00H, 'r', 00H, '-', 00H, 'S', 00H, 'P', 00H, '-', 00H
	DB	'C', 00H, 'y', 00H, 'r', 00H, 'l', 00H, 00H, 00H
	ORG $+2
?IID_IPlatformResource@@3U_GUID@@B DD 0bcd7ff05H	; IID_IPlatformResource
	DW	0a79H
	DW	04482H
	DB	09bH
	DB	0a6H
	DB	079H
	DB	0dfH
	DB	04bH
	DB	0d9H
	DB	080H
	DB	016H
$SG61491 DB	's', 00H, 'e', 00H, '-', 00H, 'F', 00H, 'I', 00H, 00H, 00H
$SG61492 DB	'q', 00H, 'u', 00H, 'z', 00H, '-', 00H, 'P', 00H, 'E', 00H
	DB	00H, 00H
	ORG $+2
$SG61493 DB	'a', 00H, 'r', 00H, '-', 00H, 'L', 00H, 'Y', 00H, 00H, 00H
$SG61494 DB	'z', 00H, 'h', 00H, '-', 00H, 'S', 00H, 'G', 00H, 00H, 00H
$SG61495 DB	'd', 00H, 'e', 00H, '-', 00H, 'L', 00H, 'U', 00H, 00H, 00H
$SG61496 DB	'e', 00H, 'n', 00H, '-', 00H, 'C', 00H, 'A', 00H, 00H, 00H
$SG61497 DB	'e', 00H, 's', 00H, '-', 00H, 'G', 00H, 'T', 00H, 00H, 00H
$SG61498 DB	'f', 00H, 'r', 00H, '-', 00H, 'C', 00H, 'H', 00H, 00H, 00H
$SG61499 DB	'h', 00H, 'r', 00H, '-', 00H, 'B', 00H, 'A', 00H, 00H, 00H
$SG61500 DB	's', 00H, 'm', 00H, 'j', 00H, '-', 00H, 'N', 00H, 'O', 00H
	DB	00H, 00H
	ORG $+2
$SG61501 DB	'a', 00H, 'r', 00H, '-', 00H, 'D', 00H, 'Z', 00H, 00H, 00H
$SG61502 DB	'z', 00H, 'h', 00H, '-', 00H, 'M', 00H, 'O', 00H, 00H, 00H
$SG61503 DB	'd', 00H, 'e', 00H, '-', 00H, 'L', 00H, 'I', 00H, 00H, 00H
$SG61504 DB	'e', 00H, 'n', 00H, '-', 00H, 'N', 00H, 'Z', 00H, 00H, 00H
$SG61505 DB	'e', 00H, 's', 00H, '-', 00H, 'C', 00H, 'R', 00H, 00H, 00H
$SG61506 DB	'f', 00H, 'r', 00H, '-', 00H, 'L', 00H, 'U', 00H, 00H, 00H
$SG61507 DB	'b', 00H, 's', 00H, '-', 00H, 'B', 00H, 'A', 00H, '-', 00H
	DB	'L', 00H, 'a', 00H, 't', 00H, 'n', 00H, 00H, 00H
	ORG $+2
$SG61508 DB	's', 00H, 'm', 00H, 'j', 00H, '-', 00H, 'S', 00H, 'E', 00H
	DB	00H, 00H
	ORG $+2
$SG61509 DB	'a', 00H, 'r', 00H, '-', 00H, 'M', 00H, 'A', 00H, 00H, 00H
$SG61510 DB	'e', 00H, 'n', 00H, '-', 00H, 'I', 00H, 'E', 00H, 00H, 00H
$SG61511 DB	'e', 00H, 's', 00H, '-', 00H, 'P', 00H, 'A', 00H, 00H, 00H
?IID_IDataBaseEngine@@3U_GUID@@B DD 03c56956dH		; IID_IDataBaseEngine
	DW	01690H
	DW	04c22H
	DB	088H
	DB	034H
	DB	09eH
	DB	0b9H
	DB	0d0H
	DB	093H
	DB	066H
	DB	04cH
$SG61512 DB	'f', 00H, 'r', 00H, '-', 00H, 'M', 00H, 'C', 00H, 00H, 00H
$SG61513 DB	's', 00H, 'r', 00H, '-', 00H, 'B', 00H, 'A', 00H, '-', 00H
	DB	'L', 00H, 'a', 00H, 't', 00H, 'n', 00H, 00H, 00H
	ORG $+2
$SG61514 DB	's', 00H, 'm', 00H, 'a', 00H, '-', 00H, 'N', 00H, 'O', 00H
	DB	00H, 00H
	ORG $+2
$SG61515 DB	'a', 00H, 'r', 00H, '-', 00H, 'T', 00H, 'N', 00H, 00H, 00H
$SG61516 DB	'e', 00H, 'n', 00H, '-', 00H, 'Z', 00H, 'A', 00H, 00H, 00H
$SG61517 DB	'e', 00H, 's', 00H, '-', 00H, 'D', 00H, 'O', 00H, 00H, 00H
$SG61518 DB	's', 00H, 'r', 00H, '-', 00H, 'B', 00H, 'A', 00H, '-', 00H
	DB	'C', 00H, 'y', 00H, 'r', 00H, 'l', 00H, 00H, 00H
	ORG $+2
$SG61519 DB	's', 00H, 'm', 00H, 'a', 00H, '-', 00H, 'S', 00H, 'E', 00H
	DB	00H, 00H
	ORG $+2
$SG61520 DB	'a', 00H, 'r', 00H, '-', 00H, 'O', 00H, 'M', 00H, 00H, 00H
$SG61521 DB	'e', 00H, 'n', 00H, '-', 00H, 'J', 00H, 'M', 00H, 00H, 00H
$SG61522 DB	'e', 00H, 's', 00H, '-', 00H, 'V', 00H, 'E', 00H, 00H, 00H
$SG61523 DB	's', 00H, 'm', 00H, 's', 00H, '-', 00H, 'F', 00H, 'I', 00H
	DB	00H, 00H
	ORG $+2
$SG61524 DB	'a', 00H, 'r', 00H, '-', 00H, 'Y', 00H, 'E', 00H, 00H, 00H
$SG61525 DB	'e', 00H, 'n', 00H, '-', 00H, 'C', 00H, 'B', 00H, 00H, 00H
$SG61526 DB	'e', 00H, 's', 00H, '-', 00H, 'C', 00H, 'O', 00H, 00H, 00H
$SG61527 DB	's', 00H, 'm', 00H, 'n', 00H, '-', 00H, 'F', 00H, 'I', 00H
	DB	00H, 00H
	ORG $+2
$SG61528 DB	'a', 00H, 'r', 00H, '-', 00H, 'S', 00H, 'Y', 00H, 00H, 00H
$SG61529 DB	'e', 00H, 'n', 00H, '-', 00H, 'B', 00H, 'Z', 00H, 00H, 00H
$SG61530 DB	'e', 00H, 's', 00H, '-', 00H, 'P', 00H, 'E', 00H, 00H, 00H
$SG60506 DB	'a', 00H, 't', 00H, 'l', 00H, 'T', 00H, 'r', 00H, 'a', 00H
	DB	'c', 00H, 'e', 00H, 'E', 00H, 'x', 00H, 'c', 00H, 'e', 00H, 'p'
	DB	00H, 't', 00H, 'i', 00H, 'o', 00H, 'n', 00H, 00H, 00H
$SG61531 DB	'a', 00H, 'r', 00H, '-', 00H, 'J', 00H, 'O', 00H, 00H, 00H
$SG61532 DB	'e', 00H, 'n', 00H, '-', 00H, 'T', 00H, 'T', 00H, 00H, 00H
$SG61533 DB	'e', 00H, 's', 00H, '-', 00H, 'A', 00H, 'R', 00H, 00H, 00H
$SG61534 DB	'a', 00H, 'r', 00H, '-', 00H, 'L', 00H, 'B', 00H, 00H, 00H
$SG61535 DB	'e', 00H, 'n', 00H, '-', 00H, 'Z', 00H, 'W', 00H, 00H, 00H
$SG61536 DB	'e', 00H, 's', 00H, '-', 00H, 'E', 00H, 'C', 00H, 00H, 00H
$SG61537 DB	'a', 00H, 'r', 00H, '-', 00H, 'K', 00H, 'W', 00H, 00H, 00H
$SG61538 DB	'e', 00H, 'n', 00H, '-', 00H, 'P', 00H, 'H', 00H, 00H, 00H
$SG61539 DB	'e', 00H, 's', 00H, '-', 00H, 'C', 00H, 'L', 00H, 00H, 00H
$SG109668 DB	'S', 00H, 00H, 00H
$SG61540 DB	'a', 00H, 'r', 00H, '-', 00H, 'A', 00H, 'E', 00H, 00H, 00H
$SG61541 DB	'e', 00H, 's', 00H, '-', 00H, 'U', 00H, 'Y', 00H, 00H, 00H
$SG109670 DB	'M', 00H, 00H, 00H
$SG61542 DB	'a', 00H, 'r', 00H, '-', 00H, 'B', 00H, 'H', 00H, 00H, 00H
$SG61543 DB	'e', 00H, 's', 00H, '-', 00H, 'P', 00H, 'Y', 00H, 00H, 00H
$SG109672 DB	'D', 00H, 00H, 00H
$SG61544 DB	'a', 00H, 'r', 00H, '-', 00H, 'Q', 00H, 'A', 00H, 00H, 00H
$SG61545 DB	'e', 00H, 's', 00H, '-', 00H, 'B', 00H, 'O', 00H, 00H, 00H
$SG109674 DB	'B', 00H, 00H, 00H
$SG61546 DB	'e', 00H, 's', 00H, '-', 00H, 'S', 00H, 'V', 00H, 00H, 00H
$SG61547 DB	'e', 00H, 's', 00H, '-', 00H, 'H', 00H, 'N', 00H, 00H, 00H
$SG109676 DB	'V', 00H, 'a', 00H, 'l', 00H, 00H, 00H
$SG61548 DB	'e', 00H, 's', 00H, '-', 00H, 'N', 00H, 'I', 00H, 00H, 00H
$SG61549 DB	'e', 00H, 's', 00H, '-', 00H, 'P', 00H, 'R', 00H, 00H, 00H
$SG109678 DB	'F', 00H, 'o', 00H, 'r', 00H, 'c', 00H, 'e', 00H, 'R', 00H
	DB	'e', 00H, 'm', 00H, 'o', 00H, 'v', 00H, 'e', 00H, 00H, 00H
$SG61550 DB	'z', 00H, 'h', 00H, '-', 00H, 'C', 00H, 'H', 00H, 'T', 00H
	DB	00H, 00H
	ORG $+2
$SG61551 DB	's', 00H, 'r', 00H, 00H, 00H
	ORG $+2
$SG109680 DB	'N', 00H, 'o', 00H, 'R', 00H, 'e', 00H, 'm', 00H, 'o', 00H
	DB	'v', 00H, 'e', 00H, 00H, 00H
	ORG $+2
$SG61553 DB	00H, 00H
	ORG $+2
$SG109682 DB	'D', 00H, 'e', 00H, 'l', 00H, 'e', 00H, 't', 00H, 'e', 00H
	DB	00H, 00H
	ORG $+2
$SG61554 DB	'a', 00H, 'f', 00H, 00H, 00H
	ORG $+2
$SG61555 DB	'a', 00H, 'f', 00H, '-', 00H, 'z', 00H, 'a', 00H, 00H, 00H
$SG61556 DB	'a', 00H, 'r', 00H, 00H, 00H
	ORG $+2
$SG61557 DB	'a', 00H, 'r', 00H, '-', 00H, 'a', 00H, 'e', 00H, 00H, 00H
$SG61558 DB	'a', 00H, 'r', 00H, '-', 00H, 'b', 00H, 'h', 00H, 00H, 00H
$SG61559 DB	'a', 00H, 'r', 00H, '-', 00H, 'd', 00H, 'z', 00H, 00H, 00H
$SG61560 DB	'a', 00H, 'r', 00H, '-', 00H, 'e', 00H, 'g', 00H, 00H, 00H
$SG61561 DB	'a', 00H, 'r', 00H, '-', 00H, 'i', 00H, 'q', 00H, 00H, 00H
$SG61562 DB	'a', 00H, 'r', 00H, '-', 00H, 'j', 00H, 'o', 00H, 00H, 00H
$SG61563 DB	'a', 00H, 'r', 00H, '-', 00H, 'k', 00H, 'w', 00H, 00H, 00H
$SG61564 DB	'a', 00H, 'r', 00H, '-', 00H, 'l', 00H, 'b', 00H, 00H, 00H
$SG61565 DB	'a', 00H, 'r', 00H, '-', 00H, 'l', 00H, 'y', 00H, 00H, 00H
$SG61566 DB	'a', 00H, 'r', 00H, '-', 00H, 'm', 00H, 'a', 00H, 00H, 00H
$SG61567 DB	'a', 00H, 'r', 00H, '-', 00H, 'o', 00H, 'm', 00H, 00H, 00H
$SG61568 DB	'a', 00H, 'r', 00H, '-', 00H, 'q', 00H, 'a', 00H, 00H, 00H
$SG61569 DB	'a', 00H, 'r', 00H, '-', 00H, 's', 00H, 'a', 00H, 00H, 00H
$SG61570 DB	'a', 00H, 'r', 00H, '-', 00H, 's', 00H, 'y', 00H, 00H, 00H
$SG61571 DB	'a', 00H, 'r', 00H, '-', 00H, 't', 00H, 'n', 00H, 00H, 00H
$SG61572 DB	'a', 00H, 'r', 00H, '-', 00H, 'y', 00H, 'e', 00H, 00H, 00H
$SG61573 DB	'a', 00H, 'z', 00H, 00H, 00H
	ORG $+2
$SG61574 DB	'a', 00H, 'z', 00H, '-', 00H, 'a', 00H, 'z', 00H, '-', 00H
	DB	'c', 00H, 'y', 00H, 'r', 00H, 'l', 00H, 00H, 00H
	ORG $+2
$SG61575 DB	'a', 00H, 'z', 00H, '-', 00H, 'a', 00H, 'z', 00H, '-', 00H
	DB	'l', 00H, 'a', 00H, 't', 00H, 'n', 00H, 00H, 00H
	ORG $+2
$SG61576 DB	'b', 00H, 'e', 00H, 00H, 00H
	ORG $+2
?IID_IUDPNetworkEngine@@3U_GUID@@B DD 0bbbd895aH	; IID_IUDPNetworkEngine
	DW	0a97H
	DW	04faeH
	DB	08eH
	DB	038H
	DB	010H
	DB	076H
	DB	0a7H
	DB	0c7H
	DB	04dH
	DB	07fH
$SG61577 DB	'b', 00H, 'e', 00H, '-', 00H, 'b', 00H, 'y', 00H, 00H, 00H
$SG60553 DB	'a', 00H, 't', 00H, 'l', 00H, 'T', 00H, 'r', 00H, 'a', 00H
	DB	'c', 00H, 'e', 00H, 'T', 00H, 'i', 00H, 'm', 00H, 'e', 00H, 00H
	DB	00H
	ORG $+2
$SG61578 DB	'b', 00H, 'g', 00H, 00H, 00H
	ORG $+2
$SG61579 DB	'b', 00H, 'g', 00H, '-', 00H, 'b', 00H, 'g', 00H, 00H, 00H
$SG61580 DB	'b', 00H, 'n', 00H, '-', 00H, 'i', 00H, 'n', 00H, 00H, 00H
$SG61581 DB	'b', 00H, 's', 00H, '-', 00H, 'b', 00H, 'a', 00H, '-', 00H
	DB	'l', 00H, 'a', 00H, 't', 00H, 'n', 00H, 00H, 00H
	ORG $+2
$SG61582 DB	'c', 00H, 'a', 00H, 00H, 00H
	ORG $+2
$SG61583 DB	'c', 00H, 'a', 00H, '-', 00H, 'e', 00H, 's', 00H, 00H, 00H
$SG61584 DB	'c', 00H, 's', 00H, 00H, 00H
	ORG $+2
$SG61585 DB	'c', 00H, 's', 00H, '-', 00H, 'c', 00H, 'z', 00H, 00H, 00H
$SG61586 DB	'c', 00H, 'y', 00H, '-', 00H, 'g', 00H, 'b', 00H, 00H, 00H
$SG61587 DB	'd', 00H, 'a', 00H, 00H, 00H
	ORG $+2
$SG61588 DB	'd', 00H, 'a', 00H, '-', 00H, 'd', 00H, 'k', 00H, 00H, 00H
$SG61589 DB	'd', 00H, 'e', 00H, 00H, 00H
	ORG $+2
$SG61590 DB	'd', 00H, 'e', 00H, '-', 00H, 'a', 00H, 't', 00H, 00H, 00H
$SG61591 DB	'd', 00H, 'e', 00H, '-', 00H, 'c', 00H, 'h', 00H, 00H, 00H
$SG61592 DB	'd', 00H, 'e', 00H, '-', 00H, 'd', 00H, 'e', 00H, 00H, 00H
$SG61593 DB	'd', 00H, 'e', 00H, '-', 00H, 'l', 00H, 'i', 00H, 00H, 00H
$SG61594 DB	'd', 00H, 'e', 00H, '-', 00H, 'l', 00H, 'u', 00H, 00H, 00H
$SG61595 DB	'd', 00H, 'i', 00H, 'v', 00H, 00H, 00H
$SG61596 DB	'd', 00H, 'i', 00H, 'v', 00H, '-', 00H, 'm', 00H, 'v', 00H
	DB	00H, 00H
	ORG $+2
$SG61597 DB	'e', 00H, 'l', 00H, 00H, 00H
	ORG $+2
$SG61598 DB	'e', 00H, 'l', 00H, '-', 00H, 'g', 00H, 'r', 00H, 00H, 00H
$SG61599 DB	'e', 00H, 'n', 00H, 00H, 00H
	ORG $+2
$SG61600 DB	'e', 00H, 'n', 00H, '-', 00H, 'a', 00H, 'u', 00H, 00H, 00H
$SG61601 DB	'e', 00H, 'n', 00H, '-', 00H, 'b', 00H, 'z', 00H, 00H, 00H
$SG61602 DB	'e', 00H, 'n', 00H, '-', 00H, 'c', 00H, 'a', 00H, 00H, 00H
$SG61603 DB	'e', 00H, 'n', 00H, '-', 00H, 'c', 00H, 'b', 00H, 00H, 00H
$SG61604 DB	'e', 00H, 'n', 00H, '-', 00H, 'g', 00H, 'b', 00H, 00H, 00H
$SG61605 DB	'e', 00H, 'n', 00H, '-', 00H, 'i', 00H, 'e', 00H, 00H, 00H
$SG61606 DB	'e', 00H, 'n', 00H, '-', 00H, 'j', 00H, 'm', 00H, 00H, 00H
$SG61607 DB	'e', 00H, 'n', 00H, '-', 00H, 'n', 00H, 'z', 00H, 00H, 00H
$SG61608 DB	'e', 00H, 'n', 00H, '-', 00H, 'p', 00H, 'h', 00H, 00H, 00H
$SG61609 DB	'e', 00H, 'n', 00H, '-', 00H, 't', 00H, 't', 00H, 00H, 00H
$SG61610 DB	'e', 00H, 'n', 00H, '-', 00H, 'u', 00H, 's', 00H, 00H, 00H
$SG61611 DB	'e', 00H, 'n', 00H, '-', 00H, 'z', 00H, 'a', 00H, 00H, 00H
?IID_ITCPNetworkEngine@@3U_GUID@@B DD 09aa6931fH	; IID_ITCPNetworkEngine
	DW	0417fH
	DW	043a7H
	DB	086H
	DB	0abH
	DB	056H
	DB	010H
	DB	0e4H
	DB	034H
	DB	01cH
	DB	017H
$SG61612 DB	'e', 00H, 'n', 00H, '-', 00H, 'z', 00H, 'w', 00H, 00H, 00H
$SG61613 DB	'e', 00H, 's', 00H, 00H, 00H
	ORG $+2
$SG61614 DB	'e', 00H, 's', 00H, '-', 00H, 'a', 00H, 'r', 00H, 00H, 00H
$SG61615 DB	'e', 00H, 's', 00H, '-', 00H, 'b', 00H, 'o', 00H, 00H, 00H
$SG61616 DB	'e', 00H, 's', 00H, '-', 00H, 'c', 00H, 'l', 00H, 00H, 00H
$SG61617 DB	'e', 00H, 's', 00H, '-', 00H, 'c', 00H, 'o', 00H, 00H, 00H
$SG61618 DB	'e', 00H, 's', 00H, '-', 00H, 'c', 00H, 'r', 00H, 00H, 00H
$SG61619 DB	'e', 00H, 's', 00H, '-', 00H, 'd', 00H, 'o', 00H, 00H, 00H
$SG61620 DB	'e', 00H, 's', 00H, '-', 00H, 'e', 00H, 'c', 00H, 00H, 00H
$SG61621 DB	'e', 00H, 's', 00H, '-', 00H, 'e', 00H, 's', 00H, 00H, 00H
$SG61622 DB	'e', 00H, 's', 00H, '-', 00H, 'g', 00H, 't', 00H, 00H, 00H
$SG61623 DB	'e', 00H, 's', 00H, '-', 00H, 'h', 00H, 'n', 00H, 00H, 00H
$SG61624 DB	'e', 00H, 's', 00H, '-', 00H, 'm', 00H, 'x', 00H, 00H, 00H
$SG60600 DB	'a', 00H, 't', 00H, 'l', 00H, 'T', 00H, 'r', 00H, 'a', 00H
	DB	'c', 00H, 'e', 00H, 'C', 00H, 'a', 00H, 'c', 00H, 'h', 00H, 'e'
	DB	00H, 00H, 00H
$SG61625 DB	'e', 00H, 's', 00H, '-', 00H, 'n', 00H, 'i', 00H, 00H, 00H
$SG61626 DB	'e', 00H, 's', 00H, '-', 00H, 'p', 00H, 'a', 00H, 00H, 00H
$SG61627 DB	'e', 00H, 's', 00H, '-', 00H, 'p', 00H, 'e', 00H, 00H, 00H
$SG61628 DB	'e', 00H, 's', 00H, '-', 00H, 'p', 00H, 'r', 00H, 00H, 00H
$SG61629 DB	'e', 00H, 's', 00H, '-', 00H, 'p', 00H, 'y', 00H, 00H, 00H
$SG61630 DB	'e', 00H, 's', 00H, '-', 00H, 's', 00H, 'v', 00H, 00H, 00H
$SG61631 DB	'e', 00H, 's', 00H, '-', 00H, 'u', 00H, 'y', 00H, 00H, 00H
$SG61632 DB	'e', 00H, 's', 00H, '-', 00H, 'v', 00H, 'e', 00H, 00H, 00H
$SG61633 DB	'e', 00H, 't', 00H, 00H, 00H
	ORG $+2
$SG61634 DB	'e', 00H, 't', 00H, '-', 00H, 'e', 00H, 'e', 00H, 00H, 00H
$SG61635 DB	'e', 00H, 'u', 00H, 00H, 00H
	ORG $+2
$SG61636 DB	'e', 00H, 'u', 00H, '-', 00H, 'e', 00H, 's', 00H, 00H, 00H
$SG61637 DB	'f', 00H, 'a', 00H, 00H, 00H
	ORG $+2
$SG61638 DB	'f', 00H, 'a', 00H, '-', 00H, 'i', 00H, 'r', 00H, 00H, 00H
$SG61639 DB	'f', 00H, 'i', 00H, 00H, 00H
	ORG $+2
$SG61640 DB	'f', 00H, 'i', 00H, '-', 00H, 'f', 00H, 'i', 00H, 00H, 00H
$SG61641 DB	'f', 00H, 'o', 00H, 00H, 00H
	ORG $+2
$SG61642 DB	'f', 00H, 'o', 00H, '-', 00H, 'f', 00H, 'o', 00H, 00H, 00H
$SG61643 DB	'f', 00H, 'r', 00H, 00H, 00H
	ORG $+2
$SG61644 DB	'f', 00H, 'r', 00H, '-', 00H, 'b', 00H, 'e', 00H, 00H, 00H
$SG61645 DB	'f', 00H, 'r', 00H, '-', 00H, 'c', 00H, 'a', 00H, 00H, 00H
$SG61646 DB	'f', 00H, 'r', 00H, '-', 00H, 'c', 00H, 'h', 00H, 00H, 00H
$SG61647 DB	'f', 00H, 'r', 00H, '-', 00H, 'f', 00H, 'r', 00H, 00H, 00H
$SG61648 DB	'f', 00H, 'r', 00H, '-', 00H, 'l', 00H, 'u', 00H, 00H, 00H
$SG61649 DB	'f', 00H, 'r', 00H, '-', 00H, 'm', 00H, 'c', 00H, 00H, 00H
$SG61650 DB	'g', 00H, 'l', 00H, 00H, 00H
	ORG $+2
$SG61651 DB	'g', 00H, 'l', 00H, '-', 00H, 'e', 00H, 's', 00H, 00H, 00H
$SG61652 DB	'g', 00H, 'u', 00H, 00H, 00H
	ORG $+2
$SG61653 DB	'g', 00H, 'u', 00H, '-', 00H, 'i', 00H, 'n', 00H, 00H, 00H
$SG61654 DB	'h', 00H, 'e', 00H, 00H, 00H
	ORG $+2
$SG61655 DB	'h', 00H, 'e', 00H, '-', 00H, 'i', 00H, 'l', 00H, 00H, 00H
$SG61656 DB	'h', 00H, 'i', 00H, 00H, 00H
	ORG $+2
$SG61657 DB	'h', 00H, 'i', 00H, '-', 00H, 'i', 00H, 'n', 00H, 00H, 00H
?IID_ITCPSocketService@@3U_GUID@@B DD 0f8a5c14H		; IID_ITCPSocketService
	DW	0ab92H
	DW	0467cH
	DB	0b6H
	DB	07bH
	DB	06dH
	DB	08aH
	DB	0cfH
	DB	064H
	DB	052H
	DB	0d7H
$SG61658 DB	'h', 00H, 'r', 00H, 00H, 00H
	ORG $+2
$SG61659 DB	'h', 00H, 'r', 00H, '-', 00H, 'b', 00H, 'a', 00H, 00H, 00H
$SG61660 DB	'h', 00H, 'r', 00H, '-', 00H, 'h', 00H, 'r', 00H, 00H, 00H
$SG61661 DB	'h', 00H, 'u', 00H, 00H, 00H
	ORG $+2
$SG61662 DB	'h', 00H, 'u', 00H, '-', 00H, 'h', 00H, 'u', 00H, 00H, 00H
$SG61663 DB	'h', 00H, 'y', 00H, 00H, 00H
	ORG $+2
$SG61664 DB	'h', 00H, 'y', 00H, '-', 00H, 'a', 00H, 'm', 00H, 00H, 00H
$SG61665 DB	'i', 00H, 'd', 00H, 00H, 00H
	ORG $+2
$SG61666 DB	'i', 00H, 'd', 00H, '-', 00H, 'i', 00H, 'd', 00H, 00H, 00H
$SG61667 DB	'i', 00H, 's', 00H, 00H, 00H
	ORG $+2
$SG61668 DB	'i', 00H, 's', 00H, '-', 00H, 'i', 00H, 's', 00H, 00H, 00H
$SG61669 DB	'i', 00H, 't', 00H, 00H, 00H
	ORG $+2
$SG61670 DB	'i', 00H, 't', 00H, '-', 00H, 'c', 00H, 'h', 00H, 00H, 00H
$SG61671 DB	'i', 00H, 't', 00H, '-', 00H, 'i', 00H, 't', 00H, 00H, 00H
$SG60647 DB	'a', 00H, 't', 00H, 'l', 00H, 'T', 00H, 'r', 00H, 'a', 00H
	DB	'c', 00H, 'e', 00H, 'S', 00H, 't', 00H, 'e', 00H, 'n', 00H, 'c'
	DB	00H, 'i', 00H, 'l', 00H, 00H, 00H
$SG61672 DB	'j', 00H, 'a', 00H, 00H, 00H
	ORG $+2
$SG61673 DB	'j', 00H, 'a', 00H, '-', 00H, 'j', 00H, 'p', 00H, 00H, 00H
$SG61674 DB	'k', 00H, 'a', 00H, 00H, 00H
	ORG $+2
$SG61675 DB	'k', 00H, 'a', 00H, '-', 00H, 'g', 00H, 'e', 00H, 00H, 00H
$SG61676 DB	'k', 00H, 'k', 00H, 00H, 00H
	ORG $+2
$SG61677 DB	'k', 00H, 'k', 00H, '-', 00H, 'k', 00H, 'z', 00H, 00H, 00H
$SG61678 DB	'k', 00H, 'n', 00H, 00H, 00H
	ORG $+2
$SG61679 DB	'k', 00H, 'n', 00H, '-', 00H, 'i', 00H, 'n', 00H, 00H, 00H
$SG61680 DB	'k', 00H, 'o', 00H, 00H, 00H
	ORG $+2
$SG61681 DB	'k', 00H, 'o', 00H, 'k', 00H, 00H, 00H
$SG61682 DB	'k', 00H, 'o', 00H, 'k', 00H, '-', 00H, 'i', 00H, 'n', 00H
	DB	00H, 00H
	ORG $+2
$SG61683 DB	'k', 00H, 'o', 00H, '-', 00H, 'k', 00H, 'r', 00H, 00H, 00H
$SG61684 DB	'k', 00H, 'y', 00H, 00H, 00H
	ORG $+2
$SG61685 DB	'k', 00H, 'y', 00H, '-', 00H, 'k', 00H, 'g', 00H, 00H, 00H
$SG61686 DB	'l', 00H, 't', 00H, 00H, 00H
	ORG $+2
$SG61687 DB	'l', 00H, 't', 00H, '-', 00H, 'l', 00H, 't', 00H, 00H, 00H
$SG61688 DB	'l', 00H, 'v', 00H, 00H, 00H
	ORG $+2
$SG61689 DB	'l', 00H, 'v', 00H, '-', 00H, 'l', 00H, 'v', 00H, 00H, 00H
$SG61690 DB	'm', 00H, 'i', 00H, '-', 00H, 'n', 00H, 'z', 00H, 00H, 00H
?IID_IWEBSocketService@@3U_GUID@@B DD 05502d590H	; IID_IWEBSocketService
	DW	0c446H
	DW	0440dH
	DB	0a1H
	DB	095H
	DB	03eH
	DB	0daH
	DB	011H
	DB	0f8H
	DB	0dH
	DB	064H
$SG61691 DB	'm', 00H, 'k', 00H, 00H, 00H
	ORG $+2
$SG61692 DB	'm', 00H, 'k', 00H, '-', 00H, 'm', 00H, 'k', 00H, 00H, 00H
$SG61693 DB	'm', 00H, 'l', 00H, '-', 00H, 'i', 00H, 'n', 00H, 00H, 00H
$SG61694 DB	'm', 00H, 'n', 00H, 00H, 00H
	ORG $+2
$SG61695 DB	'm', 00H, 'n', 00H, '-', 00H, 'm', 00H, 'n', 00H, 00H, 00H
$SG61696 DB	'm', 00H, 'r', 00H, 00H, 00H
	ORG $+2
$SG61697 DB	'm', 00H, 'r', 00H, '-', 00H, 'i', 00H, 'n', 00H, 00H, 00H
$SG61698 DB	'm', 00H, 's', 00H, 00H, 00H
	ORG $+2
$SG61699 DB	'm', 00H, 's', 00H, '-', 00H, 'b', 00H, 'n', 00H, 00H, 00H
$SG61700 DB	'm', 00H, 's', 00H, '-', 00H, 'm', 00H, 'y', 00H, 00H, 00H
$SG61701 DB	'm', 00H, 't', 00H, '-', 00H, 'm', 00H, 't', 00H, 00H, 00H
$SG61702 DB	'n', 00H, 'b', 00H, '-', 00H, 'n', 00H, 'o', 00H, 00H, 00H
$SG61703 DB	'n', 00H, 'l', 00H, 00H, 00H
	ORG $+2
$SG61704 DB	'n', 00H, 'l', 00H, '-', 00H, 'b', 00H, 'e', 00H, 00H, 00H
$SG61705 DB	'n', 00H, 'l', 00H, '-', 00H, 'n', 00H, 'l', 00H, 00H, 00H
$SG61706 DB	'n', 00H, 'n', 00H, '-', 00H, 'n', 00H, 'o', 00H, 00H, 00H
$SG61707 DB	'n', 00H, 'o', 00H, 00H, 00H
	ORG $+2
$SG61708 DB	'n', 00H, 's', 00H, '-', 00H, 'z', 00H, 'a', 00H, 00H, 00H
$SG61709 DB	'p', 00H, 'a', 00H, 00H, 00H
	ORG $+2
$SG61710 DB	'p', 00H, 'a', 00H, '-', 00H, 'i', 00H, 'n', 00H, 00H, 00H
$SG61711 DB	'p', 00H, 'l', 00H, 00H, 00H
	ORG $+2
$SG61712 DB	'p', 00H, 'l', 00H, '-', 00H, 'p', 00H, 'l', 00H, 00H, 00H
$SG61713 DB	'p', 00H, 't', 00H, 00H, 00H
	ORG $+2
$SG61714 DB	'p', 00H, 't', 00H, '-', 00H, 'b', 00H, 'r', 00H, 00H, 00H
$SG61715 DB	'p', 00H, 't', 00H, '-', 00H, 'p', 00H, 't', 00H, 00H, 00H
$SG61716 DB	'q', 00H, 'u', 00H, 'z', 00H, '-', 00H, 'b', 00H, 'o', 00H
	DB	00H, 00H
	ORG $+2
?IID_ITimerEngine@@3U_GUID@@B DD 0c90cfc81H		; IID_ITimerEngine
	DW	0ee01H
	DW	04654H
	DB	08cH
	DB	09aH
	DB	058H
	DB	0a9H
	DB	04bH
	DB	078H
	DB	076H
	DB	0b6H
$SG61717 DB	'q', 00H, 'u', 00H, 'z', 00H, '-', 00H, 'e', 00H, 'c', 00H
	DB	00H, 00H
	ORG $+2
$SG61718 DB	'q', 00H, 'u', 00H, 'z', 00H, '-', 00H, 'p', 00H, 'e', 00H
	DB	00H, 00H
	ORG $+2
$SG60694 DB	'a', 00H, 't', 00H, 'l', 00H, 'T', 00H, 'r', 00H, 'a', 00H
	DB	'c', 00H, 'e', 00H, 'S', 00H, 't', 00H, 'r', 00H, 'i', 00H, 'n'
	DB	00H, 'g', 00H, 00H, 00H
	ORG $+2
$SG61719 DB	'r', 00H, 'o', 00H, 00H, 00H
	ORG $+2
$SG61720 DB	'r', 00H, 'o', 00H, '-', 00H, 'r', 00H, 'o', 00H, 00H, 00H
$SG61721 DB	'r', 00H, 'u', 00H, 00H, 00H
	ORG $+2
$SG61722 DB	'r', 00H, 'u', 00H, '-', 00H, 'r', 00H, 'u', 00H, 00H, 00H
$SG61723 DB	's', 00H, 'a', 00H, 00H, 00H
	ORG $+2
$SG61724 DB	's', 00H, 'a', 00H, '-', 00H, 'i', 00H, 'n', 00H, 00H, 00H
$SG61725 DB	's', 00H, 'e', 00H, '-', 00H, 'f', 00H, 'i', 00H, 00H, 00H
$SG61726 DB	's', 00H, 'e', 00H, '-', 00H, 'n', 00H, 'o', 00H, 00H, 00H
$SG61727 DB	's', 00H, 'e', 00H, '-', 00H, 's', 00H, 'e', 00H, 00H, 00H
$SG61728 DB	's', 00H, 'k', 00H, 00H, 00H
	ORG $+2
$SG61729 DB	's', 00H, 'k', 00H, '-', 00H, 's', 00H, 'k', 00H, 00H, 00H
$SG61730 DB	's', 00H, 'l', 00H, 00H, 00H
	ORG $+2
$SG61731 DB	's', 00H, 'l', 00H, '-', 00H, 's', 00H, 'i', 00H, 00H, 00H
$SG61732 DB	's', 00H, 'm', 00H, 'a', 00H, '-', 00H, 'n', 00H, 'o', 00H
	DB	00H, 00H
	ORG $+2
$SG61733 DB	's', 00H, 'm', 00H, 'a', 00H, '-', 00H, 's', 00H, 'e', 00H
	DB	00H, 00H
	ORG $+2
$SG61734 DB	's', 00H, 'm', 00H, 'j', 00H, '-', 00H, 'n', 00H, 'o', 00H
	DB	00H, 00H
	ORG $+2
$SG61735 DB	's', 00H, 'm', 00H, 'j', 00H, '-', 00H, 's', 00H, 'e', 00H
	DB	00H, 00H
	ORG $+2
$SG61736 DB	's', 00H, 'm', 00H, 'n', 00H, '-', 00H, 'f', 00H, 'i', 00H
	DB	00H, 00H
	ORG $+2
$SG61737 DB	's', 00H, 'm', 00H, 's', 00H, '-', 00H, 'f', 00H, 'i', 00H
	DB	00H, 00H
	ORG $+2
$SG61738 DB	's', 00H, 'q', 00H, 00H, 00H
	ORG $+2
$SG61739 DB	's', 00H, 'q', 00H, '-', 00H, 'a', 00H, 'l', 00H, 00H, 00H
$SG61740 DB	's', 00H, 'r', 00H, 00H, 00H
	ORG $+2
$SG61741 DB	's', 00H, 'r', 00H, '-', 00H, 'b', 00H, 'a', 00H, '-', 00H
	DB	'c', 00H, 'y', 00H, 'r', 00H, 'l', 00H, 00H, 00H
	ORG $+2
$SG61742 DB	's', 00H, 'r', 00H, '-', 00H, 'b', 00H, 'a', 00H, '-', 00H
	DB	'l', 00H, 'a', 00H, 't', 00H, 'n', 00H, 00H, 00H
	ORG $+2
$SG61743 DB	's', 00H, 'r', 00H, '-', 00H, 's', 00H, 'p', 00H, '-', 00H
	DB	'c', 00H, 'y', 00H, 'r', 00H, 'l', 00H, 00H, 00H
	ORG $+2
$SG61744 DB	's', 00H, 'r', 00H, '-', 00H, 's', 00H, 'p', 00H, '-', 00H
	DB	'l', 00H, 'a', 00H, 't', 00H, 'n', 00H, 00H, 00H
	ORG $+2
$SG61745 DB	's', 00H, 'v', 00H, 00H, 00H
	ORG $+2
$SG61746 DB	's', 00H, 'v', 00H, '-', 00H, 'f', 00H, 'i', 00H, 00H, 00H
$SG61747 DB	's', 00H, 'v', 00H, '-', 00H, 's', 00H, 'e', 00H, 00H, 00H
$SG61748 DB	's', 00H, 'w', 00H, 00H, 00H
	ORG $+2
$SG61749 DB	's', 00H, 'w', 00H, '-', 00H, 'k', 00H, 'e', 00H, 00H, 00H
$SG61750 DB	's', 00H, 'y', 00H, 'r', 00H, 00H, 00H
$SG61751 DB	's', 00H, 'y', 00H, 'r', 00H, '-', 00H, 's', 00H, 'y', 00H
	DB	00H, 00H
	ORG $+2
$SG61752 DB	't', 00H, 'a', 00H, 00H, 00H
	ORG $+2
$SG61753 DB	't', 00H, 'a', 00H, '-', 00H, 'i', 00H, 'n', 00H, 00H, 00H
$SG61754 DB	't', 00H, 'e', 00H, 00H, 00H
	ORG $+2
$SG61755 DB	't', 00H, 'e', 00H, '-', 00H, 'i', 00H, 'n', 00H, 00H, 00H
$SG61756 DB	't', 00H, 'h', 00H, 00H, 00H
	ORG $+2
$SG61757 DB	't', 00H, 'h', 00H, '-', 00H, 't', 00H, 'h', 00H, 00H, 00H
$SG61758 DB	't', 00H, 'n', 00H, '-', 00H, 'z', 00H, 'a', 00H, 00H, 00H
$SG61759 DB	't', 00H, 'r', 00H, 00H, 00H
	ORG $+2
$SG61760 DB	't', 00H, 'r', 00H, '-', 00H, 't', 00H, 'r', 00H, 00H, 00H
$SG61761 DB	't', 00H, 't', 00H, 00H, 00H
	ORG $+2
$SG61762 DB	't', 00H, 't', 00H, '-', 00H, 'r', 00H, 'u', 00H, 00H, 00H
$SG61763 DB	'u', 00H, 'k', 00H, 00H, 00H
	ORG $+2
$SG61764 DB	'u', 00H, 'k', 00H, '-', 00H, 'u', 00H, 'a', 00H, 00H, 00H
$SG61765 DB	'u', 00H, 'r', 00H, 00H, 00H
	ORG $+2
$SG60741 DB	'a', 00H, 't', 00H, 'l', 00H, 'T', 00H, 'r', 00H, 'a', 00H
	DB	'c', 00H, 'e', 00H, 'M', 00H, 'a', 00H, 'p', 00H, 00H, 00H
$SG61766 DB	'u', 00H, 'r', 00H, '-', 00H, 'p', 00H, 'k', 00H, 00H, 00H
$SG61767 DB	'u', 00H, 'z', 00H, 00H, 00H
	ORG $+2
$SG61768 DB	'u', 00H, 'z', 00H, '-', 00H, 'u', 00H, 'z', 00H, '-', 00H
	DB	'c', 00H, 'y', 00H, 'r', 00H, 'l', 00H, 00H, 00H
	ORG $+2
$SG61769 DB	'u', 00H, 'z', 00H, '-', 00H, 'u', 00H, 'z', 00H, '-', 00H
	DB	'l', 00H, 'a', 00H, 't', 00H, 'n', 00H, 00H, 00H
	ORG $+2
$SG61770 DB	'v', 00H, 'i', 00H, 00H, 00H
	ORG $+2
$SG60746 DB	'a', 00H, 't', 00H, 'l', 00H, 'T', 00H, 'r', 00H, 'a', 00H
	DB	'c', 00H, 'e', 00H, 'U', 00H, 't', 00H, 'i', 00H, 'l', 00H, 00H
	DB	00H
	ORG $+2
$SG61771 DB	'v', 00H, 'i', 00H, '-', 00H, 'v', 00H, 'n', 00H, 00H, 00H
$SG61772 DB	'x', 00H, 'h', 00H, '-', 00H, 'z', 00H, 'a', 00H, 00H, 00H
$SG61773 DB	'z', 00H, 'h', 00H, '-', 00H, 'c', 00H, 'h', 00H, 's', 00H
	DB	00H, 00H
	ORG $+2
$SG61774 DB	'z', 00H, 'h', 00H, '-', 00H, 'c', 00H, 'h', 00H, 't', 00H
	DB	00H, 00H
	ORG $+2
$SG61775 DB	'z', 00H, 'h', 00H, '-', 00H, 'c', 00H, 'n', 00H, 00H, 00H
$SG61776 DB	'z', 00H, 'h', 00H, '-', 00H, 'h', 00H, 'k', 00H, 00H, 00H
$SG61777 DB	'z', 00H, 'h', 00H, '-', 00H, 'm', 00H, 'o', 00H, 00H, 00H
$SG61778 DB	'z', 00H, 'h', 00H, '-', 00H, 's', 00H, 'g', 00H, 00H, 00H
$SG61779 DB	'z', 00H, 'h', 00H, '-', 00H, 't', 00H, 'w', 00H, 00H, 00H
$SG61780 DB	'z', 00H, 'u', 00H, '-', 00H, 'z', 00H, 'a', 00H, 00H, 00H
$SG60793 DB	'a', 00H, 't', 00H, 'l', 00H, 'T', 00H, 'r', 00H, 'a', 00H
	DB	'c', 00H, 'e', 00H, 'S', 00H, 'e', 00H, 'c', 00H, 'u', 00H, 'r'
	DB	00H, 'i', 00H, 't', 00H, 'y', 00H, 00H, 00H
	ORG $+2
?IID_IAttemperEngine@@3U_GUID@@B DD 04d5d2424H		; IID_IAttemperEngine
	DW	040fdH
	DW	04747H
	DB	086H
	DB	0d8H
	DB	08fH
	DB	0caH
	DB	06bH
	DB	096H
	DB	0eaH
	DB	0bH
$SG60840 DB	'a', 00H, 't', 00H, 'l', 00H, 'T', 00H, 'r', 00H, 'a', 00H
	DB	'c', 00H, 'e', 00H, 'S', 00H, 'y', 00H, 'n', 00H, 'c', 00H, 00H
	DB	00H
	ORG $+2
$SG60887 DB	'a', 00H, 't', 00H, 'l', 00H, 'T', 00H, 'r', 00H, 'a', 00H
	DB	'c', 00H, 'e', 00H, 'I', 00H, 'S', 00H, 'A', 00H, 'P', 00H, 'I'
	DB	00H, 00H, 00H
$SG59871 DB	'a', 00H, 't', 00H, 'l', 00H, 'T', 00H, 'r', 00H, 'a', 00H
	DB	'c', 00H, 'e', 00H, 'G', 00H, 'e', 00H, 'n', 00H, 'e', 00H, 'r'
	DB	00H, 'a', 00H, 'l', 00H, 00H, 00H
$SG59942 DB	'a', 00H, 't', 00H, 'l', 00H, 'T', 00H, 'r', 00H, 'a', 00H
	DB	'c', 00H, 'e', 00H, 'C', 00H, 'O', 00H, 'M', 00H, 00H, 00H
$SG59989 DB	'a', 00H, 't', 00H, 'l', 00H, 'T', 00H, 'r', 00H, 'a', 00H
	DB	'c', 00H, 'e', 00H, 'Q', 00H, 'I', 00H, 00H, 00H
	ORG $+2
$SG60036 DB	'a', 00H, 't', 00H, 'l', 00H, 'T', 00H, 'r', 00H, 'a', 00H
	DB	'c', 00H, 'e', 00H, 'R', 00H, 'e', 00H, 'g', 00H, 'i', 00H, 's'
	DB	00H, 't', 00H, 'r', 00H, 'a', 00H, 'r', 00H, 00H, 00H
?IID_IFaceItemControl@@3U_GUID@@B DD 0fc9067a9H		; IID_IFaceItemControl
	DW	0162eH
	DW	04e13H
	DB	0b0H
	DB	01H
	DB	0f7H
	DB	057H
	DB	09eH
	DB	0a4H
	DB	060H
	DB	06bH
$SG60083 DB	'a', 00H, 't', 00H, 'l', 00H, 'T', 00H, 'r', 00H, 'a', 00H
	DB	'c', 00H, 'e', 00H, 'R', 00H, 'e', 00H, 'f', 00H, 'c', 00H, 'o'
	DB	00H, 'u', 00H, 'n', 00H, 't', 00H, 00H, 00H
	ORG $+2
$SG82624 DB	'I', 00H, 'n', 00H, 'v', 00H, 'a', 00H, 'l', 00H, 'i', 00H
	DB	'd', 00H, ' ', 00H, 'D', 00H, 'a', 00H, 't', 00H, 'e', 00H, 'T'
	DB	00H, 'i', 00H, 'm', 00H, 'e', 00H, 00H, 00H
	ORG $+2
$SG82626 DB	'I', 00H, 'n', 00H, 'v', 00H, 'a', 00H, 'l', 00H, 'i', 00H
	DB	'd', 00H, ' ', 00H, 'D', 00H, 'a', 00H, 't', 00H, 'e', 00H, 'T'
	DB	00H, 'i', 00H, 'm', 00H, 'e', 00H, 'S', 00H, 'p', 00H, 'a', 00H
	DB	'n', 00H, 00H, 00H
	ORG $+2
?IID_IFaceSelectControl@@3U_GUID@@B DD 08514020bH	; IID_IFaceSelectControl
	DW	082a2H
	DW	042d9H
	DB	090H
	DB	019H
	DB	032H
	DB	0a4H
	DB	0eaH
	DB	0ceH
	DB	09fH
	DB	075H
$SG60130 DB	'a', 00H, 't', 00H, 'l', 00H, 'T', 00H, 'r', 00H, 'a', 00H
	DB	'c', 00H, 'e', 00H, 'W', 00H, 'i', 00H, 'n', 00H, 'd', 00H, 'o'
	DB	00H, 'w', 00H, 'i', 00H, 'n', 00H, 'g', 00H, 00H, 00H
?IID_ICustomFaceManager@@3U_GUID@@B DD 0bcd7ff05H	; IID_ICustomFaceManager
	DW	0a79H
	DW	04482H
	DB	09bH
	DB	0a6H
	DB	079H
	DB	0dfH
	DB	04bH
	DB	0d9H
	DB	080H
	DB	016H
$SG60177 DB	'a', 00H, 't', 00H, 'l', 00H, 'T', 00H, 'r', 00H, 'a', 00H
	DB	'c', 00H, 'e', 00H, 'C', 00H, 'o', 00H, 'n', 00H, 't', 00H, 'r'
	DB	00H, 'o', 00H, 'l', 00H, 's', 00H, 00H, 00H
	ORG $+2
$SG110357 DB	'A', 00H, 'p', 00H, 'p', 00H, 'I', 00H, 'D', 00H, 00H, 00H
$SG110358 DB	'C', 00H, 'L', 00H, 'S', 00H, 'I', 00H, 'D', 00H, 00H, 00H
$SG110359 DB	'C', 00H, 'o', 00H, 'm', 00H, 'p', 00H, 'o', 00H, 'n', 00H
	DB	'e', 00H, 'n', 00H, 't', 00H, ' ', 00H, 'C', 00H, 'a', 00H, 't'
	DB	00H, 'e', 00H, 'g', 00H, 'o', 00H, 'r', 00H, 'i', 00H, 'e', 00H
	DB	's', 00H, 00H, 00H
	ORG $+2
$SG110360 DB	'F', 00H, 'i', 00H, 'l', 00H, 'e', 00H, 'T', 00H, 'y', 00H
	DB	'p', 00H, 'e', 00H, 00H, 00H
	ORG $+2
$SG110361 DB	'I', 00H, 'n', 00H, 't', 00H, 'e', 00H, 'r', 00H, 'f', 00H
	DB	'a', 00H, 'c', 00H, 'e', 00H, 00H, 00H
$SG110362 DB	'H', 00H, 'a', 00H, 'r', 00H, 'd', 00H, 'w', 00H, 'a', 00H
	DB	'r', 00H, 'e', 00H, 00H, 00H
	ORG $+2
$SG110363 DB	'M', 00H, 'i', 00H, 'm', 00H, 'e', 00H, 00H, 00H
	ORG $+2
$SG110364 DB	'S', 00H, 'A', 00H, 'M', 00H, 00H, 00H
$SG110365 DB	'S', 00H, 'E', 00H, 'C', 00H, 'U', 00H, 'R', 00H, 'I', 00H
	DB	'T', 00H, 'Y', 00H, 00H, 00H
	ORG $+2
$SG110366 DB	'S', 00H, 'Y', 00H, 'S', 00H, 'T', 00H, 'E', 00H, 'M', 00H
	DB	00H, 00H
	ORG $+2
$SG110367 DB	'S', 00H, 'o', 00H, 'f', 00H, 't', 00H, 'w', 00H, 'a', 00H
	DB	'r', 00H, 'e', 00H, 00H, 00H
	ORG $+2
$SG110368 DB	'T', 00H, 'y', 00H, 'p', 00H, 'e', 00H, 'L', 00H, 'i', 00H
	DB	'b', 00H, 00H, 00H
$SG60224 DB	'a', 00H, 't', 00H, 'l', 00H, 'T', 00H, 'r', 00H, 'a', 00H
	DB	'c', 00H, 'e', 00H, 'H', 00H, 'o', 00H, 's', 00H, 't', 00H, 'i'
	DB	00H, 'n', 00H, 'g', 00H, 00H, 00H
?IID_ITCPSocket@@3U_GUID@@B DD 0a870d592H		; IID_ITCPSocket
	DW	0447aH
	DW	040bdH
	DB	0aeH
	DB	04eH
	DB	05eH
	DB	064H
	DB	0deH
	DB	0ceH
	DB	022H
	DB	0edH
?IID_IPlazaUserManager@@3U_GUID@@B DD 0a2992ab9H	; IID_IPlazaUserManager
	DW	02fddH
	DW	04f9fH
	DB	0bbH
	DB	0acH
	DB	0cfH
	DB	08bH
	DB	060H
	DB	070H
	DB	080H
	DB	0cdH
$SG60271 DB	'a', 00H, 't', 00H, 'l', 00H, 'T', 00H, 'r', 00H, 'a', 00H
	DB	'c', 00H, 'e', 00H, 'D', 00H, 'B', 00H, 'C', 00H, 'l', 00H, 'i'
	DB	00H, 'e', 00H, 'n', 00H, 't', 00H, 00H, 00H
	ORG $+2
?IID_IAndroidUserItemSink@@3U_GUID@@B DD 0967632cH	; IID_IAndroidUserItemSink
	DW	093daH
	DW	04f7fH
	DB	098H
	DB	0e4H
	DB	06fH
	DB	09fH
	DB	0f2H
	DB	0caH
	DB	07bH
	DB	0c4H
?IID_IGameUserManager@@3U_GUID@@B DD 0b0e334b9H		; IID_IGameUserManager
	DW	0f693H
	DW	04c5fH
	DB	087H
	DB	0fH
	DB	066H
	DB	077H
	DB	0aH
	DB	0b9H
	DB	093H
	DB	0b2H
?IID_IUDPSocket@@3U_GUID@@B DD 011e344d0H		; IID_IUDPSocket
	DW	0ace1H
	DW	04a72H
	DB	0abH
	DB	0acH
	DB	06fH
	DB	031H
	DB	013H
	DB	0bfH
	DB	0c9H
	DB	023H
$SG61324 DB	'a', 00H, 'r', 00H, 00H, 00H
	ORG $+2
$SG61325 DB	'b', 00H, 'g', 00H, 00H, 00H
	ORG $+2
$SG61326 DB	'c', 00H, 'a', 00H, 00H, 00H
	ORG $+2
$SG61327 DB	'z', 00H, 'h', 00H, '-', 00H, 'C', 00H, 'H', 00H, 'S', 00H
	DB	00H, 00H
	ORG $+2
$SG61328 DB	'c', 00H, 's', 00H, 00H, 00H
	ORG $+2
$SG61329 DB	'd', 00H, 'a', 00H, 00H, 00H
	ORG $+2
$SG61330 DB	'd', 00H, 'e', 00H, 00H, 00H
	ORG $+2
$SG61331 DB	'e', 00H, 'l', 00H, 00H, 00H
	ORG $+2
$SG61332 DB	'e', 00H, 'n', 00H, 00H, 00H
	ORG $+2
$SG61333 DB	'e', 00H, 's', 00H, 00H, 00H
	ORG $+2
$SG61334 DB	'f', 00H, 'i', 00H, 00H, 00H
	ORG $+2
$SG61335 DB	'f', 00H, 'r', 00H, 00H, 00H
	ORG $+2
$SG61336 DB	'h', 00H, 'e', 00H, 00H, 00H
	ORG $+2
$SG61337 DB	'h', 00H, 'u', 00H, 00H, 00H
	ORG $+2
$SG61338 DB	'i', 00H, 's', 00H, 00H, 00H
	ORG $+2
$SG61339 DB	'i', 00H, 't', 00H, 00H, 00H
	ORG $+2
$SG61340 DB	'j', 00H, 'a', 00H, 00H, 00H
	ORG $+2
$SG61341 DB	'k', 00H, 'o', 00H, 00H, 00H
	ORG $+2
$SG61342 DB	'n', 00H, 'l', 00H, 00H, 00H
	ORG $+2
$SG60318 DB	'a', 00H, 't', 00H, 'l', 00H, 'T', 00H, 'r', 00H, 'a', 00H
	DB	'c', 00H, 'e', 00H, 'D', 00H, 'B', 00H, 'P', 00H, 'r', 00H, 'o'
	DB	00H, 'v', 00H, 'i', 00H, 'd', 00H, 'e', 00H, 'r', 00H, 00H, 00H
	ORG $+2
$SG61343 DB	'n', 00H, 'o', 00H, 00H, 00H
	ORG $+2
$SG61344 DB	'p', 00H, 'l', 00H, 00H, 00H
	ORG $+2
$SG61345 DB	'p', 00H, 't', 00H, 00H, 00H
	ORG $+2
$SG61346 DB	'r', 00H, 'o', 00H, 00H, 00H
	ORG $+2
$SG61347 DB	'r', 00H, 'u', 00H, 00H, 00H
	ORG $+2
$SG61348 DB	'h', 00H, 'r', 00H, 00H, 00H
	ORG $+2
$SG61349 DB	's', 00H, 'k', 00H, 00H, 00H
	ORG $+2
$SG61350 DB	's', 00H, 'q', 00H, 00H, 00H
	ORG $+2
$SG61351 DB	's', 00H, 'v', 00H, 00H, 00H
	ORG $+2
$SG61352 DB	't', 00H, 'h', 00H, 00H, 00H
	ORG $+2
$SG61353 DB	't', 00H, 'r', 00H, 00H, 00H
	ORG $+2
$SG61354 DB	'u', 00H, 'r', 00H, 00H, 00H
	ORG $+2
$SG61355 DB	'i', 00H, 'd', 00H, 00H, 00H
	ORG $+2
$SG61356 DB	'u', 00H, 'k', 00H, 00H, 00H
	ORG $+2
$SG61357 DB	'b', 00H, 'e', 00H, 00H, 00H
	ORG $+2
$SG61358 DB	's', 00H, 'l', 00H, 00H, 00H
	ORG $+2
$SG61359 DB	'e', 00H, 't', 00H, 00H, 00H
	ORG $+2
$SG61360 DB	'l', 00H, 'v', 00H, 00H, 00H
	ORG $+2
?IID_IGameLevelParser@@3U_GUID@@B DD 012823198H		; IID_IGameLevelParser
	DW	027b6H
	DW	046c5H
	DB	09cH
	DB	02cH
	DB	09cH
	DB	037H
	DB	08H
	DB	058H
	DB	0bfH
	DB	0faH
$SG61361 DB	'l', 00H, 't', 00H, 00H, 00H
	ORG $+2
$SG61362 DB	'f', 00H, 'a', 00H, 00H, 00H
	ORG $+2
$SG61363 DB	'v', 00H, 'i', 00H, 00H, 00H
	ORG $+2
$SG61364 DB	'h', 00H, 'y', 00H, 00H, 00H
	ORG $+2
$SG61365 DB	'a', 00H, 'z', 00H, 00H, 00H
	ORG $+2
$SG61366 DB	'e', 00H, 'u', 00H, 00H, 00H
	ORG $+2
?IID_ITraceServiceManager@@3U_GUID@@B DD 06d14efe6H	; IID_ITraceServiceManager
	DW	0892aH
	DW	04a48H
	DB	092H
	DB	0c9H
	DB	0dbH
	DB	0eaH
	DB	092H
	DB	0ddH
	DB	0d5H
	DB	013H
$SG61367 DB	'm', 00H, 'k', 00H, 00H, 00H
	ORG $+2
?IID_IGameServiceManager@@3U_GUID@@B DD 0a975ccebH	; IID_IGameServiceManager
	DW	0331H
	DW	04553H
	DB	0a1H
	DB	0e0H
	DB	0a7H
	DB	0c7H
	DB	07aH
	DB	07cH
	DB	04eH
	DB	0fdH
$SG61368 DB	'a', 00H, 'f', 00H, 00H, 00H
	ORG $+2
$SG61369 DB	'k', 00H, 'a', 00H, 00H, 00H
	ORG $+2
$SG61370 DB	'f', 00H, 'o', 00H, 00H, 00H
	ORG $+2
$SG61371 DB	'h', 00H, 'i', 00H, 00H, 00H
	ORG $+2
$SG61372 DB	'm', 00H, 's', 00H, 00H, 00H
	ORG $+2
$SG61373 DB	'k', 00H, 'k', 00H, 00H, 00H
	ORG $+2
$SG61374 DB	'k', 00H, 'y', 00H, 00H, 00H
	ORG $+2
$SG61375 DB	's', 00H, 'w', 00H, 00H, 00H
	ORG $+2
$SG61376 DB	'u', 00H, 'z', 00H, 00H, 00H
	ORG $+2
?IID_IWHNetwork@@3U_GUID@@B DD 0e500997bH		; IID_IWHNetwork
	DW	0e45eH
	DW	0474eH
	DB	08aH
	DB	0d4H
	DB	0bcH
	DB	0f3H
	DB	04dH
	DB	089H
	DB	045H
	DB	041H
$SG61377 DB	't', 00H, 't', 00H, 00H, 00H
	ORG $+2
$SG61378 DB	'p', 00H, 'a', 00H, 00H, 00H
	ORG $+2
$SG61379 DB	'g', 00H, 'u', 00H, 00H, 00H
	ORG $+2
$SG61380 DB	't', 00H, 'a', 00H, 00H, 00H
	ORG $+2
$SG61381 DB	't', 00H, 'e', 00H, 00H, 00H
	ORG $+2
$SG61382 DB	'k', 00H, 'n', 00H, 00H, 00H
	ORG $+2
$SG61383 DB	'm', 00H, 'r', 00H, 00H, 00H
	ORG $+2
$SG61384 DB	's', 00H, 'a', 00H, 00H, 00H
	ORG $+2
$SG61385 DB	'm', 00H, 'n', 00H, 00H, 00H
	ORG $+2
$SG61386 DB	'g', 00H, 'l', 00H, 00H, 00H
	ORG $+2
$SG61387 DB	'k', 00H, 'o', 00H, 'k', 00H, 00H, 00H
$SG61388 DB	's', 00H, 'y', 00H, 'r', 00H, 00H, 00H
$SG61389 DB	'd', 00H, 'i', 00H, 'v', 00H, 00H, 00H
$SG60365 DB	'a', 00H, 't', 00H, 'l', 00H, 'T', 00H, 'r', 00H, 'a', 00H
	DB	'c', 00H, 'e', 00H, 'S', 00H, 'n', 00H, 'a', 00H, 'p', 00H, 'i'
	DB	00H, 'n', 00H, 00H, 00H
	ORG $+2
$SG61390 DB	00H, 00H
	ORG $+2
$SG61391 DB	'a', 00H, 'r', 00H, '-', 00H, 'S', 00H, 'A', 00H, 00H, 00H
?IID_IUserOrderParser@@3U_GUID@@B DD 0eff89495H		; IID_IUserOrderParser
	DW	0e9daH
	DW	04ea3H
	DB	083H
	DB	064H
	DB	0aaH
	DB	0b2H
	DB	0afH
	DB	07fH
	DB	03H
	DB	0ceH
$SG61392 DB	'b', 00H, 'g', 00H, '-', 00H, 'B', 00H, 'G', 00H, 00H, 00H
$SG61393 DB	'c', 00H, 'a', 00H, '-', 00H, 'E', 00H, 'S', 00H, 00H, 00H
$SG61394 DB	'z', 00H, 'h', 00H, '-', 00H, 'T', 00H, 'W', 00H, 00H, 00H
$SG61395 DB	'c', 00H, 's', 00H, '-', 00H, 'C', 00H, 'Z', 00H, 00H, 00H
$SG61396 DB	'd', 00H, 'a', 00H, '-', 00H, 'D', 00H, 'K', 00H, 00H, 00H
$SG61397 DB	'd', 00H, 'e', 00H, '-', 00H, 'D', 00H, 'E', 00H, 00H, 00H
$SG61398 DB	'e', 00H, 'l', 00H, '-', 00H, 'G', 00H, 'R', 00H, 00H, 00H
$SG61399 DB	'e', 00H, 'n', 00H, '-', 00H, 'U', 00H, 'S', 00H, 00H, 00H
$SG61400 DB	'f', 00H, 'i', 00H, '-', 00H, 'F', 00H, 'I', 00H, 00H, 00H
$SG61401 DB	'f', 00H, 'r', 00H, '-', 00H, 'F', 00H, 'R', 00H, 00H, 00H
$SG61402 DB	'h', 00H, 'e', 00H, '-', 00H, 'I', 00H, 'L', 00H, 00H, 00H
$SG61403 DB	'h', 00H, 'u', 00H, '-', 00H, 'H', 00H, 'U', 00H, 00H, 00H
$SG61404 DB	'i', 00H, 's', 00H, '-', 00H, 'I', 00H, 'S', 00H, 00H, 00H
$SG61405 DB	'i', 00H, 't', 00H, '-', 00H, 'I', 00H, 'T', 00H, 00H, 00H
$SG61406 DB	'j', 00H, 'a', 00H, '-', 00H, 'J', 00H, 'P', 00H, 00H, 00H
$SG61407 DB	'k', 00H, 'o', 00H, '-', 00H, 'K', 00H, 'R', 00H, 00H, 00H
$SG61408 DB	'n', 00H, 'l', 00H, '-', 00H, 'N', 00H, 'L', 00H, 00H, 00H
$SG61409 DB	'n', 00H, 'b', 00H, '-', 00H, 'N', 00H, 'O', 00H, 00H, 00H
?IID_IAsynchronismEngine@@3U_GUID@@B DD 0e03ad33dH	; IID_IAsynchronismEngine
	DW	0b285H
	DW	048eaH
	DB	086H
	DB	070H
	DB	0aH
	DB	095H
	DB	055H
	DB	092H
	DB	07H
	DB	0e1H
$SG61410 DB	'p', 00H, 'l', 00H, '-', 00H, 'P', 00H, 'L', 00H, 00H, 00H
$SG61411 DB	'p', 00H, 't', 00H, '-', 00H, 'B', 00H, 'R', 00H, 00H, 00H
$SG61412 DB	'r', 00H, 'o', 00H, '-', 00H, 'R', 00H, 'O', 00H, 00H, 00H
$SG61413 DB	'r', 00H, 'u', 00H, '-', 00H, 'R', 00H, 'U', 00H, 00H, 00H
$SG61414 DB	'h', 00H, 'r', 00H, '-', 00H, 'H', 00H, 'R', 00H, 00H, 00H
$SG61415 DB	's', 00H, 'k', 00H, '-', 00H, 'S', 00H, 'K', 00H, 00H, 00H
$SG61416 DB	's', 00H, 'q', 00H, '-', 00H, 'A', 00H, 'L', 00H, 00H, 00H
$SG61417 DB	's', 00H, 'v', 00H, '-', 00H, 'S', 00H, 'E', 00H, 00H, 00H
$SG61418 DB	't', 00H, 'h', 00H, '-', 00H, 'T', 00H, 'H', 00H, 00H, 00H
$SG61419 DB	't', 00H, 'r', 00H, '-', 00H, 'T', 00H, 'R', 00H, 00H, 00H
$SG61420 DB	'u', 00H, 'r', 00H, '-', 00H, 'P', 00H, 'K', 00H, 00H, 00H
$SG61421 DB	'i', 00H, 'd', 00H, '-', 00H, 'I', 00H, 'D', 00H, 00H, 00H
$SG61422 DB	'u', 00H, 'k', 00H, '-', 00H, 'U', 00H, 'A', 00H, 00H, 00H
$SG61423 DB	'b', 00H, 'e', 00H, '-', 00H, 'B', 00H, 'Y', 00H, 00H, 00H
$SG61424 DB	's', 00H, 'l', 00H, '-', 00H, 'S', 00H, 'I', 00H, 00H, 00H
$SG61425 DB	'e', 00H, 't', 00H, '-', 00H, 'E', 00H, 'E', 00H, 00H, 00H
$SG61426 DB	'l', 00H, 'v', 00H, '-', 00H, 'L', 00H, 'V', 00H, 00H, 00H
$SG61427 DB	'l', 00H, 't', 00H, '-', 00H, 'L', 00H, 'T', 00H, 00H, 00H
$SG61428 DB	'f', 00H, 'a', 00H, '-', 00H, 'I', 00H, 'R', 00H, 00H, 00H
$SG61429 DB	'v', 00H, 'i', 00H, '-', 00H, 'V', 00H, 'N', 00H, 00H, 00H
$SG61430 DB	'h', 00H, 'y', 00H, '-', 00H, 'A', 00H, 'M', 00H, 00H, 00H
$SG61431 DB	'a', 00H, 'z', 00H, '-', 00H, 'A', 00H, 'Z', 00H, '-', 00H
	DB	'L', 00H, 'a', 00H, 't', 00H, 'n', 00H, 00H, 00H
	ORG $+2
$SG61432 DB	'e', 00H, 'u', 00H, '-', 00H, 'E', 00H, 'S', 00H, 00H, 00H
$SG61433 DB	'm', 00H, 'k', 00H, '-', 00H, 'M', 00H, 'K', 00H, 00H, 00H
$SG61434 DB	't', 00H, 'n', 00H, '-', 00H, 'Z', 00H, 'A', 00H, 00H, 00H
$SG61435 DB	'x', 00H, 'h', 00H, '-', 00H, 'Z', 00H, 'A', 00H, 00H, 00H
$SG61436 DB	'z', 00H, 'u', 00H, '-', 00H, 'Z', 00H, 'A', 00H, 00H, 00H
$SG60412 DB	'a', 00H, 't', 00H, 'l', 00H, 'T', 00H, 'r', 00H, 'a', 00H
	DB	'c', 00H, 'e', 00H, 'N', 00H, 'o', 00H, 't', 00H, 'I', 00H, 'm'
	DB	00H, 'p', 00H, 'l', 00H, 00H, 00H
$SG61437 DB	'a', 00H, 'f', 00H, '-', 00H, 'Z', 00H, 'A', 00H, 00H, 00H
$SG61438 DB	'k', 00H, 'a', 00H, '-', 00H, 'G', 00H, 'E', 00H, 00H, 00H
$SG61439 DB	'f', 00H, 'o', 00H, '-', 00H, 'F', 00H, 'O', 00H, 00H, 00H
CONST	ENDS
PUBLIC	??_H@YGXPAXIIP6EPAX0@Z@Z			; `vector constructor iterator'
PUBLIC	?__empty_global_delete@@YAXPAX@Z		; __empty_global_delete
PUBLIC	?__empty_global_delete@@YAXPAXI@Z		; __empty_global_delete
PUBLIC	??2@YAPAXIPAX@Z					; operator new
PUBLIC	_HRESULT_FROM_WIN32
PUBLIC	??$AtlMultiply@I@ATL@@YAJPAIII@Z		; ATL::AtlMultiply<unsigned int>
PUBLIC	??$AtlMultiply@K@ATL@@YAJPAKKK@Z		; ATL::AtlMultiply<unsigned long>
PUBLIC	??$AtlAdd@K@ATL@@YAJPAKKK@Z			; ATL::AtlAdd<unsigned long>
PUBLIC	??0?$CTraceCategoryEx@$0IAAAA@$0A@@ATL@@QAE@PB_W@Z ; ATL::CTraceCategoryEx<524288,0>::CTraceCategoryEx<524288,0>
PUBLIC	??0?$CTraceCategoryEx@$00$0A@@ATL@@QAE@PB_W@Z	; ATL::CTraceCategoryEx<1,0>::CTraceCategoryEx<1,0>
PUBLIC	??0?$CTraceCategoryEx@$01$0A@@ATL@@QAE@PB_W@Z	; ATL::CTraceCategoryEx<2,0>::CTraceCategoryEx<2,0>
PUBLIC	??0?$CTraceCategoryEx@$03$0A@@ATL@@QAE@PB_W@Z	; ATL::CTraceCategoryEx<4,0>::CTraceCategoryEx<4,0>
PUBLIC	??0?$CTraceCategoryEx@$07$0A@@ATL@@QAE@PB_W@Z	; ATL::CTraceCategoryEx<8,0>::CTraceCategoryEx<8,0>
PUBLIC	??0?$CTraceCategoryEx@$0BA@$0A@@ATL@@QAE@PB_W@Z	; ATL::CTraceCategoryEx<16,0>::CTraceCategoryEx<16,0>
PUBLIC	??0?$CTraceCategoryEx@$0CA@$0A@@ATL@@QAE@PB_W@Z	; ATL::CTraceCategoryEx<32,0>::CTraceCategoryEx<32,0>
PUBLIC	??0?$CTraceCategoryEx@$0EA@$0A@@ATL@@QAE@PB_W@Z	; ATL::CTraceCategoryEx<64,0>::CTraceCategoryEx<64,0>
PUBLIC	??0?$CTraceCategoryEx@$0IA@$0A@@ATL@@QAE@PB_W@Z	; ATL::CTraceCategoryEx<128,0>::CTraceCategoryEx<128,0>
PUBLIC	??0?$CTraceCategoryEx@$0BAA@$0A@@ATL@@QAE@PB_W@Z ; ATL::CTraceCategoryEx<256,0>::CTraceCategoryEx<256,0>
PUBLIC	??0?$CTraceCategoryEx@$0CAA@$0A@@ATL@@QAE@PB_W@Z ; ATL::CTraceCategoryEx<512,0>::CTraceCategoryEx<512,0>
PUBLIC	??0?$CTraceCategoryEx@$0EAA@$0A@@ATL@@QAE@PB_W@Z ; ATL::CTraceCategoryEx<1024,0>::CTraceCategoryEx<1024,0>
PUBLIC	??0?$CTraceCategoryEx@$0IAA@$0A@@ATL@@QAE@PB_W@Z ; ATL::CTraceCategoryEx<2048,0>::CTraceCategoryEx<2048,0>
PUBLIC	??0?$CTraceCategoryEx@$0BAAA@$0A@@ATL@@QAE@PB_W@Z ; ATL::CTraceCategoryEx<4096,0>::CTraceCategoryEx<4096,0>
PUBLIC	??0?$CTraceCategoryEx@$0CAAA@$0A@@ATL@@QAE@PB_W@Z ; ATL::CTraceCategoryEx<8192,0>::CTraceCategoryEx<8192,0>
PUBLIC	??0?$CTraceCategoryEx@$0EAAA@$0A@@ATL@@QAE@PB_W@Z ; ATL::CTraceCategoryEx<16384,0>::CTraceCategoryEx<16384,0>
PUBLIC	??0?$CTraceCategoryEx@$0IAAA@$0A@@ATL@@QAE@PB_W@Z ; ATL::CTraceCategoryEx<32768,0>::CTraceCategoryEx<32768,0>
PUBLIC	??0?$CTraceCategoryEx@$0BAAAA@$0A@@ATL@@QAE@PB_W@Z ; ATL::CTraceCategoryEx<65536,0>::CTraceCategoryEx<65536,0>
PUBLIC	??0?$CTraceCategoryEx@$0CAAAA@$0A@@ATL@@QAE@PB_W@Z ; ATL::CTraceCategoryEx<131072,0>::CTraceCategoryEx<131072,0>
PUBLIC	??0?$CTraceCategoryEx@$0EAAAA@$0A@@ATL@@QAE@PB_W@Z ; ATL::CTraceCategoryEx<262144,0>::CTraceCategoryEx<262144,0>
PUBLIC	??0?$CTraceCategoryEx@$0BAAAAA@$0A@@ATL@@QAE@PB_W@Z ; ATL::CTraceCategoryEx<1048576,0>::CTraceCategoryEx<1048576,0>
PUBLIC	??0?$CTraceCategoryEx@$0CAAAAA@$0A@@ATL@@QAE@PB_W@Z ; ATL::CTraceCategoryEx<2097152,0>::CTraceCategoryEx<2097152,0>
PUBLIC	??0?$CTraceCategoryEx@$0EAAAAA@$0A@@ATL@@QAE@PB_W@Z ; ATL::CTraceCategoryEx<4194304,0>::CTraceCategoryEx<4194304,0>
PUBLIC	?_AtlRaiseException@ATL@@YAXKK@Z		; ATL::_AtlRaiseException
PUBLIC	?_AtlInitializeCriticalSectionEx@ATL@@YAHPAU_RTL_CRITICAL_SECTION@@KK@Z ; ATL::_AtlInitializeCriticalSectionEx
PUBLIC	??0CComCriticalSection@ATL@@QAE@XZ		; ATL::CComCriticalSection::CComCriticalSection
PUBLIC	??1CComCriticalSection@ATL@@QAE@XZ		; ATL::CComCriticalSection::~CComCriticalSection
PUBLIC	?Init@CComCriticalSection@ATL@@QAEJXZ		; ATL::CComCriticalSection::Init
PUBLIC	?Term@CComCriticalSection@ATL@@QAEJXZ		; ATL::CComCriticalSection::Term
PUBLIC	?GetModuleInstance@CAtlBaseModule@ATL@@QAEPAUHINSTANCE__@@XZ ; ATL::CAtlBaseModule::GetModuleInstance
PUBLIC	??0CWin32Heap@ATL@@QAE@PAX@Z			; ATL::CWin32Heap::CWin32Heap
PUBLIC	??1CWin32Heap@ATL@@UAE@XZ			; ATL::CWin32Heap::~CWin32Heap
PUBLIC	?Allocate@CWin32Heap@ATL@@UAEPAXI@Z		; ATL::CWin32Heap::Allocate
PUBLIC	?Free@CWin32Heap@ATL@@UAEXPAX@Z			; ATL::CWin32Heap::Free
PUBLIC	?Reallocate@CWin32Heap@ATL@@UAEPAXPAXI@Z	; ATL::CWin32Heap::Reallocate
PUBLIC	?GetSize@CWin32Heap@ATL@@UAEIPAX@Z		; ATL::CWin32Heap::GetSize
PUBLIC	??_GCWin32Heap@ATL@@UAEPAXI@Z			; ATL::CWin32Heap::`scalar deleting destructor'
PUBLIC	??$AtlAdd@I@ATL@@YAJPAIII@Z			; ATL::AtlAdd<unsigned int>
PUBLIC	??$AtlAdd@H@ATL@@YAJPAHHH@Z			; ATL::AtlAdd<int>
PUBLIC	?AddRef@CStringData@ATL@@QAEXXZ			; ATL::CStringData::AddRef
PUBLIC	??0CNilStringData@ATL@@QAE@XZ			; ATL::CNilStringData::CNilStringData
PUBLIC	?SetManager@CNilStringData@ATL@@QAEXPAUIAtlStringMgr@2@@Z ; ATL::CNilStringData::SetManager
PUBLIC	??0_ATL_COM_MODULE70@ATL@@QAE@XZ		; ATL::_ATL_COM_MODULE70::_ATL_COM_MODULE70
PUBLIC	??1_ATL_COM_MODULE70@ATL@@QAE@XZ		; ATL::_ATL_COM_MODULE70::~_ATL_COM_MODULE70
PUBLIC	??0?$CSimpleArray@GV?$CSimpleArrayEqualHelper@G@ATL@@@ATL@@QAE@XZ ; ATL::CSimpleArray<unsigned short,ATL::CSimpleArrayEqualHelper<unsigned short> >::CSimpleArray<unsigned short,ATL::CSimpleArrayEqualHelper<unsigned short> >
PUBLIC	??1?$CSimpleArray@GV?$CSimpleArrayEqualHelper@G@ATL@@@ATL@@QAE@XZ ; ATL::CSimpleArray<unsigned short,ATL::CSimpleArrayEqualHelper<unsigned short> >::~CSimpleArray<unsigned short,ATL::CSimpleArrayEqualHelper<unsigned short> >
PUBLIC	?GetSize@?$CSimpleArray@GV?$CSimpleArrayEqualHelper@G@ATL@@@ATL@@QBEHXZ ; ATL::CSimpleArray<unsigned short,ATL::CSimpleArrayEqualHelper<unsigned short> >::GetSize
PUBLIC	?RemoveAll@?$CSimpleArray@GV?$CSimpleArrayEqualHelper@G@ATL@@@ATL@@QAEXXZ ; ATL::CSimpleArray<unsigned short,ATL::CSimpleArrayEqualHelper<unsigned short> >::RemoveAll
PUBLIC	??A?$CSimpleArray@GV?$CSimpleArrayEqualHelper@G@ATL@@@ATL@@QAEAAGH@Z ; ATL::CSimpleArray<unsigned short,ATL::CSimpleArrayEqualHelper<unsigned short> >::operator[]
PUBLIC	??0_ATL_WIN_MODULE70@ATL@@QAE@XZ		; ATL::_ATL_WIN_MODULE70::_ATL_WIN_MODULE70
PUBLIC	??1_ATL_WIN_MODULE70@ATL@@QAE@XZ		; ATL::_ATL_WIN_MODULE70::~_ATL_WIN_MODULE70
PUBLIC	?AtlWinModuleInit@ATL@@YGJPAU_ATL_WIN_MODULE70@1@@Z ; ATL::AtlWinModuleInit
PUBLIC	?AtlWinModuleTerm@ATL@@YGJPAU_ATL_WIN_MODULE70@1@PAUHINSTANCE__@@@Z ; ATL::AtlWinModuleTerm
PUBLIC	??0CAtlComModule@ATL@@QAE@XZ			; ATL::CAtlComModule::CAtlComModule
PUBLIC	??1CAtlComModule@ATL@@QAE@XZ			; ATL::CAtlComModule::~CAtlComModule
PUBLIC	?Term@CAtlComModule@ATL@@QAEXXZ			; ATL::CAtlComModule::Term
PUBLIC	??0CAtlWinModule@ATL@@QAE@XZ			; ATL::CAtlWinModule::CAtlWinModule
PUBLIC	??1CAtlWinModule@ATL@@QAE@XZ			; ATL::CAtlWinModule::~CAtlWinModule
PUBLIC	?Term@CAtlWinModule@ATL@@QAEXXZ			; ATL::CAtlWinModule::Term
PUBLIC	??0CAtlStringMgr@ATL@@QAE@PAUIAtlMemMgr@1@@Z	; ATL::CAtlStringMgr::CAtlStringMgr
PUBLIC	??1CAtlStringMgr@ATL@@UAE@XZ			; ATL::CAtlStringMgr::~CAtlStringMgr
PUBLIC	?GetInstance@CAtlStringMgr@ATL@@SAPAUIAtlStringMgr@2@XZ ; ATL::CAtlStringMgr::GetInstance
PUBLIC	?Allocate@CAtlStringMgr@ATL@@UAEPAUCStringData@2@HH@Z ; ATL::CAtlStringMgr::Allocate
PUBLIC	?Free@CAtlStringMgr@ATL@@UAEXPAUCStringData@2@@Z ; ATL::CAtlStringMgr::Free
PUBLIC	?Reallocate@CAtlStringMgr@ATL@@UAEPAUCStringData@2@PAU32@HH@Z ; ATL::CAtlStringMgr::Reallocate
PUBLIC	?GetNilString@CAtlStringMgr@ATL@@UAEPAUCStringData@2@XZ ; ATL::CAtlStringMgr::GetNilString
PUBLIC	?Clone@CAtlStringMgr@ATL@@UAEPAUIAtlStringMgr@2@XZ ; ATL::CAtlStringMgr::Clone
PUBLIC	?StaticInitialize@CAtlStringMgr@ATL@@CA_NXZ	; ATL::CAtlStringMgr::StaticInitialize
PUBLIC	??_GCAtlStringMgr@ATL@@UAEPAXI@Z		; ATL::CAtlStringMgr::`scalar deleting destructor'
PUBLIC	??__FstrHeap@?1??GetInstance@CAtlStringMgr@ATL@@SAPAUIAtlStringMgr@2@XZ@YAXXZ ; `ATL::CAtlStringMgr::GetInstance'::`2'::`dynamic atexit destructor for 'strHeap''
PUBLIC	??__FstrMgr@?1??GetInstance@CAtlStringMgr@ATL@@SAPAUIAtlStringMgr@2@XZ@YAXXZ ; `ATL::CAtlStringMgr::GetInstance'::`2'::`dynamic atexit destructor for 'strMgr''
PUBLIC	??$AtlAlignUp@H@ATL@@YGHHK@Z			; ATL::AtlAlignUp<int>
PUBLIC	??0CDCCache@CImage@ATL@@QAE@XZ			; ATL::CImage::CDCCache::CDCCache
PUBLIC	??1CDCCache@CImage@ATL@@QAE@XZ			; ATL::CImage::CDCCache::~CDCCache
PUBLIC	??0CInitGDIPlus@CImage@ATL@@QAE@XZ		; ATL::CImage::CInitGDIPlus::CInitGDIPlus
PUBLIC	??1CInitGDIPlus@CImage@ATL@@QAE@XZ		; ATL::CImage::CInitGDIPlus::~CInitGDIPlus
PUBLIC	?ReleaseGDIPlus@CInitGDIPlus@CImage@ATL@@QAEXXZ	; ATL::CImage::CInitGDIPlus::ReleaseGDIPlus
PUBLIC	?GetInitGDIPlusInstance@CImage@ATL@@CAPAVCInitGDIPlus@12@XZ ; ATL::CImage::GetInitGDIPlusInstance
PUBLIC	?GetCDCCacheInstance@CImage@ATL@@CAPAVCDCCache@12@XZ ; ATL::CImage::GetCDCCacheInstance
PUBLIC	?CImageStaticInitialize@CImage@ATL@@CA_NXZ	; ATL::CImage::CImageStaticInitialize
PUBLIC	??__FgdiPlus@?1??GetInitGDIPlusInstance@CImage@ATL@@CAPAVCInitGDIPlus@12@XZ@YAXXZ ; `ATL::CImage::GetInitGDIPlusInstance'::`2'::`dynamic atexit destructor for 'gdiPlus''
PUBLIC	??__Fcache@?1??GetCDCCacheInstance@CImage@ATL@@CAPAVCDCCache@12@XZ@YAXXZ ; `ATL::CImage::GetCDCCacheInstance'::`2'::`dynamic atexit destructor for 'cache''
PUBLIC	??0CChiHuRight@@QAE@XZ				; CChiHuRight::CChiHuRight
PUBLIC	??4CChiHuRight@@QAEAAV0@K@Z			; CChiHuRight::operator=
PUBLIC	??_4CChiHuRight@@QAEAAV0@K@Z			; CChiHuRight::operator&=
PUBLIC	??_5CChiHuRight@@QAEAAV0@K@Z			; CChiHuRight::operator|=
PUBLIC	??ICChiHuRight@@QAE?AV0@K@Z			; CChiHuRight::operator&
PUBLIC	??ICChiHuRight@@QBE?AV0@K@Z			; CChiHuRight::operator&
PUBLIC	??UCChiHuRight@@QAE?AV0@K@Z			; CChiHuRight::operator|
PUBLIC	??UCChiHuRight@@QBE?AV0@K@Z			; CChiHuRight::operator|
PUBLIC	??8CChiHuRight@@QBE_NK@Z			; CChiHuRight::operator==
PUBLIC	??8CChiHuRight@@QBE_NV0@@Z			; CChiHuRight::operator==
PUBLIC	??9CChiHuRight@@QBE_NK@Z			; CChiHuRight::operator!=
PUBLIC	??9CChiHuRight@@QBE_NV0@@Z			; CChiHuRight::operator!=
PUBLIC	?IsEmpty@CChiHuRight@@QAE_NXZ			; CChiHuRight::IsEmpty
PUBLIC	?SetEmpty@CChiHuRight@@QAEXXZ			; CChiHuRight::SetEmpty
PUBLIC	?GetRightData@CChiHuRight@@QAEEQAKE@Z		; CChiHuRight::GetRightData
PUBLIC	?SetRightData@CChiHuRight@@QAE_NQBKE@Z		; CChiHuRight::SetRightData
PUBLIC	?IsValidRight@CChiHuRight@@AAE_NK@Z		; CChiHuRight::IsValidRight
PUBLIC	??0CGameLogic@@QAE@XZ				; CGameLogic::CGameLogic
PUBLIC	??1CGameLogic@@UAE@XZ				; CGameLogic::~CGameLogic
PUBLIC	?RandCardList@CGameLogic@@QAEXQAEE@Z		; CGameLogic::RandCardList
PUBLIC	?RandCardList@CGameLogic@@QAEXQAE0E@Z		; CGameLogic::RandCardList
PUBLIC	?RemoveCard@CGameLogic@@QAE_NQAEQBEE@Z		; CGameLogic::RemoveCard
PUBLIC	?RemoveCard@CGameLogic@@QAE_NQAEE@Z		; CGameLogic::RemoveCard
PUBLIC	?SortCardList@CGameLogic@@QAE_NQAEE@Z		; CGameLogic::SortCardList
PUBLIC	?RemoveCard@CGameLogic@@QAE_NQAEEQBEE@Z		; CGameLogic::RemoveCard
PUBLIC	?IsMagicCard@CGameLogic@@QAE_NE@Z		; CGameLogic::IsMagicCard
PUBLIC	?IsHuaCard@CGameLogic@@QAE_NE@Z			; CGameLogic::IsHuaCard
PUBLIC	?IsHuaCard@CGameLogic@@QAEEQAE@Z		; CGameLogic::IsHuaCard
PUBLIC	?GetUserActionRank@CGameLogic@@QAEEE@Z		; CGameLogic::GetUserActionRank
PUBLIC	?GetChiHuActionRank@CGameLogic@@QAEGABVCChiHuRight@@@Z ; CGameLogic::GetChiHuActionRank
PUBLIC	?GetChiHuTime@CGameLogic@@QAEGABVCChiHuRight@@@Z ; CGameLogic::GetChiHuTime
PUBLIC	?AutomatismOutCard@CGameLogic@@QAEEQBE0E@Z	; CGameLogic::AutomatismOutCard
PUBLIC	?EstimateEatCard@CGameLogic@@QAEEQBEE@Z		; CGameLogic::EstimateEatCard
PUBLIC	?EstimatePengCard@CGameLogic@@QAEEQBEE@Z	; CGameLogic::EstimatePengCard
PUBLIC	?EstimateGangCard@CGameLogic@@QAEEQBEE@Z	; CGameLogic::EstimateGangCard
PUBLIC	?AnalyseGangCard@CGameLogic@@QAEEQBEQBUtagWeaveItem@@EAAUtagGangCardResult@@@Z ; CGameLogic::AnalyseGangCard
PUBLIC	?AnalyseGangCardEx@CGameLogic@@QAEEQBEQBUtagWeaveItem@@EEAAUtagGangCardResult@@@Z ; CGameLogic::AnalyseGangCardEx
PUBLIC	?AnalyseChiHuCard@CGameLogic@@QAEEQBEQBUtagWeaveItem@@EEAAVCChiHuRight@@_N@Z ; CGameLogic::AnalyseChiHuCard
PUBLIC	?AnalyseTingCard@CGameLogic@@QAEEQBEQBUtagWeaveItem@@E@Z ; CGameLogic::AnalyseTingCard
PUBLIC	?AnalyseTingCard@CGameLogic@@QAEEQBEQBUtagWeaveItem@@EQAY0BM@E@Z ; CGameLogic::AnalyseTingCard
PUBLIC	?AnalyseTingCard@CGameLogic@@QAEEQBEQBUtagWeaveItem@@EAAEQAE3QAY0BM@E@Z ; CGameLogic::AnalyseTingCard
PUBLIC	?GetHuCard@CGameLogic@@QAEEQBEQBUtagWeaveItem@@EQAE@Z ; CGameLogic::GetHuCard
PUBLIC	?SwitchToCardData@CGameLogic@@QAEEE@Z		; CGameLogic::SwitchToCardData
PUBLIC	?SwitchToCardIndex@CGameLogic@@QAEEE@Z		; CGameLogic::SwitchToCardIndex
PUBLIC	?SwitchToCardData@CGameLogic@@QAEEQBEQAE@Z	; CGameLogic::SwitchToCardData
PUBLIC	?SwitchToCardIndex@CGameLogic@@QAEEQBEEQAE@Z	; CGameLogic::SwitchToCardIndex
PUBLIC	?IsValidCard@CGameLogic@@QAE_NE@Z		; CGameLogic::IsValidCard
PUBLIC	?GetCardCount@CGameLogic@@QAEEQBE@Z		; CGameLogic::GetCardCount
PUBLIC	?GetWeaveCard@CGameLogic@@QAEEEEQAE@Z		; CGameLogic::GetWeaveCard
PUBLIC	?AddKindItem@CGameLogic@@AAE_NAAUtagKindItem@@QAU2@AAEAA_N@Z ; CGameLogic::AddKindItem
PUBLIC	?AnalyseCard@CGameLogic@@AAE_NQBEQBUtagWeaveItem@@EAAV?$CWHArray@UtagAnalyseItem@@AAU1@@@@Z ; CGameLogic::AnalyseCard
PUBLIC	?IsPengPeng@CGameLogic@@IAE_NPBUtagAnalyseItem@@@Z ; CGameLogic::IsPengPeng
PUBLIC	?IsMaQi@CGameLogic@@IAE_NQBEEAAVCChiHuRight@@@Z	; CGameLogic::IsMaQi
PUBLIC	?IsShiSanLan@CGameLogic@@IAE_NQBEEAAVCChiHuRight@@@Z ; CGameLogic::IsShiSanLan
PUBLIC	?IsPingHu@CGameLogic@@IAE_NPBUtagAnalyseItem@@@Z ; CGameLogic::IsPingHu
PUBLIC	?IsJiHu@CGameLogic@@IAE_NPBUtagAnalyseItem@@@Z	; CGameLogic::IsJiHu
PUBLIC	?IsQingYiSe@CGameLogic@@IAE_NPBUtagAnalyseItem@@AA_N@Z ; CGameLogic::IsQingYiSe
PUBLIC	?IsHunYiSe@CGameLogic@@IAE_NPBUtagAnalyseItem@@@Z ; CGameLogic::IsHunYiSe
PUBLIC	??_GCGameLogic@@UAEPAXI@Z			; CGameLogic::`scalar deleting destructor'
PUBLIC	??$pow@HH@@YANHH@Z				; pow<int,int>
PUBLIC	??0?$CWHArray@UtagAnalyseItem@@AAU1@@@QAE@XZ	; CWHArray<tagAnalyseItem,tagAnalyseItem &>::CWHArray<tagAnalyseItem,tagAnalyseItem &>
PUBLIC	??1?$CWHArray@UtagAnalyseItem@@AAU1@@@UAE@XZ	; CWHArray<tagAnalyseItem,tagAnalyseItem &>::~CWHArray<tagAnalyseItem,tagAnalyseItem &>
PUBLIC	?GetCount@?$CWHArray@UtagAnalyseItem@@AAU1@@@QBEHXZ ; CWHArray<tagAnalyseItem,tagAnalyseItem &>::GetCount
PUBLIC	?Add@?$CWHArray@UtagAnalyseItem@@AAU1@@@QAEHAAUtagAnalyseItem@@@Z ; CWHArray<tagAnalyseItem,tagAnalyseItem &>::Add
PUBLIC	?SetSize@?$CWHArray@UtagAnalyseItem@@AAU1@@@QAEXH@Z ; CWHArray<tagAnalyseItem,tagAnalyseItem &>::SetSize
PUBLIC	?SetAtGrow@?$CWHArray@UtagAnalyseItem@@AAU1@@@QAEXHAAUtagAnalyseItem@@@Z ; CWHArray<tagAnalyseItem,tagAnalyseItem &>::SetAtGrow
PUBLIC	?RemoveAll@?$CWHArray@UtagAnalyseItem@@AAU1@@@QAEXXZ ; CWHArray<tagAnalyseItem,tagAnalyseItem &>::RemoveAll
PUBLIC	?AllocMemory@?$CWHArray@UtagAnalyseItem@@AAU1@@@QAEXH@Z ; CWHArray<tagAnalyseItem,tagAnalyseItem &>::AllocMemory
PUBLIC	??_G?$CWHArray@UtagAnalyseItem@@AAU1@@@UAEPAXI@Z ; CWHArray<tagAnalyseItem,tagAnalyseItem &>::`scalar deleting destructor'
PUBLIC	?atlTraceGeneral@ATL@@3V?$CTraceCategoryEx@$00$0A@@1@A ; ATL::atlTraceGeneral
PUBLIC	?atlTraceCOM@ATL@@3V?$CTraceCategoryEx@$01$0A@@1@A ; ATL::atlTraceCOM
PUBLIC	?atlTraceQI@ATL@@3V?$CTraceCategoryEx@$03$0A@@1@A ; ATL::atlTraceQI
PUBLIC	?atlTraceRegistrar@ATL@@3V?$CTraceCategoryEx@$07$0A@@1@A ; ATL::atlTraceRegistrar
PUBLIC	?atlTraceRefcount@ATL@@3V?$CTraceCategoryEx@$0BA@$0A@@1@A ; ATL::atlTraceRefcount
PUBLIC	?atlTraceWindowing@ATL@@3V?$CTraceCategoryEx@$0CA@$0A@@1@A ; ATL::atlTraceWindowing
PUBLIC	?atlTraceControls@ATL@@3V?$CTraceCategoryEx@$0EA@$0A@@1@A ; ATL::atlTraceControls
PUBLIC	?atlTraceHosting@ATL@@3V?$CTraceCategoryEx@$0IA@$0A@@1@A ; ATL::atlTraceHosting
PUBLIC	?atlTraceDBClient@ATL@@3V?$CTraceCategoryEx@$0BAA@$0A@@1@A ; ATL::atlTraceDBClient
PUBLIC	?atlTraceDBProvider@ATL@@3V?$CTraceCategoryEx@$0CAA@$0A@@1@A ; ATL::atlTraceDBProvider
PUBLIC	?atlTraceSnapin@ATL@@3V?$CTraceCategoryEx@$0EAA@$0A@@1@A ; ATL::atlTraceSnapin
PUBLIC	?atlTraceNotImpl@ATL@@3V?$CTraceCategoryEx@$0IAA@$0A@@1@A ; ATL::atlTraceNotImpl
PUBLIC	?atlTraceAllocation@ATL@@3V?$CTraceCategoryEx@$0BAAA@$0A@@1@A ; ATL::atlTraceAllocation
PUBLIC	?atlTraceException@ATL@@3V?$CTraceCategoryEx@$0CAAA@$0A@@1@A ; ATL::atlTraceException
PUBLIC	?atlTraceTime@ATL@@3V?$CTraceCategoryEx@$0EAAA@$0A@@1@A ; ATL::atlTraceTime
PUBLIC	?atlTraceCache@ATL@@3V?$CTraceCategoryEx@$0IAAA@$0A@@1@A ; ATL::atlTraceCache
PUBLIC	?atlTraceStencil@ATL@@3V?$CTraceCategoryEx@$0BAAAA@$0A@@1@A ; ATL::atlTraceStencil
PUBLIC	?atlTraceString@ATL@@3V?$CTraceCategoryEx@$0CAAAA@$0A@@1@A ; ATL::atlTraceString
PUBLIC	?atlTraceMap@ATL@@3V?$CTraceCategoryEx@$0EAAAA@$0A@@1@A ; ATL::atlTraceMap
PUBLIC	?atlTraceUtil@ATL@@3V?$CTraceCategoryEx@$0IAAAA@$0A@@1@A ; ATL::atlTraceUtil
PUBLIC	?atlTraceSecurity@ATL@@3V?$CTraceCategoryEx@$0BAAAAA@$0A@@1@A ; ATL::atlTraceSecurity
PUBLIC	?atlTraceSync@ATL@@3V?$CTraceCategoryEx@$0CAAAAA@$0A@@1@A ; ATL::atlTraceSync
PUBLIC	?atlTraceISAPI@ATL@@3V?$CTraceCategoryEx@$0EAAAAA@$0A@@1@A ; ATL::atlTraceISAPI
PUBLIC	?m_bInitFailed@CAtlBaseModule@ATL@@2_NA		; ATL::CAtlBaseModule::m_bInitFailed
PUBLIC	??_7CWin32Heap@ATL@@6B@				; ATL::CWin32Heap::`vftable'
PUBLIC	?_AtlComModule@ATL@@3VCAtlComModule@1@A		; ATL::_AtlComModule
PUBLIC	?_AtlWinModule@ATL@@3VCAtlWinModule@1@A		; ATL::_AtlWinModule
PUBLIC	?isInitialized@CAtlStringMgr@ATL@@0_NA		; ATL::CAtlStringMgr::isInitialized
PUBLIC	??_7CAtlStringMgr@ATL@@6B@			; ATL::CAtlStringMgr::`vftable'
PUBLIC	?strHeap@?1??GetInstance@CAtlStringMgr@ATL@@SAPAUIAtlStringMgr@3@XZ@4VCWin32Heap@3@A ; `ATL::CAtlStringMgr::GetInstance'::`2'::strHeap
PUBLIC	?$TSS0@?1??GetInstance@CAtlStringMgr@ATL@@SAPAUIAtlStringMgr@3@XZ@4HA ; TSS0<`template-parameter-2',ATL::CAtlStringMgr::tInstance,ATL::IAtlStringMgr * * const volatile,void,int, ?? &>
PUBLIC	?strMgr@?1??GetInstance@CAtlStringMgr@ATL@@SAPAUIAtlStringMgr@3@XZ@4V23@A ; `ATL::CAtlStringMgr::GetInstance'::`2'::strMgr
PUBLIC	?$TSS1@?1??GetInstance@CAtlStringMgr@ATL@@SAPAUIAtlStringMgr@3@XZ@4HA ; TSS1<`template-parameter-2',ATL::CAtlStringMgr::tInstance,ATL::IAtlStringMgr * * const volatile,void,int, ?? &>
PUBLIC	?isCImageStaticInitialized@CImage@ATL@@0_NA	; ATL::CImage::isCImageStaticInitialized
PUBLIC	?gdiPlus@?1??GetInitGDIPlusInstance@CImage@ATL@@CAPAVCInitGDIPlus@23@XZ@4V423@A ; `ATL::CImage::GetInitGDIPlusInstance'::`2'::gdiPlus
PUBLIC	?$TSS0@?1??GetInitGDIPlusInstance@CImage@ATL@@CAPAVCInitGDIPlus@23@XZ@4HA ; TSS0<`template-parameter-2',ATL::CImage::tInitGDIPlusInstance,signed char,ATL::CImage::CInitGDIPlus const volatile __based() &,void,int, ?? &>
PUBLIC	?cache@?1??GetCDCCacheInstance@CImage@ATL@@CAPAVCDCCache@23@XZ@4V423@A ; `ATL::CImage::GetCDCCacheInstance'::`2'::cache
PUBLIC	?$TSS0@?1??GetCDCCacheInstance@CImage@ATL@@CAPAVCDCCache@23@XZ@4HA ; TSS0<`template-parameter-2',ATL::CImage::tCDCCacheInstance,signed char,ATL::CImage::CDCCache const volatile __based() &,void,int, ?? &>
PUBLIC	??_7CGameLogic@@6B@				; CGameLogic::`vftable'
PUBLIC	??_7?$CWHArray@UtagAnalyseItem@@AAU1@@@6B@	; CWHArray<tagAnalyseItem,tagAnalyseItem &>::`vftable'
PUBLIC	??_R4CWin32Heap@ATL@@6B@			; ATL::CWin32Heap::`RTTI Complete Object Locator'
PUBLIC	??_R0?AVCWin32Heap@ATL@@@8			; ATL::CWin32Heap `RTTI Type Descriptor'
PUBLIC	??_R3CWin32Heap@ATL@@8				; ATL::CWin32Heap::`RTTI Class Hierarchy Descriptor'
PUBLIC	??_R2CWin32Heap@ATL@@8				; ATL::CWin32Heap::`RTTI Base Class Array'
PUBLIC	??_R1A@?0A@EA@CWin32Heap@ATL@@8			; ATL::CWin32Heap::`RTTI Base Class Descriptor at (0,-1,0,64)'
PUBLIC	??_R1A@?0A@EA@IAtlMemMgr@ATL@@8			; ATL::IAtlMemMgr::`RTTI Base Class Descriptor at (0,-1,0,64)'
PUBLIC	??_R0?AUIAtlMemMgr@ATL@@@8			; ATL::IAtlMemMgr `RTTI Type Descriptor'
PUBLIC	??_R3IAtlMemMgr@ATL@@8				; ATL::IAtlMemMgr::`RTTI Class Hierarchy Descriptor'
PUBLIC	??_R2IAtlMemMgr@ATL@@8				; ATL::IAtlMemMgr::`RTTI Base Class Array'
PUBLIC	??_R1A@?0A@EA@IAtlStringMgr@ATL@@8		; ATL::IAtlStringMgr::`RTTI Base Class Descriptor at (0,-1,0,64)'
PUBLIC	??_R0?AUIAtlStringMgr@ATL@@@8			; ATL::IAtlStringMgr `RTTI Type Descriptor'
PUBLIC	??_R3IAtlStringMgr@ATL@@8			; ATL::IAtlStringMgr::`RTTI Class Hierarchy Descriptor'
PUBLIC	??_R2IAtlStringMgr@ATL@@8			; ATL::IAtlStringMgr::`RTTI Base Class Array'
PUBLIC	??_R4CAtlStringMgr@ATL@@6B@			; ATL::CAtlStringMgr::`RTTI Complete Object Locator'
PUBLIC	??_R0?AVCAtlStringMgr@ATL@@@8			; ATL::CAtlStringMgr `RTTI Type Descriptor'
PUBLIC	??_R3CAtlStringMgr@ATL@@8			; ATL::CAtlStringMgr::`RTTI Class Hierarchy Descriptor'
PUBLIC	??_R2CAtlStringMgr@ATL@@8			; ATL::CAtlStringMgr::`RTTI Base Class Array'
PUBLIC	??_R1A@?0A@EA@CAtlStringMgr@ATL@@8		; ATL::CAtlStringMgr::`RTTI Base Class Descriptor at (0,-1,0,64)'
PUBLIC	??_R4?$CWHArray@UtagAnalyseItem@@AAU1@@@6B@	; CWHArray<tagAnalyseItem,tagAnalyseItem &>::`RTTI Complete Object Locator'
PUBLIC	??_R0?AV?$CWHArray@UtagAnalyseItem@@AAU1@@@@8	; CWHArray<tagAnalyseItem,tagAnalyseItem &> `RTTI Type Descriptor'
PUBLIC	??_R3?$CWHArray@UtagAnalyseItem@@AAU1@@@8	; CWHArray<tagAnalyseItem,tagAnalyseItem &>::`RTTI Class Hierarchy Descriptor'
PUBLIC	??_R2?$CWHArray@UtagAnalyseItem@@AAU1@@@8	; CWHArray<tagAnalyseItem,tagAnalyseItem &>::`RTTI Base Class Array'
PUBLIC	??_R1A@?0A@EA@?$CWHArray@UtagAnalyseItem@@AAU1@@@8 ; CWHArray<tagAnalyseItem,tagAnalyseItem &>::`RTTI Base Class Descriptor at (0,-1,0,64)'
PUBLIC	??_R4CGameLogic@@6B@				; CGameLogic::`RTTI Complete Object Locator'
PUBLIC	??_R0?AVCGameLogic@@@8				; CGameLogic `RTTI Type Descriptor'
PUBLIC	??_R3CGameLogic@@8				; CGameLogic::`RTTI Class Hierarchy Descriptor'
PUBLIC	??_R2CGameLogic@@8				; CGameLogic::`RTTI Base Class Array'
PUBLIC	??_R1A@?0A@EA@CGameLogic@@8			; CGameLogic::`RTTI Base Class Descriptor at (0,-1,0,64)'
EXTRN	??3@YAXPAXI@Z:PROC				; operator delete
EXTRN	??_U@YAPAXI@Z:PROC				; operator new[]
EXTRN	??_V@YAXPAX@Z:PROC				; operator delete[]
EXTRN	_atexit:PROC
EXTRN	___report_rangecheckfailure:PROC
EXTRN	__Init_thread_header:PROC
EXTRN	__Init_thread_footer:PROC
EXTRN	_memcpy:PROC
EXTRN	_memset:PROC
EXTRN	__imp__DecodePointer@4:PROC
EXTRN	__imp__RaiseException@16:PROC
EXTRN	__imp__GetLastError@0:PROC
EXTRN	__imp__HeapDestroy@4:PROC
EXTRN	__imp__HeapAlloc@12:PROC
EXTRN	__imp__HeapReAlloc@16:PROC
EXTRN	__imp__HeapFree@12:PROC
EXTRN	__imp__HeapSize@12:PROC
EXTRN	__imp__GetProcessHeap@0:PROC
EXTRN	__imp__EnterCriticalSection@4:PROC
EXTRN	__imp__LeaveCriticalSection@4:PROC
EXTRN	__imp__InitializeCriticalSectionAndSpinCount@8:PROC
EXTRN	__imp__DeleteCriticalSection@4:PROC
EXTRN	__imp__DeleteDC@4:PROC
EXTRN	__imp__UnregisterClassW@8:PROC
EXTRN	__imp__free:PROC
EXTRN	__imp__rand:PROC
EXTRN	?AfxThrowInvalidArgException@@YGXXZ:PROC	; AfxThrowInvalidArgException
EXTRN	??_ECWin32Heap@ATL@@UAEPAXI@Z:PROC		; ATL::CWin32Heap::`vector deleting destructor'
EXTRN	_pow:PROC
EXTRN	??_ECAtlStringMgr@ATL@@UAEPAXI@Z:PROC		; ATL::CAtlStringMgr::`vector deleting destructor'
EXTRN	_GdiplusShutdown@4:PROC
EXTRN	??_ECGameLogic@@UAEPAXI@Z:PROC			; CGameLogic::`vector deleting destructor'
EXTRN	??_E?$CWHArray@UtagAnalyseItem@@AAU1@@@UAEPAXI@Z:PROC ; CWHArray<tagAnalyseItem,tagAnalyseItem &>::`vector deleting destructor'
EXTRN	@__security_check_cookie@4:PROC
EXTRN	___CxxFrameHandler3:PROC
EXTRN	__dtoui3:PROC
EXTRN	__Init_thread_epoch:DWORD
EXTRN	?_AtlBaseModule@ATL@@3VCAtlBaseModule@1@A:BYTE	; ATL::_AtlBaseModule
EXTRN	??_7type_info@@6B@:QWORD			; type_info::`vftable'
EXTRN	___ImageBase:BYTE
EXTRN	___security_cookie:DWORD
EXTRN	__fltused:DWORD
EXTRN	__tls_array:DWORD
EXTRN	__tls_index:DWORD
;	COMDAT ?atlTraceGeneral@ATL@@3V?$CTraceCategoryEx@$00$0A@@1@A
_BSS	SEGMENT
?atlTraceGeneral@ATL@@3V?$CTraceCategoryEx@$00$0A@@1@A DD 01H DUP (?) ; ATL::atlTraceGeneral
_BSS	ENDS
;	COMDAT ?atlTraceCOM@ATL@@3V?$CTraceCategoryEx@$01$0A@@1@A
_BSS	SEGMENT
?atlTraceCOM@ATL@@3V?$CTraceCategoryEx@$01$0A@@1@A DD 01H DUP (?) ; ATL::atlTraceCOM
_BSS	ENDS
;	COMDAT ?atlTraceQI@ATL@@3V?$CTraceCategoryEx@$03$0A@@1@A
_BSS	SEGMENT
?atlTraceQI@ATL@@3V?$CTraceCategoryEx@$03$0A@@1@A DD 01H DUP (?) ; ATL::atlTraceQI
_BSS	ENDS
;	COMDAT ?atlTraceRegistrar@ATL@@3V?$CTraceCategoryEx@$07$0A@@1@A
_BSS	SEGMENT
?atlTraceRegistrar@ATL@@3V?$CTraceCategoryEx@$07$0A@@1@A DD 01H DUP (?) ; ATL::atlTraceRegistrar
_BSS	ENDS
;	COMDAT ?atlTraceRefcount@ATL@@3V?$CTraceCategoryEx@$0BA@$0A@@1@A
_BSS	SEGMENT
?atlTraceRefcount@ATL@@3V?$CTraceCategoryEx@$0BA@$0A@@1@A DD 01H DUP (?) ; ATL::atlTraceRefcount
_BSS	ENDS
;	COMDAT ?atlTraceWindowing@ATL@@3V?$CTraceCategoryEx@$0CA@$0A@@1@A
_BSS	SEGMENT
?atlTraceWindowing@ATL@@3V?$CTraceCategoryEx@$0CA@$0A@@1@A DD 01H DUP (?) ; ATL::atlTraceWindowing
_BSS	ENDS
;	COMDAT ?atlTraceControls@ATL@@3V?$CTraceCategoryEx@$0EA@$0A@@1@A
_BSS	SEGMENT
?atlTraceControls@ATL@@3V?$CTraceCategoryEx@$0EA@$0A@@1@A DD 01H DUP (?) ; ATL::atlTraceControls
_BSS	ENDS
;	COMDAT ?atlTraceHosting@ATL@@3V?$CTraceCategoryEx@$0IA@$0A@@1@A
_BSS	SEGMENT
?atlTraceHosting@ATL@@3V?$CTraceCategoryEx@$0IA@$0A@@1@A DD 01H DUP (?) ; ATL::atlTraceHosting
_BSS	ENDS
;	COMDAT ?atlTraceDBClient@ATL@@3V?$CTraceCategoryEx@$0BAA@$0A@@1@A
_BSS	SEGMENT
?atlTraceDBClient@ATL@@3V?$CTraceCategoryEx@$0BAA@$0A@@1@A DD 01H DUP (?) ; ATL::atlTraceDBClient
_BSS	ENDS
;	COMDAT ?atlTraceDBProvider@ATL@@3V?$CTraceCategoryEx@$0CAA@$0A@@1@A
_BSS	SEGMENT
?atlTraceDBProvider@ATL@@3V?$CTraceCategoryEx@$0CAA@$0A@@1@A DD 01H DUP (?) ; ATL::atlTraceDBProvider
_BSS	ENDS
;	COMDAT ?atlTraceSnapin@ATL@@3V?$CTraceCategoryEx@$0EAA@$0A@@1@A
_BSS	SEGMENT
?atlTraceSnapin@ATL@@3V?$CTraceCategoryEx@$0EAA@$0A@@1@A DD 01H DUP (?) ; ATL::atlTraceSnapin
_BSS	ENDS
;	COMDAT ?atlTraceNotImpl@ATL@@3V?$CTraceCategoryEx@$0IAA@$0A@@1@A
_BSS	SEGMENT
?atlTraceNotImpl@ATL@@3V?$CTraceCategoryEx@$0IAA@$0A@@1@A DD 01H DUP (?) ; ATL::atlTraceNotImpl
_BSS	ENDS
;	COMDAT ?atlTraceAllocation@ATL@@3V?$CTraceCategoryEx@$0BAAA@$0A@@1@A
_BSS	SEGMENT
?atlTraceAllocation@ATL@@3V?$CTraceCategoryEx@$0BAAA@$0A@@1@A DD 01H DUP (?) ; ATL::atlTraceAllocation
_BSS	ENDS
;	COMDAT ?atlTraceException@ATL@@3V?$CTraceCategoryEx@$0CAAA@$0A@@1@A
_BSS	SEGMENT
?atlTraceException@ATL@@3V?$CTraceCategoryEx@$0CAAA@$0A@@1@A DD 01H DUP (?) ; ATL::atlTraceException
_BSS	ENDS
;	COMDAT ?atlTraceTime@ATL@@3V?$CTraceCategoryEx@$0EAAA@$0A@@1@A
_BSS	SEGMENT
?atlTraceTime@ATL@@3V?$CTraceCategoryEx@$0EAAA@$0A@@1@A DD 01H DUP (?) ; ATL::atlTraceTime
_BSS	ENDS
;	COMDAT ?atlTraceCache@ATL@@3V?$CTraceCategoryEx@$0IAAA@$0A@@1@A
_BSS	SEGMENT
?atlTraceCache@ATL@@3V?$CTraceCategoryEx@$0IAAA@$0A@@1@A DD 01H DUP (?) ; ATL::atlTraceCache
_BSS	ENDS
;	COMDAT ?atlTraceStencil@ATL@@3V?$CTraceCategoryEx@$0BAAAA@$0A@@1@A
_BSS	SEGMENT
?atlTraceStencil@ATL@@3V?$CTraceCategoryEx@$0BAAAA@$0A@@1@A DD 01H DUP (?) ; ATL::atlTraceStencil
_BSS	ENDS
;	COMDAT ?atlTraceString@ATL@@3V?$CTraceCategoryEx@$0CAAAA@$0A@@1@A
_BSS	SEGMENT
?atlTraceString@ATL@@3V?$CTraceCategoryEx@$0CAAAA@$0A@@1@A DD 01H DUP (?) ; ATL::atlTraceString
_BSS	ENDS
;	COMDAT ?atlTraceMap@ATL@@3V?$CTraceCategoryEx@$0EAAAA@$0A@@1@A
_BSS	SEGMENT
?atlTraceMap@ATL@@3V?$CTraceCategoryEx@$0EAAAA@$0A@@1@A DD 01H DUP (?) ; ATL::atlTraceMap
_BSS	ENDS
;	COMDAT ?atlTraceUtil@ATL@@3V?$CTraceCategoryEx@$0IAAAA@$0A@@1@A
_BSS	SEGMENT
?atlTraceUtil@ATL@@3V?$CTraceCategoryEx@$0IAAAA@$0A@@1@A DD 01H DUP (?) ; ATL::atlTraceUtil
_BSS	ENDS
;	COMDAT ?atlTraceSecurity@ATL@@3V?$CTraceCategoryEx@$0BAAAAA@$0A@@1@A
_BSS	SEGMENT
?atlTraceSecurity@ATL@@3V?$CTraceCategoryEx@$0BAAAAA@$0A@@1@A DD 01H DUP (?) ; ATL::atlTraceSecurity
_BSS	ENDS
;	COMDAT ?atlTraceSync@ATL@@3V?$CTraceCategoryEx@$0CAAAAA@$0A@@1@A
_BSS	SEGMENT
?atlTraceSync@ATL@@3V?$CTraceCategoryEx@$0CAAAAA@$0A@@1@A DD 01H DUP (?) ; ATL::atlTraceSync
_BSS	ENDS
;	COMDAT ?atlTraceISAPI@ATL@@3V?$CTraceCategoryEx@$0EAAAAA@$0A@@1@A
_BSS	SEGMENT
?atlTraceISAPI@ATL@@3V?$CTraceCategoryEx@$0EAAAAA@$0A@@1@A DD 01H DUP (?) ; ATL::atlTraceISAPI
_BSS	ENDS
;	COMDAT ?m_bInitFailed@CAtlBaseModule@ATL@@2_NA
_BSS	SEGMENT
?m_bInitFailed@CAtlBaseModule@ATL@@2_NA DB 01H DUP (?)	; ATL::CAtlBaseModule::m_bInitFailed
_BSS	ENDS
;	COMDAT ?_AtlComModule@ATL@@3VCAtlComModule@1@A
_BSS	SEGMENT
?_AtlComModule@ATL@@3VCAtlComModule@1@A DB 028H DUP (?)	; ATL::_AtlComModule
_BSS	ENDS
;	COMDAT ?_AtlWinModule@ATL@@3VCAtlWinModule@1@A
_BSS	SEGMENT
?_AtlWinModule@ATL@@3VCAtlWinModule@1@A DB 02cH DUP (?)	; ATL::_AtlWinModule
_BSS	ENDS
;	COMDAT ?isInitialized@CAtlStringMgr@ATL@@0_NA
_BSS	SEGMENT
?isInitialized@CAtlStringMgr@ATL@@0_NA DB 01H DUP (?)	; ATL::CAtlStringMgr::isInitialized
_BSS	ENDS
;	COMDAT ?strHeap@?1??GetInstance@CAtlStringMgr@ATL@@SAPAUIAtlStringMgr@3@XZ@4VCWin32Heap@3@A
_BSS	SEGMENT
?strHeap@?1??GetInstance@CAtlStringMgr@ATL@@SAPAUIAtlStringMgr@3@XZ@4VCWin32Heap@3@A DB 0cH DUP (?) ; `ATL::CAtlStringMgr::GetInstance'::`2'::strHeap
_BSS	ENDS
;	COMDAT ?$TSS0@?1??GetInstance@CAtlStringMgr@ATL@@SAPAUIAtlStringMgr@3@XZ@4HA
_BSS	SEGMENT
?$TSS0@?1??GetInstance@CAtlStringMgr@ATL@@SAPAUIAtlStringMgr@3@XZ@4HA DD 01H DUP (?) ; TSS0<`template-parameter-2',ATL::CAtlStringMgr::tInstance,ATL::IAtlStringMgr * * const volatile,void,int, ?? &>
_BSS	ENDS
;	COMDAT ?strMgr@?1??GetInstance@CAtlStringMgr@ATL@@SAPAUIAtlStringMgr@3@XZ@4V23@A
_BSS	SEGMENT
?strMgr@?1??GetInstance@CAtlStringMgr@ATL@@SAPAUIAtlStringMgr@3@XZ@4V23@A DB 01cH DUP (?) ; `ATL::CAtlStringMgr::GetInstance'::`2'::strMgr
_BSS	ENDS
;	COMDAT ?$TSS1@?1??GetInstance@CAtlStringMgr@ATL@@SAPAUIAtlStringMgr@3@XZ@4HA
_BSS	SEGMENT
?$TSS1@?1??GetInstance@CAtlStringMgr@ATL@@SAPAUIAtlStringMgr@3@XZ@4HA DD 01H DUP (?) ; TSS1<`template-parameter-2',ATL::CAtlStringMgr::tInstance,ATL::IAtlStringMgr * * const volatile,void,int, ?? &>
_BSS	ENDS
;	COMDAT ?isCImageStaticInitialized@CImage@ATL@@0_NA
_BSS	SEGMENT
?isCImageStaticInitialized@CImage@ATL@@0_NA DB 01H DUP (?) ; ATL::CImage::isCImageStaticInitialized
_BSS	ENDS
;	COMDAT ?gdiPlus@?1??GetInitGDIPlusInstance@CImage@ATL@@CAPAVCInitGDIPlus@23@XZ@4V423@A
_BSS	SEGMENT
?gdiPlus@?1??GetInitGDIPlusInstance@CImage@ATL@@CAPAVCInitGDIPlus@23@XZ@4V423@A DB 024H DUP (?) ; `ATL::CImage::GetInitGDIPlusInstance'::`2'::gdiPlus
_BSS	ENDS
;	COMDAT ?$TSS0@?1??GetInitGDIPlusInstance@CImage@ATL@@CAPAVCInitGDIPlus@23@XZ@4HA
_BSS	SEGMENT
?$TSS0@?1??GetInitGDIPlusInstance@CImage@ATL@@CAPAVCInitGDIPlus@23@XZ@4HA DD 01H DUP (?) ; TSS0<`template-parameter-2',ATL::CImage::tInitGDIPlusInstance,signed char,ATL::CImage::CInitGDIPlus const volatile __based() &,void,int, ?? &>
_BSS	ENDS
;	COMDAT ?cache@?1??GetCDCCacheInstance@CImage@ATL@@CAPAVCDCCache@23@XZ@4V423@A
_BSS	SEGMENT
?cache@?1??GetCDCCacheInstance@CImage@ATL@@CAPAVCDCCache@23@XZ@4V423@A DB 010H DUP (?) ; `ATL::CImage::GetCDCCacheInstance'::`2'::cache
_BSS	ENDS
;	COMDAT ?$TSS0@?1??GetCDCCacheInstance@CImage@ATL@@CAPAVCDCCache@23@XZ@4HA
_BSS	SEGMENT
?$TSS0@?1??GetCDCCacheInstance@CImage@ATL@@CAPAVCDCCache@23@XZ@4HA DD 01H DUP (?) ; TSS0<`template-parameter-2',ATL::CImage::tCDCCacheInstance,signed char,ATL::CImage::CDCCache const volatile __based() &,void,int, ?? &>
_BSS	ENDS
;	COMDAT CRT$XCU
CRT$XCU	SEGMENT
?atlTraceGeneral$initializer$@ATL@@3P6AXXZA DD FLAT:??__EatlTraceGeneral@ATL@@YAXXZ ; ATL::atlTraceGeneral$initializer$
CRT$XCU	ENDS
;	COMDAT ??_R1A@?0A@EA@CGameLogic@@8
rdata$r	SEGMENT
??_R1A@?0A@EA@CGameLogic@@8 DD FLAT:??_R0?AVCGameLogic@@@8 ; CGameLogic::`RTTI Base Class Descriptor at (0,-1,0,64)'
	DD	00H
	DD	00H
	DD	0ffffffffH
	DD	00H
	DD	040H
	DD	FLAT:??_R3CGameLogic@@8
rdata$r	ENDS
;	COMDAT ??_R2CGameLogic@@8
rdata$r	SEGMENT
??_R2CGameLogic@@8 DD FLAT:??_R1A@?0A@EA@CGameLogic@@8	; CGameLogic::`RTTI Base Class Array'
rdata$r	ENDS
;	COMDAT ??_R3CGameLogic@@8
rdata$r	SEGMENT
??_R3CGameLogic@@8 DD 00H				; CGameLogic::`RTTI Class Hierarchy Descriptor'
	DD	00H
	DD	01H
	DD	FLAT:??_R2CGameLogic@@8
rdata$r	ENDS
;	COMDAT ??_R0?AVCGameLogic@@@8
data$r	SEGMENT
??_R0?AVCGameLogic@@@8 DD FLAT:??_7type_info@@6B@	; CGameLogic `RTTI Type Descriptor'
	DD	00H
	DB	'.?AVCGameLogic@@', 00H
data$r	ENDS
;	COMDAT ??_R4CGameLogic@@6B@
rdata$r	SEGMENT
??_R4CGameLogic@@6B@ DD 00H				; CGameLogic::`RTTI Complete Object Locator'
	DD	00H
	DD	00H
	DD	FLAT:??_R0?AVCGameLogic@@@8
	DD	FLAT:??_R3CGameLogic@@8
rdata$r	ENDS
;	COMDAT ??_R1A@?0A@EA@?$CWHArray@UtagAnalyseItem@@AAU1@@@8
rdata$r	SEGMENT
??_R1A@?0A@EA@?$CWHArray@UtagAnalyseItem@@AAU1@@@8 DD FLAT:??_R0?AV?$CWHArray@UtagAnalyseItem@@AAU1@@@@8 ; CWHArray<tagAnalyseItem,tagAnalyseItem &>::`RTTI Base Class Descriptor at (0,-1,0,64)'
	DD	00H
	DD	00H
	DD	0ffffffffH
	DD	00H
	DD	040H
	DD	FLAT:??_R3?$CWHArray@UtagAnalyseItem@@AAU1@@@8
rdata$r	ENDS
;	COMDAT ??_R2?$CWHArray@UtagAnalyseItem@@AAU1@@@8
rdata$r	SEGMENT
??_R2?$CWHArray@UtagAnalyseItem@@AAU1@@@8 DD FLAT:??_R1A@?0A@EA@?$CWHArray@UtagAnalyseItem@@AAU1@@@8 ; CWHArray<tagAnalyseItem,tagAnalyseItem &>::`RTTI Base Class Array'
rdata$r	ENDS
;	COMDAT ??_R3?$CWHArray@UtagAnalyseItem@@AAU1@@@8
rdata$r	SEGMENT
??_R3?$CWHArray@UtagAnalyseItem@@AAU1@@@8 DD 00H	; CWHArray<tagAnalyseItem,tagAnalyseItem &>::`RTTI Class Hierarchy Descriptor'
	DD	00H
	DD	01H
	DD	FLAT:??_R2?$CWHArray@UtagAnalyseItem@@AAU1@@@8
rdata$r	ENDS
;	COMDAT ??_R0?AV?$CWHArray@UtagAnalyseItem@@AAU1@@@@8
data$r	SEGMENT
??_R0?AV?$CWHArray@UtagAnalyseItem@@AAU1@@@@8 DD FLAT:??_7type_info@@6B@ ; CWHArray<tagAnalyseItem,tagAnalyseItem &> `RTTI Type Descriptor'
	DD	00H
	DB	'.?AV?$CWHArray@UtagAnalyseItem@@AAU1@@@', 00H
data$r	ENDS
;	COMDAT ??_R4?$CWHArray@UtagAnalyseItem@@AAU1@@@6B@
rdata$r	SEGMENT
??_R4?$CWHArray@UtagAnalyseItem@@AAU1@@@6B@ DD 00H	; CWHArray<tagAnalyseItem,tagAnalyseItem &>::`RTTI Complete Object Locator'
	DD	00H
	DD	00H
	DD	FLAT:??_R0?AV?$CWHArray@UtagAnalyseItem@@AAU1@@@@8
	DD	FLAT:??_R3?$CWHArray@UtagAnalyseItem@@AAU1@@@8
rdata$r	ENDS
;	COMDAT ??_R1A@?0A@EA@CAtlStringMgr@ATL@@8
rdata$r	SEGMENT
??_R1A@?0A@EA@CAtlStringMgr@ATL@@8 DD FLAT:??_R0?AVCAtlStringMgr@ATL@@@8 ; ATL::CAtlStringMgr::`RTTI Base Class Descriptor at (0,-1,0,64)'
	DD	01H
	DD	00H
	DD	0ffffffffH
	DD	00H
	DD	040H
	DD	FLAT:??_R3CAtlStringMgr@ATL@@8
rdata$r	ENDS
;	COMDAT ??_R2CAtlStringMgr@ATL@@8
rdata$r	SEGMENT
??_R2CAtlStringMgr@ATL@@8 DD FLAT:??_R1A@?0A@EA@CAtlStringMgr@ATL@@8 ; ATL::CAtlStringMgr::`RTTI Base Class Array'
	DD	FLAT:??_R1A@?0A@EA@IAtlStringMgr@ATL@@8
rdata$r	ENDS
;	COMDAT ??_R3CAtlStringMgr@ATL@@8
rdata$r	SEGMENT
??_R3CAtlStringMgr@ATL@@8 DD 00H			; ATL::CAtlStringMgr::`RTTI Class Hierarchy Descriptor'
	DD	00H
	DD	02H
	DD	FLAT:??_R2CAtlStringMgr@ATL@@8
rdata$r	ENDS
;	COMDAT ??_R0?AVCAtlStringMgr@ATL@@@8
data$r	SEGMENT
??_R0?AVCAtlStringMgr@ATL@@@8 DD FLAT:??_7type_info@@6B@ ; ATL::CAtlStringMgr `RTTI Type Descriptor'
	DD	00H
	DB	'.?AVCAtlStringMgr@ATL@@', 00H
data$r	ENDS
;	COMDAT ??_R4CAtlStringMgr@ATL@@6B@
rdata$r	SEGMENT
??_R4CAtlStringMgr@ATL@@6B@ DD 00H			; ATL::CAtlStringMgr::`RTTI Complete Object Locator'
	DD	00H
	DD	00H
	DD	FLAT:??_R0?AVCAtlStringMgr@ATL@@@8
	DD	FLAT:??_R3CAtlStringMgr@ATL@@8
rdata$r	ENDS
;	COMDAT ??_R2IAtlStringMgr@ATL@@8
rdata$r	SEGMENT
??_R2IAtlStringMgr@ATL@@8 DD FLAT:??_R1A@?0A@EA@IAtlStringMgr@ATL@@8 ; ATL::IAtlStringMgr::`RTTI Base Class Array'
rdata$r	ENDS
;	COMDAT ??_R3IAtlStringMgr@ATL@@8
rdata$r	SEGMENT
??_R3IAtlStringMgr@ATL@@8 DD 00H			; ATL::IAtlStringMgr::`RTTI Class Hierarchy Descriptor'
	DD	00H
	DD	01H
	DD	FLAT:??_R2IAtlStringMgr@ATL@@8
rdata$r	ENDS
;	COMDAT ??_R0?AUIAtlStringMgr@ATL@@@8
data$r	SEGMENT
??_R0?AUIAtlStringMgr@ATL@@@8 DD FLAT:??_7type_info@@6B@ ; ATL::IAtlStringMgr `RTTI Type Descriptor'
	DD	00H
	DB	'.?AUIAtlStringMgr@ATL@@', 00H
data$r	ENDS
;	COMDAT ??_R1A@?0A@EA@IAtlStringMgr@ATL@@8
rdata$r	SEGMENT
??_R1A@?0A@EA@IAtlStringMgr@ATL@@8 DD FLAT:??_R0?AUIAtlStringMgr@ATL@@@8 ; ATL::IAtlStringMgr::`RTTI Base Class Descriptor at (0,-1,0,64)'
	DD	00H
	DD	00H
	DD	0ffffffffH
	DD	00H
	DD	040H
	DD	FLAT:??_R3IAtlStringMgr@ATL@@8
rdata$r	ENDS
;	COMDAT ??_R2IAtlMemMgr@ATL@@8
rdata$r	SEGMENT
??_R2IAtlMemMgr@ATL@@8 DD FLAT:??_R1A@?0A@EA@IAtlMemMgr@ATL@@8 ; ATL::IAtlMemMgr::`RTTI Base Class Array'
rdata$r	ENDS
;	COMDAT ??_R3IAtlMemMgr@ATL@@8
rdata$r	SEGMENT
??_R3IAtlMemMgr@ATL@@8 DD 00H				; ATL::IAtlMemMgr::`RTTI Class Hierarchy Descriptor'
	DD	00H
	DD	01H
	DD	FLAT:??_R2IAtlMemMgr@ATL@@8
rdata$r	ENDS
;	COMDAT ??_R0?AUIAtlMemMgr@ATL@@@8
data$r	SEGMENT
??_R0?AUIAtlMemMgr@ATL@@@8 DD FLAT:??_7type_info@@6B@	; ATL::IAtlMemMgr `RTTI Type Descriptor'
	DD	00H
	DB	'.?AUIAtlMemMgr@ATL@@', 00H
data$r	ENDS
;	COMDAT ??_R1A@?0A@EA@IAtlMemMgr@ATL@@8
rdata$r	SEGMENT
??_R1A@?0A@EA@IAtlMemMgr@ATL@@8 DD FLAT:??_R0?AUIAtlMemMgr@ATL@@@8 ; ATL::IAtlMemMgr::`RTTI Base Class Descriptor at (0,-1,0,64)'
	DD	00H
	DD	00H
	DD	0ffffffffH
	DD	00H
	DD	040H
	DD	FLAT:??_R3IAtlMemMgr@ATL@@8
rdata$r	ENDS
;	COMDAT ??_R1A@?0A@EA@CWin32Heap@ATL@@8
rdata$r	SEGMENT
??_R1A@?0A@EA@CWin32Heap@ATL@@8 DD FLAT:??_R0?AVCWin32Heap@ATL@@@8 ; ATL::CWin32Heap::`RTTI Base Class Descriptor at (0,-1,0,64)'
	DD	01H
	DD	00H
	DD	0ffffffffH
	DD	00H
	DD	040H
	DD	FLAT:??_R3CWin32Heap@ATL@@8
rdata$r	ENDS
;	COMDAT ??_R2CWin32Heap@ATL@@8
rdata$r	SEGMENT
??_R2CWin32Heap@ATL@@8 DD FLAT:??_R1A@?0A@EA@CWin32Heap@ATL@@8 ; ATL::CWin32Heap::`RTTI Base Class Array'
	DD	FLAT:??_R1A@?0A@EA@IAtlMemMgr@ATL@@8
rdata$r	ENDS
;	COMDAT ??_R3CWin32Heap@ATL@@8
rdata$r	SEGMENT
??_R3CWin32Heap@ATL@@8 DD 00H				; ATL::CWin32Heap::`RTTI Class Hierarchy Descriptor'
	DD	00H
	DD	02H
	DD	FLAT:??_R2CWin32Heap@ATL@@8
rdata$r	ENDS
;	COMDAT ??_R0?AVCWin32Heap@ATL@@@8
data$r	SEGMENT
??_R0?AVCWin32Heap@ATL@@@8 DD FLAT:??_7type_info@@6B@	; ATL::CWin32Heap `RTTI Type Descriptor'
	DD	00H
	DB	'.?AVCWin32Heap@ATL@@', 00H
data$r	ENDS
;	COMDAT ??_R4CWin32Heap@ATL@@6B@
rdata$r	SEGMENT
??_R4CWin32Heap@ATL@@6B@ DD 00H				; ATL::CWin32Heap::`RTTI Complete Object Locator'
	DD	00H
	DD	00H
	DD	FLAT:??_R0?AVCWin32Heap@ATL@@@8
	DD	FLAT:??_R3CWin32Heap@ATL@@8
rdata$r	ENDS
;	COMDAT ??_7?$CWHArray@UtagAnalyseItem@@AAU1@@@6B@
CONST	SEGMENT
??_7?$CWHArray@UtagAnalyseItem@@AAU1@@@6B@ DD FLAT:??_R4?$CWHArray@UtagAnalyseItem@@AAU1@@@6B@ ; CWHArray<tagAnalyseItem,tagAnalyseItem &>::`vftable'
	DD	FLAT:??_E?$CWHArray@UtagAnalyseItem@@AAU1@@@UAEPAXI@Z
CONST	ENDS
;	COMDAT ??_7CGameLogic@@6B@
CONST	SEGMENT
??_7CGameLogic@@6B@ DD FLAT:??_R4CGameLogic@@6B@	; CGameLogic::`vftable'
	DD	FLAT:??_ECGameLogic@@UAEPAXI@Z
CONST	ENDS
;	COMDAT ??_7CAtlStringMgr@ATL@@6B@
CONST	SEGMENT
??_7CAtlStringMgr@ATL@@6B@ DD FLAT:??_R4CAtlStringMgr@ATL@@6B@ ; ATL::CAtlStringMgr::`vftable'
	DD	FLAT:?Allocate@CAtlStringMgr@ATL@@UAEPAUCStringData@2@HH@Z
	DD	FLAT:?Free@CAtlStringMgr@ATL@@UAEXPAUCStringData@2@@Z
	DD	FLAT:?Reallocate@CAtlStringMgr@ATL@@UAEPAUCStringData@2@PAU32@HH@Z
	DD	FLAT:?GetNilString@CAtlStringMgr@ATL@@UAEPAUCStringData@2@XZ
	DD	FLAT:?Clone@CAtlStringMgr@ATL@@UAEPAUIAtlStringMgr@2@XZ
	DD	FLAT:??_ECAtlStringMgr@ATL@@UAEPAXI@Z
CONST	ENDS
;	COMDAT ??_7CWin32Heap@ATL@@6B@
CONST	SEGMENT
??_7CWin32Heap@ATL@@6B@ DD FLAT:??_R4CWin32Heap@ATL@@6B@ ; ATL::CWin32Heap::`vftable'
	DD	FLAT:?Allocate@CWin32Heap@ATL@@UAEPAXI@Z
	DD	FLAT:?Free@CWin32Heap@ATL@@UAEXPAX@Z
	DD	FLAT:?Reallocate@CWin32Heap@ATL@@UAEPAXPAXI@Z
	DD	FLAT:?GetSize@CWin32Heap@ATL@@UAEIPAX@Z
	DD	FLAT:??_ECWin32Heap@ATL@@UAEPAXI@Z
CONST	ENDS
xdata$x	SEGMENT
__unwindtable$?AnalyseChiHuCard@CGameLogic@@QAEEQBEQBUtagWeaveItem@@EEAAVCChiHuRight@@_N@Z DD 0ffffffffH
	DD	FLAT:__unwindfunclet$?AnalyseChiHuCard@CGameLogic@@QAEEQBEQBUtagWeaveItem@@EEAAVCChiHuRight@@_N@Z$0
__ehfuncinfo$?AnalyseChiHuCard@CGameLogic@@QAEEQBEQBUtagWeaveItem@@EEAAVCChiHuRight@@_N@Z DD 019930522H
	DD	01H
	DD	FLAT:__unwindtable$?AnalyseChiHuCard@CGameLogic@@QAEEQBEQBUtagWeaveItem@@EEAAVCChiHuRight@@_N@Z
	DD	2 DUP(00H)
	DD	2 DUP(00H)
	DD	00H
	DD	01H
xdata$x	ENDS
;	COMDAT xdata$x
xdata$x	SEGMENT
__ehfuncinfo$??1CAtlWinModule@ATL@@QAE@XZ DD 019930522H
	DD	00H
	DD	00H
	DD	2 DUP(00H)
	DD	2 DUP(00H)
	DD	00H
	DD	05H
xdata$x	ENDS
;	COMDAT xdata$x
xdata$x	SEGMENT
__ehfuncinfo$??1CAtlComModule@ATL@@QAE@XZ DD 019930522H
	DD	00H
	DD	00H
	DD	2 DUP(00H)
	DD	2 DUP(00H)
	DD	00H
	DD	05H
xdata$x	ENDS
;	COMDAT xdata$x
xdata$x	SEGMENT
__unwindtable$??0_ATL_WIN_MODULE70@ATL@@QAE@XZ DD 0ffffffffH
	DD	FLAT:__unwindfunclet$??0_ATL_WIN_MODULE70@ATL@@QAE@XZ$0
__ehfuncinfo$??0_ATL_WIN_MODULE70@ATL@@QAE@XZ DD 019930522H
	DD	01H
	DD	FLAT:__unwindtable$??0_ATL_WIN_MODULE70@ATL@@QAE@XZ
	DD	2 DUP(00H)
	DD	2 DUP(00H)
	DD	00H
	DD	01H
xdata$x	ENDS
;	COMDAT xdata$x
xdata$x	SEGMENT
__ehfuncinfo$??1?$CSimpleArray@GV?$CSimpleArrayEqualHelper@G@ATL@@@ATL@@QAE@XZ DD 019930522H
	DD	00H
	DD	00H
	DD	2 DUP(00H)
	DD	2 DUP(00H)
	DD	00H
	DD	05H
xdata$x	ENDS
;	COMDAT CRT$XCU
CRT$XCU	SEGMENT
?atlTraceCOM$initializer$@ATL@@3P6AXXZA DD FLAT:??__EatlTraceCOM@ATL@@YAXXZ ; ATL::atlTraceCOM$initializer$
CRT$XCU	ENDS
;	COMDAT CRT$XCU
CRT$XCU	SEGMENT
?atlTraceQI$initializer$@ATL@@3P6AXXZA DD FLAT:??__EatlTraceQI@ATL@@YAXXZ ; ATL::atlTraceQI$initializer$
CRT$XCU	ENDS
;	COMDAT CRT$XCU
CRT$XCU	SEGMENT
?atlTraceRegistrar$initializer$@ATL@@3P6AXXZA DD FLAT:??__EatlTraceRegistrar@ATL@@YAXXZ ; ATL::atlTraceRegistrar$initializer$
CRT$XCU	ENDS
;	COMDAT CRT$XCU
CRT$XCU	SEGMENT
?atlTraceRefcount$initializer$@ATL@@3P6AXXZA DD FLAT:??__EatlTraceRefcount@ATL@@YAXXZ ; ATL::atlTraceRefcount$initializer$
CRT$XCU	ENDS
;	COMDAT CRT$XCU
CRT$XCU	SEGMENT
?atlTraceWindowing$initializer$@ATL@@3P6AXXZA DD FLAT:??__EatlTraceWindowing@ATL@@YAXXZ ; ATL::atlTraceWindowing$initializer$
CRT$XCU	ENDS
;	COMDAT CRT$XCU
CRT$XCU	SEGMENT
?atlTraceControls$initializer$@ATL@@3P6AXXZA DD FLAT:??__EatlTraceControls@ATL@@YAXXZ ; ATL::atlTraceControls$initializer$
CRT$XCU	ENDS
;	COMDAT CRT$XCU
CRT$XCU	SEGMENT
?atlTraceHosting$initializer$@ATL@@3P6AXXZA DD FLAT:??__EatlTraceHosting@ATL@@YAXXZ ; ATL::atlTraceHosting$initializer$
CRT$XCU	ENDS
;	COMDAT CRT$XCU
CRT$XCU	SEGMENT
?atlTraceDBClient$initializer$@ATL@@3P6AXXZA DD FLAT:??__EatlTraceDBClient@ATL@@YAXXZ ; ATL::atlTraceDBClient$initializer$
CRT$XCU	ENDS
;	COMDAT CRT$XCU
CRT$XCU	SEGMENT
?atlTraceDBProvider$initializer$@ATL@@3P6AXXZA DD FLAT:??__EatlTraceDBProvider@ATL@@YAXXZ ; ATL::atlTraceDBProvider$initializer$
CRT$XCU	ENDS
;	COMDAT CRT$XCU
CRT$XCU	SEGMENT
?atlTraceSnapin$initializer$@ATL@@3P6AXXZA DD FLAT:??__EatlTraceSnapin@ATL@@YAXXZ ; ATL::atlTraceSnapin$initializer$
CRT$XCU	ENDS
;	COMDAT CRT$XCU
CRT$XCU	SEGMENT
?atlTraceNotImpl$initializer$@ATL@@3P6AXXZA DD FLAT:??__EatlTraceNotImpl@ATL@@YAXXZ ; ATL::atlTraceNotImpl$initializer$
CRT$XCU	ENDS
;	COMDAT CRT$XCU
CRT$XCU	SEGMENT
?atlTraceAllocation$initializer$@ATL@@3P6AXXZA DD FLAT:??__EatlTraceAllocation@ATL@@YAXXZ ; ATL::atlTraceAllocation$initializer$
CRT$XCU	ENDS
;	COMDAT CRT$XCU
CRT$XCU	SEGMENT
?atlTraceException$initializer$@ATL@@3P6AXXZA DD FLAT:??__EatlTraceException@ATL@@YAXXZ ; ATL::atlTraceException$initializer$
CRT$XCU	ENDS
;	COMDAT CRT$XCU
CRT$XCU	SEGMENT
?atlTraceTime$initializer$@ATL@@3P6AXXZA DD FLAT:??__EatlTraceTime@ATL@@YAXXZ ; ATL::atlTraceTime$initializer$
CRT$XCU	ENDS
;	COMDAT CRT$XCU
CRT$XCU	SEGMENT
?atlTraceCache$initializer$@ATL@@3P6AXXZA DD FLAT:??__EatlTraceCache@ATL@@YAXXZ ; ATL::atlTraceCache$initializer$
CRT$XCU	ENDS
;	COMDAT CRT$XCU
CRT$XCU	SEGMENT
?atlTraceStencil$initializer$@ATL@@3P6AXXZA DD FLAT:??__EatlTraceStencil@ATL@@YAXXZ ; ATL::atlTraceStencil$initializer$
CRT$XCU	ENDS
;	COMDAT CRT$XCU
CRT$XCU	SEGMENT
?atlTraceString$initializer$@ATL@@3P6AXXZA DD FLAT:??__EatlTraceString@ATL@@YAXXZ ; ATL::atlTraceString$initializer$
CRT$XCU	ENDS
;	COMDAT CRT$XCU
CRT$XCU	SEGMENT
?atlTraceMap$initializer$@ATL@@3P6AXXZA DD FLAT:??__EatlTraceMap@ATL@@YAXXZ ; ATL::atlTraceMap$initializer$
CRT$XCU	ENDS
;	COMDAT CRT$XCU
CRT$XCU	SEGMENT
?atlTraceUtil$initializer$@ATL@@3P6AXXZA DD FLAT:??__EatlTraceUtil@ATL@@YAXXZ ; ATL::atlTraceUtil$initializer$
CRT$XCU	ENDS
;	COMDAT CRT$XCU
CRT$XCU	SEGMENT
?atlTraceSecurity$initializer$@ATL@@3P6AXXZA DD FLAT:??__EatlTraceSecurity@ATL@@YAXXZ ; ATL::atlTraceSecurity$initializer$
CRT$XCU	ENDS
;	COMDAT CRT$XCU
CRT$XCU	SEGMENT
?atlTraceSync$initializer$@ATL@@3P6AXXZA DD FLAT:??__EatlTraceSync@ATL@@YAXXZ ; ATL::atlTraceSync$initializer$
CRT$XCU	ENDS
;	COMDAT CRT$XCU
CRT$XCU	SEGMENT
?atlTraceISAPI$initializer$@ATL@@3P6AXXZA DD FLAT:??__EatlTraceISAPI@ATL@@YAXXZ ; ATL::atlTraceISAPI$initializer$
CRT$XCU	ENDS
;	COMDAT CRT$XCU
CRT$XCU	SEGMENT
?_AtlComModule$initializer$@ATL@@3P6AXXZA DD FLAT:??__E_AtlComModule@ATL@@YAXXZ ; ATL::_AtlComModule$initializer$
CRT$XCU	ENDS
;	COMDAT CRT$XCU
CRT$XCU	SEGMENT
?_AtlWinModule$initializer$@ATL@@3P6AXXZA DD FLAT:??__E_AtlWinModule@ATL@@YAXXZ ; ATL::_AtlWinModule$initializer$
CRT$XCU	ENDS
;	COMDAT CRT$XCU
CRT$XCU	SEGMENT
??isInitialized$initializer$@CAtlStringMgr@ATL@@0P6AXXZA@@3P6AXXZA DD FLAT:??__E?isInitialized@CAtlStringMgr@ATL@@0_NA@@YAXXZ ; ??isInitialized$initializer$@CAtlStringMgr@ATL@@0P6AXXZA@@3P6AXXZA
CRT$XCU	ENDS
;	COMDAT CRT$XCU
CRT$XCU	SEGMENT
??isCImageStaticInitialized$initializer$@CImage@ATL@@0P6AXXZA@@3P6AXXZA DD FLAT:??__E?isCImageStaticInitialized@CImage@ATL@@0_NA@@YAXXZ ; ??isCImageStaticInitialized$initializer$@CImage@ATL@@0P6AXXZA@@3P6AXXZA
CRT$XCU	ENDS
; Function compile flags: /Odtp
;	COMDAT ??_G?$CWHArray@UtagAnalyseItem@@AAU1@@@UAEPAXI@Z
_TEXT	SEGMENT
_this$ = -4						; size = 4
___flags$ = 8						; size = 4
??_G?$CWHArray@UtagAnalyseItem@@AAU1@@@UAEPAXI@Z PROC	; CWHArray<tagAnalyseItem,tagAnalyseItem &>::`scalar deleting destructor', COMDAT
; _this$ = ecx
  00000	55		 push	 ebp
  00001	8b ec		 mov	 ebp, esp
  00003	51		 push	 ecx
  00004	89 4d fc	 mov	 DWORD PTR _this$[ebp], ecx
  00007	8b 4d fc	 mov	 ecx, DWORD PTR _this$[ebp]
  0000a	e8 00 00 00 00	 call	 ??1?$CWHArray@UtagAnalyseItem@@AAU1@@@UAE@XZ ; CWHArray<tagAnalyseItem,tagAnalyseItem &>::~CWHArray<tagAnalyseItem,tagAnalyseItem &>
  0000f	8b 45 08	 mov	 eax, DWORD PTR ___flags$[ebp]
  00012	83 e0 01	 and	 eax, 1
  00015	74 0e		 je	 SHORT $LN2@scalar
  00017	6a 14		 push	 20			; 00000014H
  00019	8b 4d fc	 mov	 ecx, DWORD PTR _this$[ebp]
  0001c	51		 push	 ecx
  0001d	e8 00 00 00 00	 call	 ??3@YAXPAXI@Z		; operator delete
  00022	83 c4 08	 add	 esp, 8
$LN2@scalar:
  00025	8b 45 fc	 mov	 eax, DWORD PTR _this$[ebp]
  00028	8b e5		 mov	 esp, ebp
  0002a	5d		 pop	 ebp
  0002b	c2 04 00	 ret	 4
??_G?$CWHArray@UtagAnalyseItem@@AAU1@@@UAEPAXI@Z ENDP	; CWHArray<tagAnalyseItem,tagAnalyseItem &>::`scalar deleting destructor'
_TEXT	ENDS
; Function compile flags: /Odtp
; File d:\qijianban\laok\服务端\游戏组件\开发库\include\array.h
;	COMDAT ?AllocMemory@?$CWHArray@UtagAnalyseItem@@AAU1@@@QAEXH@Z
_TEXT	SEGMENT
$T1 = -28						; size = 4
$T2 = -24						; size = 4
tv73 = -20						; size = 4
tv72 = -16						; size = 4
_pNewData$3 = -12					; size = 4
_nGrowCount$4 = -8					; size = 4
_this$ = -4						; size = 4
_nNewCount$ = 8						; size = 4
?AllocMemory@?$CWHArray@UtagAnalyseItem@@AAU1@@@QAEXH@Z PROC ; CWHArray<tagAnalyseItem,tagAnalyseItem &>::AllocMemory, COMDAT
; _this$ = ecx

; 413  : {

  00000	55		 push	 ebp
  00001	8b ec		 mov	 ebp, esp
  00003	83 ec 1c	 sub	 esp, 28			; 0000001cH
  00006	89 4d fc	 mov	 DWORD PTR _this$[ebp], ecx

; 414  : 	//效验参数
; 415  : 	ASSERT(nNewCount>=0);
; 416  : 
; 417  : 	if (nNewCount>m_nMaxCount)

  00009	8b 45 fc	 mov	 eax, DWORD PTR _this$[ebp]
  0000c	8b 4d 08	 mov	 ecx, DWORD PTR _nNewCount$[ebp]
  0000f	3b 48 08	 cmp	 ecx, DWORD PTR [eax+8]
  00012	0f 8e d7 00 00
	00		 jle	 $LN1@AllocMemor

; 418  : 	{
; 419  : 		//计算数目
; 420  : 		INT_PTR nGrowCount=m_nGrowCount;

  00018	8b 55 fc	 mov	 edx, DWORD PTR _this$[ebp]
  0001b	8b 42 0c	 mov	 eax, DWORD PTR [edx+12]
  0001e	89 45 f8	 mov	 DWORD PTR _nGrowCount$4[ebp], eax

; 421  : 		if (nGrowCount==0)

  00021	83 7d f8 00	 cmp	 DWORD PTR _nGrowCount$4[ebp], 0
  00025	75 45		 jne	 SHORT $LN3@AllocMemor

; 422  : 		{
; 423  : 			nGrowCount=m_nElementCount/8;

  00027	8b 4d fc	 mov	 ecx, DWORD PTR _this$[ebp]
  0002a	8b 41 10	 mov	 eax, DWORD PTR [ecx+16]
  0002d	99		 cdq
  0002e	83 e2 07	 and	 edx, 7
  00031	03 c2		 add	 eax, edx
  00033	c1 f8 03	 sar	 eax, 3
  00036	89 45 f8	 mov	 DWORD PTR _nGrowCount$4[ebp], eax

; 424  : 			nGrowCount=(nGrowCount<4)?4:((nGrowCount>1024)?1024:nGrowCount);

  00039	83 7d f8 04	 cmp	 DWORD PTR _nGrowCount$4[ebp], 4
  0003d	7d 09		 jge	 SHORT $LN7@AllocMemor
  0003f	c7 45 ec 04 00
	00 00		 mov	 DWORD PTR tv73[ebp], 4
  00046	eb 1e		 jmp	 SHORT $LN8@AllocMemor
$LN7@AllocMemor:
  00048	81 7d f8 00 04
	00 00		 cmp	 DWORD PTR _nGrowCount$4[ebp], 1024 ; 00000400H
  0004f	7e 09		 jle	 SHORT $LN5@AllocMemor
  00051	c7 45 f0 00 04
	00 00		 mov	 DWORD PTR tv72[ebp], 1024 ; 00000400H
  00058	eb 06		 jmp	 SHORT $LN6@AllocMemor
$LN5@AllocMemor:
  0005a	8b 55 f8	 mov	 edx, DWORD PTR _nGrowCount$4[ebp]
  0005d	89 55 f0	 mov	 DWORD PTR tv72[ebp], edx
$LN6@AllocMemor:
  00060	8b 45 f0	 mov	 eax, DWORD PTR tv72[ebp]
  00063	89 45 ec	 mov	 DWORD PTR tv73[ebp], eax
$LN8@AllocMemor:
  00066	8b 4d ec	 mov	 ecx, DWORD PTR tv73[ebp]
  00069	89 4d f8	 mov	 DWORD PTR _nGrowCount$4[ebp], ecx
$LN3@AllocMemor:

; 425  : 		}
; 426  : 		nNewCount+=nGrowCount;

  0006c	8b 55 08	 mov	 edx, DWORD PTR _nNewCount$[ebp]
  0006f	03 55 f8	 add	 edx, DWORD PTR _nGrowCount$4[ebp]
  00072	89 55 08	 mov	 DWORD PTR _nNewCount$[ebp], edx

; 427  : 
; 428  : 		//申请内存
; 429  : 		TYPE * pNewData=(TYPE *) new BYTE[nNewCount*sizeof(TYPE)];

  00075	6b 45 08 1a	 imul	 eax, DWORD PTR _nNewCount$[ebp], 26
  00079	50		 push	 eax
  0007a	e8 00 00 00 00	 call	 ??_U@YAPAXI@Z		; operator new[]
  0007f	83 c4 04	 add	 esp, 4
  00082	89 45 e8	 mov	 DWORD PTR $T2[ebp], eax
  00085	8b 4d e8	 mov	 ecx, DWORD PTR $T2[ebp]
  00088	89 4d f4	 mov	 DWORD PTR _pNewData$3[ebp], ecx

; 430  : 		memcpy(pNewData,m_pData,m_nElementCount*sizeof(TYPE));

  0008b	8b 55 fc	 mov	 edx, DWORD PTR _this$[ebp]
  0008e	6b 42 10 1a	 imul	 eax, DWORD PTR [edx+16], 26
  00092	50		 push	 eax
  00093	8b 4d fc	 mov	 ecx, DWORD PTR _this$[ebp]
  00096	8b 51 04	 mov	 edx, DWORD PTR [ecx+4]
  00099	52		 push	 edx
  0009a	8b 45 f4	 mov	 eax, DWORD PTR _pNewData$3[ebp]
  0009d	50		 push	 eax
  0009e	e8 00 00 00 00	 call	 _memcpy
  000a3	83 c4 0c	 add	 esp, 12			; 0000000cH

; 431  : 		memset(pNewData+m_nElementCount,0,(nNewCount-m_nElementCount)*sizeof(TYPE));

  000a6	8b 4d fc	 mov	 ecx, DWORD PTR _this$[ebp]
  000a9	8b 55 08	 mov	 edx, DWORD PTR _nNewCount$[ebp]
  000ac	2b 51 10	 sub	 edx, DWORD PTR [ecx+16]
  000af	6b c2 1a	 imul	 eax, edx, 26
  000b2	50		 push	 eax
  000b3	6a 00		 push	 0
  000b5	8b 4d fc	 mov	 ecx, DWORD PTR _this$[ebp]
  000b8	6b 51 10 1a	 imul	 edx, DWORD PTR [ecx+16], 26
  000bc	03 55 f4	 add	 edx, DWORD PTR _pNewData$3[ebp]
  000bf	52		 push	 edx
  000c0	e8 00 00 00 00	 call	 _memset
  000c5	83 c4 0c	 add	 esp, 12			; 0000000cH

; 432  : 		delete [] (BYTE *)m_pData;

  000c8	8b 45 fc	 mov	 eax, DWORD PTR _this$[ebp]
  000cb	8b 48 04	 mov	 ecx, DWORD PTR [eax+4]
  000ce	89 4d e4	 mov	 DWORD PTR $T1[ebp], ecx
  000d1	8b 55 e4	 mov	 edx, DWORD PTR $T1[ebp]
  000d4	52		 push	 edx
  000d5	e8 00 00 00 00	 call	 ??_V@YAXPAX@Z		; operator delete[]
  000da	83 c4 04	 add	 esp, 4

; 433  : 
; 434  : 		//设置变量
; 435  : 		m_pData=pNewData;

  000dd	8b 45 fc	 mov	 eax, DWORD PTR _this$[ebp]
  000e0	8b 4d f4	 mov	 ecx, DWORD PTR _pNewData$3[ebp]
  000e3	89 48 04	 mov	 DWORD PTR [eax+4], ecx

; 436  : 		m_nMaxCount=nNewCount;

  000e6	8b 55 fc	 mov	 edx, DWORD PTR _this$[ebp]
  000e9	8b 45 08	 mov	 eax, DWORD PTR _nNewCount$[ebp]
  000ec	89 42 08	 mov	 DWORD PTR [edx+8], eax
$LN1@AllocMemor:

; 437  : 	}
; 438  : 
; 439  : 	return;
; 440  : }

  000ef	8b e5		 mov	 esp, ebp
  000f1	5d		 pop	 ebp
  000f2	c2 04 00	 ret	 4
?AllocMemory@?$CWHArray@UtagAnalyseItem@@AAU1@@@QAEXH@Z ENDP ; CWHArray<tagAnalyseItem,tagAnalyseItem &>::AllocMemory
_TEXT	ENDS
; Function compile flags: /Odtp
; File d:\qijianban\laok\服务端\游戏组件\开发库\include\array.h
;	COMDAT ?RemoveAll@?$CWHArray@UtagAnalyseItem@@AAU1@@@QAEXXZ
_TEXT	SEGMENT
_i$1 = -8						; size = 4
_this$ = -4						; size = 4
?RemoveAll@?$CWHArray@UtagAnalyseItem@@AAU1@@@QAEXXZ PROC ; CWHArray<tagAnalyseItem,tagAnalyseItem &>::RemoveAll, COMDAT
; _this$ = ecx

; 379  : {

  00000	55		 push	 ebp
  00001	8b ec		 mov	 ebp, esp
  00003	83 ec 08	 sub	 esp, 8
  00006	89 4d fc	 mov	 DWORD PTR _this$[ebp], ecx

; 380  : 	if (m_nElementCount>0)

  00009	8b 45 fc	 mov	 eax, DWORD PTR _this$[ebp]
  0000c	83 78 10 00	 cmp	 DWORD PTR [eax+16], 0
  00010	7e 42		 jle	 SHORT $LN1@RemoveAll

; 381  : 	{
; 382  : 		for (INT_PTR i=0;i<m_nElementCount;i++) (m_pData+i)->~TYPE();

  00012	c7 45 f8 00 00
	00 00		 mov	 DWORD PTR _i$1[ebp], 0
  00019	eb 09		 jmp	 SHORT $LN4@RemoveAll
$LN2@RemoveAll:
  0001b	8b 4d f8	 mov	 ecx, DWORD PTR _i$1[ebp]
  0001e	83 c1 01	 add	 ecx, 1
  00021	89 4d f8	 mov	 DWORD PTR _i$1[ebp], ecx
$LN4@RemoveAll:
  00024	8b 55 fc	 mov	 edx, DWORD PTR _this$[ebp]
  00027	8b 45 f8	 mov	 eax, DWORD PTR _i$1[ebp]
  0002a	3b 42 10	 cmp	 eax, DWORD PTR [edx+16]
  0002d	7d 02		 jge	 SHORT $LN3@RemoveAll
  0002f	eb ea		 jmp	 SHORT $LN2@RemoveAll
$LN3@RemoveAll:

; 383  : 		memset(m_pData,0,m_nElementCount*sizeof(TYPE));

  00031	8b 4d fc	 mov	 ecx, DWORD PTR _this$[ebp]
  00034	6b 51 10 1a	 imul	 edx, DWORD PTR [ecx+16], 26
  00038	52		 push	 edx
  00039	6a 00		 push	 0
  0003b	8b 45 fc	 mov	 eax, DWORD PTR _this$[ebp]
  0003e	8b 48 04	 mov	 ecx, DWORD PTR [eax+4]
  00041	51		 push	 ecx
  00042	e8 00 00 00 00	 call	 _memset
  00047	83 c4 0c	 add	 esp, 12			; 0000000cH

; 384  : 		m_nElementCount=0;

  0004a	8b 55 fc	 mov	 edx, DWORD PTR _this$[ebp]
  0004d	c7 42 10 00 00
	00 00		 mov	 DWORD PTR [edx+16], 0
$LN1@RemoveAll:

; 385  : 	}
; 386  : 
; 387  : 	return;
; 388  : }

  00054	8b e5		 mov	 esp, ebp
  00056	5d		 pop	 ebp
  00057	c3		 ret	 0
?RemoveAll@?$CWHArray@UtagAnalyseItem@@AAU1@@@QAEXXZ ENDP ; CWHArray<tagAnalyseItem,tagAnalyseItem &>::RemoveAll
_TEXT	ENDS
; Function compile flags: /Odtp
; File d:\qijianban\laok\服务端\游戏组件\开发库\include\array.h
;	COMDAT ?SetAtGrow@?$CWHArray@UtagAnalyseItem@@AAU1@@@QAEXHAAUtagAnalyseItem@@@Z
_TEXT	SEGMENT
_this$ = -4						; size = 4
_nIndex$ = 8						; size = 4
_newElement$ = 12					; size = 4
?SetAtGrow@?$CWHArray@UtagAnalyseItem@@AAU1@@@QAEXHAAUtagAnalyseItem@@@Z PROC ; CWHArray<tagAnalyseItem,tagAnalyseItem &>::SetAtGrow, COMDAT
; _this$ = ecx

; 287  : {

  00000	55		 push	 ebp
  00001	8b ec		 mov	 ebp, esp
  00003	51		 push	 ecx
  00004	56		 push	 esi
  00005	57		 push	 edi
  00006	89 4d fc	 mov	 DWORD PTR _this$[ebp], ecx

; 288  : 	//效验参数
; 289  : 	ASSERT(nIndex>=0);
; 290  : 	if (nIndex<0) AfxThrowInvalidArgException();

  00009	83 7d 08 00	 cmp	 DWORD PTR _nIndex$[ebp], 0
  0000d	7d 05		 jge	 SHORT $LN2@SetAtGrow
  0000f	e8 00 00 00 00	 call	 ?AfxThrowInvalidArgException@@YGXXZ ; AfxThrowInvalidArgException
$LN2@SetAtGrow:

; 291  : 
; 292  : 	//设置元素
; 293  : 	if (nIndex>=m_nElementCount) SetSize(m_nElementCount+1);

  00014	8b 45 fc	 mov	 eax, DWORD PTR _this$[ebp]
  00017	8b 4d 08	 mov	 ecx, DWORD PTR _nIndex$[ebp]
  0001a	3b 48 10	 cmp	 ecx, DWORD PTR [eax+16]
  0001d	7c 12		 jl	 SHORT $LN3@SetAtGrow
  0001f	8b 55 fc	 mov	 edx, DWORD PTR _this$[ebp]
  00022	8b 42 10	 mov	 eax, DWORD PTR [edx+16]
  00025	83 c0 01	 add	 eax, 1
  00028	50		 push	 eax
  00029	8b 4d fc	 mov	 ecx, DWORD PTR _this$[ebp]
  0002c	e8 00 00 00 00	 call	 ?SetSize@?$CWHArray@UtagAnalyseItem@@AAU1@@@QAEXH@Z ; CWHArray<tagAnalyseItem,tagAnalyseItem &>::SetSize
$LN3@SetAtGrow:

; 294  : 	m_pData[nIndex]=newElement;

  00031	6b 4d 08 1a	 imul	 ecx, DWORD PTR _nIndex$[ebp], 26
  00035	8b 55 fc	 mov	 edx, DWORD PTR _this$[ebp]
  00038	8b 7a 04	 mov	 edi, DWORD PTR [edx+4]
  0003b	03 f9		 add	 edi, ecx
  0003d	b9 06 00 00 00	 mov	 ecx, 6
  00042	8b 75 0c	 mov	 esi, DWORD PTR _newElement$[ebp]
  00045	f3 a5		 rep movsd
  00047	66 a5		 movsw
$LN4@SetAtGrow:

; 295  : 
; 296  : 	return;
; 297  : }

  00049	5f		 pop	 edi
  0004a	5e		 pop	 esi
  0004b	8b e5		 mov	 esp, ebp
  0004d	5d		 pop	 ebp
  0004e	c2 08 00	 ret	 8
?SetAtGrow@?$CWHArray@UtagAnalyseItem@@AAU1@@@QAEXHAAUtagAnalyseItem@@@Z ENDP ; CWHArray<tagAnalyseItem,tagAnalyseItem &>::SetAtGrow
_TEXT	ENDS
; Function compile flags: /Odtp
; File d:\qijianban\laok\服务端\游戏组件\开发库\include\array.h
;	COMDAT ?SetSize@?$CWHArray@UtagAnalyseItem@@AAU1@@@QAEXH@Z
_TEXT	SEGMENT
$T1 = -16						; size = 4
_i$2 = -12						; size = 4
_i$3 = -8						; size = 4
_this$ = -4						; size = 4
_nNewSize$ = 8						; size = 4
?SetSize@?$CWHArray@UtagAnalyseItem@@AAU1@@@QAEXH@Z PROC ; CWHArray<tagAnalyseItem,tagAnalyseItem &>::SetSize, COMDAT
; _this$ = ecx

; 252  : {

  00000	55		 push	 ebp
  00001	8b ec		 mov	 ebp, esp
  00003	83 ec 10	 sub	 esp, 16			; 00000010H
  00006	89 4d fc	 mov	 DWORD PTR _this$[ebp], ecx

; 253  : 	//效验参数
; 254  : 	ASSERT(nNewSize>=0);
; 255  : 	if (nNewSize<0)	AfxThrowInvalidArgException();

  00009	83 7d 08 00	 cmp	 DWORD PTR _nNewSize$[ebp], 0
  0000d	7d 05		 jge	 SHORT $LN8@SetSize
  0000f	e8 00 00 00 00	 call	 ?AfxThrowInvalidArgException@@YGXXZ ; AfxThrowInvalidArgException
$LN8@SetSize:

; 256  : 	
; 257  : 	//设置大小
; 258  : 	AllocMemory(nNewSize);

  00014	8b 45 08	 mov	 eax, DWORD PTR _nNewSize$[ebp]
  00017	50		 push	 eax
  00018	8b 4d fc	 mov	 ecx, DWORD PTR _this$[ebp]
  0001b	e8 00 00 00 00	 call	 ?AllocMemory@?$CWHArray@UtagAnalyseItem@@AAU1@@@QAEXH@Z ; CWHArray<tagAnalyseItem,tagAnalyseItem &>::AllocMemory

; 259  : 	if (nNewSize>m_nElementCount)

  00020	8b 4d fc	 mov	 ecx, DWORD PTR _this$[ebp]
  00023	8b 55 08	 mov	 edx, DWORD PTR _nNewSize$[ebp]
  00026	3b 51 10	 cmp	 edx, DWORD PTR [ecx+16]
  00029	7e 38		 jle	 SHORT $LN9@SetSize

; 260  : 	{
; 261  : 		for (INT_PTR i=m_nElementCount;i<nNewSize;i++) new ((VOID *)(m_pData+i)) TYPE;

  0002b	8b 45 fc	 mov	 eax, DWORD PTR _this$[ebp]
  0002e	8b 48 10	 mov	 ecx, DWORD PTR [eax+16]
  00031	89 4d f8	 mov	 DWORD PTR _i$3[ebp], ecx
  00034	eb 09		 jmp	 SHORT $LN4@SetSize
$LN2@SetSize:
  00036	8b 55 f8	 mov	 edx, DWORD PTR _i$3[ebp]
  00039	83 c2 01	 add	 edx, 1
  0003c	89 55 f8	 mov	 DWORD PTR _i$3[ebp], edx
$LN4@SetSize:
  0003f	8b 45 f8	 mov	 eax, DWORD PTR _i$3[ebp]
  00042	3b 45 08	 cmp	 eax, DWORD PTR _nNewSize$[ebp]
  00045	7d 1a		 jge	 SHORT $LN3@SetSize
  00047	6b 4d f8 1a	 imul	 ecx, DWORD PTR _i$3[ebp], 26
  0004b	8b 55 fc	 mov	 edx, DWORD PTR _this$[ebp]
  0004e	03 4a 04	 add	 ecx, DWORD PTR [edx+4]
  00051	51		 push	 ecx
  00052	6a 1a		 push	 26			; 0000001aH
  00054	e8 00 00 00 00	 call	 ??2@YAPAXIPAX@Z		; operator new
  00059	83 c4 08	 add	 esp, 8
  0005c	89 45 f0	 mov	 DWORD PTR $T1[ebp], eax
  0005f	eb d5		 jmp	 SHORT $LN2@SetSize
$LN3@SetSize:

; 262  : 	}
; 263  : 	else if (nNewSize<m_nElementCount)

  00061	eb 4b		 jmp	 SHORT $LN10@SetSize
$LN9@SetSize:
  00063	8b 45 fc	 mov	 eax, DWORD PTR _this$[ebp]
  00066	8b 4d 08	 mov	 ecx, DWORD PTR _nNewSize$[ebp]
  00069	3b 48 10	 cmp	 ecx, DWORD PTR [eax+16]
  0006c	7d 40		 jge	 SHORT $LN10@SetSize

; 264  : 	{
; 265  : 		for (INT_PTR i=nNewSize;i<m_nElementCount;i++) (m_pData+i)->~TYPE();

  0006e	8b 55 08	 mov	 edx, DWORD PTR _nNewSize$[ebp]
  00071	89 55 f4	 mov	 DWORD PTR _i$2[ebp], edx
  00074	eb 09		 jmp	 SHORT $LN7@SetSize
$LN5@SetSize:
  00076	8b 45 f4	 mov	 eax, DWORD PTR _i$2[ebp]
  00079	83 c0 01	 add	 eax, 1
  0007c	89 45 f4	 mov	 DWORD PTR _i$2[ebp], eax
$LN7@SetSize:
  0007f	8b 4d fc	 mov	 ecx, DWORD PTR _this$[ebp]
  00082	8b 55 f4	 mov	 edx, DWORD PTR _i$2[ebp]
  00085	3b 51 10	 cmp	 edx, DWORD PTR [ecx+16]
  00088	7d 02		 jge	 SHORT $LN6@SetSize
  0008a	eb ea		 jmp	 SHORT $LN5@SetSize
$LN6@SetSize:

; 266  : 		memset(m_pData+nNewSize,0,(m_nElementCount-nNewSize)*sizeof(TYPE));

  0008c	8b 45 fc	 mov	 eax, DWORD PTR _this$[ebp]
  0008f	8b 48 10	 mov	 ecx, DWORD PTR [eax+16]
  00092	2b 4d 08	 sub	 ecx, DWORD PTR _nNewSize$[ebp]
  00095	6b d1 1a	 imul	 edx, ecx, 26
  00098	52		 push	 edx
  00099	6a 00		 push	 0
  0009b	6b 45 08 1a	 imul	 eax, DWORD PTR _nNewSize$[ebp], 26
  0009f	8b 4d fc	 mov	 ecx, DWORD PTR _this$[ebp]
  000a2	03 41 04	 add	 eax, DWORD PTR [ecx+4]
  000a5	50		 push	 eax
  000a6	e8 00 00 00 00	 call	 _memset
  000ab	83 c4 0c	 add	 esp, 12			; 0000000cH
$LN10@SetSize:

; 267  : 	}
; 268  : 	m_nElementCount=nNewSize;

  000ae	8b 55 fc	 mov	 edx, DWORD PTR _this$[ebp]
  000b1	8b 45 08	 mov	 eax, DWORD PTR _nNewSize$[ebp]
  000b4	89 42 10	 mov	 DWORD PTR [edx+16], eax
$LN12@SetSize:

; 269  : 
; 270  : 	return;
; 271  : }

  000b7	8b e5		 mov	 esp, ebp
  000b9	5d		 pop	 ebp
  000ba	c2 04 00	 ret	 4
?SetSize@?$CWHArray@UtagAnalyseItem@@AAU1@@@QAEXH@Z ENDP ; CWHArray<tagAnalyseItem,tagAnalyseItem &>::SetSize
_TEXT	ENDS
; Function compile flags: /Odtp
; File d:\qijianban\laok\服务端\游戏组件\开发库\include\array.h
;	COMDAT ?Add@?$CWHArray@UtagAnalyseItem@@AAU1@@@QAEHAAUtagAnalyseItem@@@Z
_TEXT	SEGMENT
_nIndex$ = -8						; size = 4
_this$ = -4						; size = 4
_newElement$ = 8					; size = 4
?Add@?$CWHArray@UtagAnalyseItem@@AAU1@@@QAEHAAUtagAnalyseItem@@@Z PROC ; CWHArray<tagAnalyseItem,tagAnalyseItem &>::Add, COMDAT
; _this$ = ecx

; 105  : {

  00000	55		 push	 ebp
  00001	8b ec		 mov	 ebp, esp
  00003	83 ec 08	 sub	 esp, 8
  00006	89 4d fc	 mov	 DWORD PTR _this$[ebp], ecx

; 106  : 	INT_PTR nIndex=m_nElementCount;

  00009	8b 45 fc	 mov	 eax, DWORD PTR _this$[ebp]
  0000c	8b 48 10	 mov	 ecx, DWORD PTR [eax+16]
  0000f	89 4d f8	 mov	 DWORD PTR _nIndex$[ebp], ecx

; 107  : 	SetAtGrow(nIndex,newElement);

  00012	8b 55 08	 mov	 edx, DWORD PTR _newElement$[ebp]
  00015	52		 push	 edx
  00016	8b 45 f8	 mov	 eax, DWORD PTR _nIndex$[ebp]
  00019	50		 push	 eax
  0001a	8b 4d fc	 mov	 ecx, DWORD PTR _this$[ebp]
  0001d	e8 00 00 00 00	 call	 ?SetAtGrow@?$CWHArray@UtagAnalyseItem@@AAU1@@@QAEXHAAUtagAnalyseItem@@@Z ; CWHArray<tagAnalyseItem,tagAnalyseItem &>::SetAtGrow

; 108  : 	return nIndex;

  00022	8b 45 f8	 mov	 eax, DWORD PTR _nIndex$[ebp]

; 109  : }

  00025	8b e5		 mov	 esp, ebp
  00027	5d		 pop	 ebp
  00028	c2 04 00	 ret	 4
?Add@?$CWHArray@UtagAnalyseItem@@AAU1@@@QAEHAAUtagAnalyseItem@@@Z ENDP ; CWHArray<tagAnalyseItem,tagAnalyseItem &>::Add
_TEXT	ENDS
; Function compile flags: /Odtp
; File d:\qijianban\laok\服务端\游戏组件\开发库\include\array.h
;	COMDAT ?GetCount@?$CWHArray@UtagAnalyseItem@@AAU1@@@QBEHXZ
_TEXT	SEGMENT
_this$ = -4						; size = 4
?GetCount@?$CWHArray@UtagAnalyseItem@@AAU1@@@QBEHXZ PROC ; CWHArray<tagAnalyseItem,tagAnalyseItem &>::GetCount, COMDAT
; _this$ = ecx

; 98   : {

  00000	55		 push	 ebp
  00001	8b ec		 mov	 ebp, esp
  00003	51		 push	 ecx
  00004	89 4d fc	 mov	 DWORD PTR _this$[ebp], ecx

; 99   : 	return m_nElementCount;

  00007	8b 45 fc	 mov	 eax, DWORD PTR _this$[ebp]
  0000a	8b 40 10	 mov	 eax, DWORD PTR [eax+16]

; 100  : }

  0000d	8b e5		 mov	 esp, ebp
  0000f	5d		 pop	 ebp
  00010	c3		 ret	 0
?GetCount@?$CWHArray@UtagAnalyseItem@@AAU1@@@QBEHXZ ENDP ; CWHArray<tagAnalyseItem,tagAnalyseItem &>::GetCount
_TEXT	ENDS
; Function compile flags: /Odtp
; File d:\qijianban\laok\服务端\游戏组件\开发库\include\array.h
;	COMDAT ??1?$CWHArray@UtagAnalyseItem@@AAU1@@@UAE@XZ
_TEXT	SEGMENT
$T1 = -12						; size = 4
_i$2 = -8						; size = 4
_this$ = -4						; size = 4
??1?$CWHArray@UtagAnalyseItem@@AAU1@@@UAE@XZ PROC	; CWHArray<tagAnalyseItem,tagAnalyseItem &>::~CWHArray<tagAnalyseItem,tagAnalyseItem &>, COMDAT
; _this$ = ecx

; 143  : {

  00000	55		 push	 ebp
  00001	8b ec		 mov	 ebp, esp
  00003	83 ec 0c	 sub	 esp, 12			; 0000000cH
  00006	89 4d fc	 mov	 DWORD PTR _this$[ebp], ecx
  00009	8b 45 fc	 mov	 eax, DWORD PTR _this$[ebp]
  0000c	c7 00 00 00 00
	00		 mov	 DWORD PTR [eax], OFFSET ??_7?$CWHArray@UtagAnalyseItem@@AAU1@@@6B@

; 144  : 	if (m_pData!=NULL)

  00012	8b 4d fc	 mov	 ecx, DWORD PTR _this$[ebp]
  00015	83 79 04 00	 cmp	 DWORD PTR [ecx+4], 0
  00019	74 3e		 je	 SHORT $LN6@CWHArray

; 145  : 	{
; 146  : 		for (INT_PTR i=0;i<m_nElementCount;i++)	(m_pData+i)->~TYPE();

  0001b	c7 45 f8 00 00
	00 00		 mov	 DWORD PTR _i$2[ebp], 0
  00022	eb 09		 jmp	 SHORT $LN4@CWHArray
$LN2@CWHArray:
  00024	8b 55 f8	 mov	 edx, DWORD PTR _i$2[ebp]
  00027	83 c2 01	 add	 edx, 1
  0002a	89 55 f8	 mov	 DWORD PTR _i$2[ebp], edx
$LN4@CWHArray:
  0002d	8b 45 fc	 mov	 eax, DWORD PTR _this$[ebp]
  00030	8b 4d f8	 mov	 ecx, DWORD PTR _i$2[ebp]
  00033	3b 48 10	 cmp	 ecx, DWORD PTR [eax+16]
  00036	7d 02		 jge	 SHORT $LN3@CWHArray
  00038	eb ea		 jmp	 SHORT $LN2@CWHArray
$LN3@CWHArray:

; 147  : 		delete [] (BYTE *)m_pData;

  0003a	8b 55 fc	 mov	 edx, DWORD PTR _this$[ebp]
  0003d	8b 42 04	 mov	 eax, DWORD PTR [edx+4]
  00040	89 45 f4	 mov	 DWORD PTR $T1[ebp], eax
  00043	8b 4d f4	 mov	 ecx, DWORD PTR $T1[ebp]
  00046	51		 push	 ecx
  00047	e8 00 00 00 00	 call	 ??_V@YAXPAX@Z		; operator delete[]
  0004c	83 c4 04	 add	 esp, 4

; 148  : 		m_pData=NULL;

  0004f	8b 55 fc	 mov	 edx, DWORD PTR _this$[ebp]
  00052	c7 42 04 00 00
	00 00		 mov	 DWORD PTR [edx+4], 0
$LN6@CWHArray:

; 149  : 	}
; 150  : 
; 151  : 	return;
; 152  : }

  00059	8b e5		 mov	 esp, ebp
  0005b	5d		 pop	 ebp
  0005c	c3		 ret	 0
??1?$CWHArray@UtagAnalyseItem@@AAU1@@@UAE@XZ ENDP	; CWHArray<tagAnalyseItem,tagAnalyseItem &>::~CWHArray<tagAnalyseItem,tagAnalyseItem &>
_TEXT	ENDS
; Function compile flags: /Odtp
; File d:\qijianban\laok\服务端\游戏组件\开发库\include\array.h
;	COMDAT ??0?$CWHArray@UtagAnalyseItem@@AAU1@@@QAE@XZ
_TEXT	SEGMENT
_this$ = -4						; size = 4
??0?$CWHArray@UtagAnalyseItem@@AAU1@@@QAE@XZ PROC	; CWHArray<tagAnalyseItem,tagAnalyseItem &>::CWHArray<tagAnalyseItem,tagAnalyseItem &>, COMDAT
; _this$ = ecx

; 131  : {

  00000	55		 push	 ebp
  00001	8b ec		 mov	 ebp, esp
  00003	51		 push	 ecx
  00004	89 4d fc	 mov	 DWORD PTR _this$[ebp], ecx
  00007	8b 45 fc	 mov	 eax, DWORD PTR _this$[ebp]
  0000a	c7 00 00 00 00
	00		 mov	 DWORD PTR [eax], OFFSET ??_7?$CWHArray@UtagAnalyseItem@@AAU1@@@6B@

; 132  : 	m_pData=NULL;

  00010	8b 4d fc	 mov	 ecx, DWORD PTR _this$[ebp]
  00013	c7 41 04 00 00
	00 00		 mov	 DWORD PTR [ecx+4], 0

; 133  : 	m_nMaxCount=0;

  0001a	8b 55 fc	 mov	 edx, DWORD PTR _this$[ebp]
  0001d	c7 42 08 00 00
	00 00		 mov	 DWORD PTR [edx+8], 0

; 134  : 	m_nGrowCount=0;

  00024	8b 45 fc	 mov	 eax, DWORD PTR _this$[ebp]
  00027	c7 40 0c 00 00
	00 00		 mov	 DWORD PTR [eax+12], 0

; 135  : 	m_nElementCount=0;

  0002e	8b 4d fc	 mov	 ecx, DWORD PTR _this$[ebp]
  00031	c7 41 10 00 00
	00 00		 mov	 DWORD PTR [ecx+16], 0

; 136  : 
; 137  : 	return;
; 138  : }

  00038	8b 45 fc	 mov	 eax, DWORD PTR _this$[ebp]
  0003b	8b e5		 mov	 esp, ebp
  0003d	5d		 pop	 ebp
  0003e	c3		 ret	 0
??0?$CWHArray@UtagAnalyseItem@@AAU1@@@QAE@XZ ENDP	; CWHArray<tagAnalyseItem,tagAnalyseItem &>::CWHArray<tagAnalyseItem,tagAnalyseItem &>
_TEXT	ENDS
; Function compile flags: /Odtp
; File c:\program files (x86)\microsoft visual studio 14.0\vc\include\xtgmath.h
;	COMDAT ??$pow@HH@@YANHH@Z
_TEXT	SEGMENT
__Left$ = 8						; size = 4
__Right$ = 12						; size = 4
??$pow@HH@@YANHH@Z PROC					; pow<int,int>, COMDAT

; 82   : 	{	// bring mixed types to a common type

  00000	55		 push	 ebp
  00001	8b ec		 mov	 ebp, esp

; 83   : 	typedef typename _STD _Common_float_type<_Ty1, _Ty2>::type type;
; 84   : 	return (_CSTD pow(type(_Left), type(_Right)));

  00003	f2 0f 2a 45 0c	 cvtsi2sd xmm0, DWORD PTR __Right$[ebp]
  00008	83 ec 08	 sub	 esp, 8
  0000b	f2 0f 11 04 24	 movsd	 QWORD PTR [esp], xmm0
  00010	f2 0f 2a 45 08	 cvtsi2sd xmm0, DWORD PTR __Left$[ebp]
  00015	83 ec 08	 sub	 esp, 8
  00018	f2 0f 11 04 24	 movsd	 QWORD PTR [esp], xmm0
  0001d	e8 00 00 00 00	 call	 _pow
  00022	83 c4 10	 add	 esp, 16			; 00000010H

; 85   : 	}

  00025	5d		 pop	 ebp
  00026	c3		 ret	 0
??$pow@HH@@YANHH@Z ENDP					; pow<int,int>
_TEXT	ENDS
; Function compile flags: /Odtp
;	COMDAT ??_GCGameLogic@@UAEPAXI@Z
_TEXT	SEGMENT
_this$ = -4						; size = 4
___flags$ = 8						; size = 4
??_GCGameLogic@@UAEPAXI@Z PROC				; CGameLogic::`scalar deleting destructor', COMDAT
; _this$ = ecx
  00000	55		 push	 ebp
  00001	8b ec		 mov	 ebp, esp
  00003	51		 push	 ecx
  00004	89 4d fc	 mov	 DWORD PTR _this$[ebp], ecx
  00007	8b 4d fc	 mov	 ecx, DWORD PTR _this$[ebp]
  0000a	e8 00 00 00 00	 call	 ??1CGameLogic@@UAE@XZ	; CGameLogic::~CGameLogic
  0000f	8b 45 08	 mov	 eax, DWORD PTR ___flags$[ebp]
  00012	83 e0 01	 and	 eax, 1
  00015	74 0e		 je	 SHORT $LN2@scalar
  00017	6a 08		 push	 8
  00019	8b 4d fc	 mov	 ecx, DWORD PTR _this$[ebp]
  0001c	51		 push	 ecx
  0001d	e8 00 00 00 00	 call	 ??3@YAXPAXI@Z		; operator delete
  00022	83 c4 08	 add	 esp, 8
$LN2@scalar:
  00025	8b 45 fc	 mov	 eax, DWORD PTR _this$[ebp]
  00028	8b e5		 mov	 esp, ebp
  0002a	5d		 pop	 ebp
  0002b	c2 04 00	 ret	 4
??_GCGameLogic@@UAEPAXI@Z ENDP				; CGameLogic::`scalar deleting destructor'
_TEXT	ENDS
; Function compile flags: /Odtp
; File d:\qijianban\laok\服务端\游戏组件\老k子游戏\红中麻将\服务器组件\gamelogic.cpp
_TEXT	SEGMENT
_this$ = -12						; size = 4
_cbColorCount$ = -8					; size = 4
_cbCardColor$ = -2					; size = 1
_i$1 = -1						; size = 1
_pAnalyseItem$ = 8					; size = 4
?IsHunYiSe@CGameLogic@@IAE_NPBUtagAnalyseItem@@@Z PROC	; CGameLogic::IsHunYiSe
; _this$ = ecx

; 1737 : {

  00000	55		 push	 ebp
  00001	8b ec		 mov	 ebp, esp
  00003	83 ec 0c	 sub	 esp, 12			; 0000000cH
  00006	89 4d f4	 mov	 DWORD PTR _this$[ebp], ecx

; 1738 : 	//参数校验
; 1739 : 	if(pAnalyseItem==NULL) return false;

  00009	83 7d 08 00	 cmp	 DWORD PTR _pAnalyseItem$[ebp], 0
  0000d	75 07		 jne	 SHORT $LN5@IsHunYiSe
  0000f	32 c0		 xor	 al, al
  00011	e9 b7 00 00 00	 jmp	 $LN1@IsHunYiSe
$LN5@IsHunYiSe:

; 1740 : 
; 1741 : 	//变量定义
; 1742 : 	BYTE  cbCardColor=(pAnalyseItem->cbCardEye&MASK_COLOR)>>4;

  00016	8b 45 08	 mov	 eax, DWORD PTR _pAnalyseItem$[ebp]
  00019	0f b6 08	 movzx	 ecx, BYTE PTR [eax]
  0001c	81 e1 f0 00 00
	00		 and	 ecx, 240		; 000000f0H
  00022	c1 f9 04	 sar	 ecx, 4
  00025	88 4d fe	 mov	 BYTE PTR _cbCardColor$[ebp], cl

; 1743 : 	ASSERT(cbCardColor >= 0 && cbCardColor <= 3);
; 1744 : 	BYTE cbColorCount[4] = {0};

  00028	c6 45 f8 00	 mov	 BYTE PTR _cbColorCount$[ebp], 0
  0002c	33 d2		 xor	 edx, edx
  0002e	66 89 55 f9	 mov	 WORD PTR _cbColorCount$[ebp+1], dx
  00032	88 55 fb	 mov	 BYTE PTR _cbColorCount$[ebp+3], dl

; 1745 : 	cbColorCount[cbCardColor] = 1;

  00035	0f b6 45 fe	 movzx	 eax, BYTE PTR _cbCardColor$[ebp]
  00039	c6 44 05 f8 01	 mov	 BYTE PTR _cbColorCount$[ebp+eax], 1

; 1746 : 	for(BYTE i=0;i<MAX_WEAVE;i++)

  0003e	c6 45 ff 00	 mov	 BYTE PTR _i$1[ebp], 0
  00042	eb 09		 jmp	 SHORT $LN4@IsHunYiSe
$LN2@IsHunYiSe:
  00044	8a 4d ff	 mov	 cl, BYTE PTR _i$1[ebp]
  00047	80 c1 01	 add	 cl, 1
  0004a	88 4d ff	 mov	 BYTE PTR _i$1[ebp], cl
$LN4@IsHunYiSe:
  0004d	0f b6 55 ff	 movzx	 edx, BYTE PTR _i$1[ebp]
  00051	83 fa 04	 cmp	 edx, 4
  00054	7d 30		 jge	 SHORT $LN3@IsHunYiSe

; 1747 : 	{
; 1748 : 		cbCardColor=((pAnalyseItem->cbCenterCard[i])&MASK_COLOR)>>4;

  00056	0f b6 45 ff	 movzx	 eax, BYTE PTR _i$1[ebp]
  0005a	8b 4d 08	 mov	 ecx, DWORD PTR _pAnalyseItem$[ebp]
  0005d	0f b6 54 01 06	 movzx	 edx, BYTE PTR [ecx+eax+6]
  00062	81 e2 f0 00 00
	00		 and	 edx, 240		; 000000f0H
  00068	c1 fa 04	 sar	 edx, 4
  0006b	88 55 fe	 mov	 BYTE PTR _cbCardColor$[ebp], dl

; 1749 : 		ASSERT(cbCardColor >= 0 && cbCardColor <= 3);
; 1750 : 		if(0 == cbColorCount[cbCardColor])

  0006e	0f b6 45 fe	 movzx	 eax, BYTE PTR _cbCardColor$[ebp]
  00072	0f b6 4c 05 f8	 movzx	 ecx, BYTE PTR _cbColorCount$[ebp+eax]
  00077	85 c9		 test	 ecx, ecx
  00079	75 09		 jne	 SHORT $LN6@IsHunYiSe

; 1751 : 		{
; 1752 : 			cbColorCount[cbCardColor] = 1;

  0007b	0f b6 55 fe	 movzx	 edx, BYTE PTR _cbCardColor$[ebp]
  0007f	c6 44 15 f8 01	 mov	 BYTE PTR _cbColorCount$[ebp+edx], 1
$LN6@IsHunYiSe:

; 1753 : 		}
; 1754 : 	}

  00084	eb be		 jmp	 SHORT $LN2@IsHunYiSe
$LN3@IsHunYiSe:

; 1755 : 
; 1756 : 	if(cbColorCount[0] + cbColorCount[1] + cbColorCount[2] == 1 && cbColorCount[3] == 1)

  00086	b8 01 00 00 00	 mov	 eax, 1
  0008b	6b c8 00	 imul	 ecx, eax, 0
  0008e	0f b6 54 0d f8	 movzx	 edx, BYTE PTR _cbColorCount$[ebp+ecx]
  00093	b8 01 00 00 00	 mov	 eax, 1
  00098	c1 e0 00	 shl	 eax, 0
  0009b	0f b6 4c 05 f8	 movzx	 ecx, BYTE PTR _cbColorCount$[ebp+eax]
  000a0	03 d1		 add	 edx, ecx
  000a2	b8 01 00 00 00	 mov	 eax, 1
  000a7	d1 e0		 shl	 eax, 1
  000a9	0f b6 4c 05 f8	 movzx	 ecx, BYTE PTR _cbColorCount$[ebp+eax]
  000ae	03 d1		 add	 edx, ecx
  000b0	83 fa 01	 cmp	 edx, 1
  000b3	75 16		 jne	 SHORT $LN7@IsHunYiSe
  000b5	ba 01 00 00 00	 mov	 edx, 1
  000ba	6b c2 03	 imul	 eax, edx, 3
  000bd	0f b6 4c 05 f8	 movzx	 ecx, BYTE PTR _cbColorCount$[ebp+eax]
  000c2	83 f9 01	 cmp	 ecx, 1
  000c5	75 04		 jne	 SHORT $LN7@IsHunYiSe

; 1757 : 	{
; 1758 : 		return true;

  000c7	b0 01		 mov	 al, 1
  000c9	eb 02		 jmp	 SHORT $LN1@IsHunYiSe
$LN7@IsHunYiSe:

; 1759 : 	}
; 1760 : 
; 1761 : 	return false;

  000cb	32 c0		 xor	 al, al
$LN1@IsHunYiSe:

; 1762 : }

  000cd	8b e5		 mov	 esp, ebp
  000cf	5d		 pop	 ebp
  000d0	c2 04 00	 ret	 4
?IsHunYiSe@CGameLogic@@IAE_NPBUtagAnalyseItem@@@Z ENDP	; CGameLogic::IsHunYiSe
_TEXT	ENDS
; Function compile flags: /Odtp
; File d:\qijianban\laok\服务端\游戏组件\老k子游戏\红中麻将\服务器组件\gamelogic.cpp
_TEXT	SEGMENT
_this$ = -8						; size = 4
_cbCardColor$ = -2					; size = 1
_i$1 = -1						; size = 1
_pAnalyseItem$ = 8					; size = 4
_bQuanFan$ = 12						; size = 4
?IsQingYiSe@CGameLogic@@IAE_NPBUtagAnalyseItem@@AA_N@Z PROC ; CGameLogic::IsQingYiSe
; _this$ = ecx

; 1709 : {

  00000	55		 push	 ebp
  00001	8b ec		 mov	 ebp, esp
  00003	83 ec 08	 sub	 esp, 8
  00006	89 4d f8	 mov	 DWORD PTR _this$[ebp], ecx

; 1710 : 	//参数校验
; 1711 : 	if(pAnalyseItem==NULL) return false;

  00009	83 7d 08 00	 cmp	 DWORD PTR _pAnalyseItem$[ebp], 0
  0000d	75 04		 jne	 SHORT $LN5@IsQingYiSe
  0000f	32 c0		 xor	 al, al
  00011	eb 5f		 jmp	 SHORT $LN1@IsQingYiSe
$LN5@IsQingYiSe:

; 1712 : 
; 1713 : 	//变量定义
; 1714 : 	BYTE  cbCardColor=pAnalyseItem->cbCardEye&MASK_COLOR;

  00013	8b 45 08	 mov	 eax, DWORD PTR _pAnalyseItem$[ebp]
  00016	0f b6 08	 movzx	 ecx, BYTE PTR [eax]
  00019	81 e1 f0 00 00
	00		 and	 ecx, 240		; 000000f0H
  0001f	88 4d fe	 mov	 BYTE PTR _cbCardColor$[ebp], cl

; 1715 : 	for(BYTE i=0;i<MAX_WEAVE;i++)

  00022	c6 45 ff 00	 mov	 BYTE PTR _i$1[ebp], 0
  00026	eb 09		 jmp	 SHORT $LN4@IsQingYiSe
$LN2@IsQingYiSe:
  00028	8a 55 ff	 mov	 dl, BYTE PTR _i$1[ebp]
  0002b	80 c2 01	 add	 dl, 1
  0002e	88 55 ff	 mov	 BYTE PTR _i$1[ebp], dl
$LN4@IsQingYiSe:
  00031	0f b6 45 ff	 movzx	 eax, BYTE PTR _i$1[ebp]
  00035	83 f8 04	 cmp	 eax, 4
  00038	7d 1f		 jge	 SHORT $LN3@IsQingYiSe

; 1716 : 	{
; 1717 : 		if((pAnalyseItem->cbCenterCard[i]&MASK_COLOR) != cbCardColor) 

  0003a	0f b6 4d ff	 movzx	 ecx, BYTE PTR _i$1[ebp]
  0003e	8b 55 08	 mov	 edx, DWORD PTR _pAnalyseItem$[ebp]
  00041	0f b6 44 0a 06	 movzx	 eax, BYTE PTR [edx+ecx+6]
  00046	25 f0 00 00 00	 and	 eax, 240		; 000000f0H
  0004b	0f b6 4d fe	 movzx	 ecx, BYTE PTR _cbCardColor$[ebp]
  0004f	3b c1		 cmp	 eax, ecx
  00051	74 04		 je	 SHORT $LN6@IsQingYiSe

; 1718 : 		{
; 1719 : 			return false;

  00053	32 c0		 xor	 al, al
  00055	eb 1b		 jmp	 SHORT $LN1@IsQingYiSe
$LN6@IsQingYiSe:

; 1720 : 		}
; 1721 : 	}

  00057	eb cf		 jmp	 SHORT $LN2@IsQingYiSe
$LN3@IsQingYiSe:

; 1722 : 
; 1723 : 	if(0x30 == cbCardColor)

  00059	0f b6 55 fe	 movzx	 edx, BYTE PTR _cbCardColor$[ebp]
  0005d	83 fa 30	 cmp	 edx, 48			; 00000030H
  00060	75 08		 jne	 SHORT $LN7@IsQingYiSe

; 1724 : 	{
; 1725 : 		bQuanFan = true;

  00062	8b 45 0c	 mov	 eax, DWORD PTR _bQuanFan$[ebp]
  00065	c6 00 01	 mov	 BYTE PTR [eax], 1

; 1726 : 	}
; 1727 : 	else 

  00068	eb 06		 jmp	 SHORT $LN8@IsQingYiSe
$LN7@IsQingYiSe:

; 1728 : 	{
; 1729 : 		bQuanFan = false;

  0006a	8b 4d 0c	 mov	 ecx, DWORD PTR _bQuanFan$[ebp]
  0006d	c6 01 00	 mov	 BYTE PTR [ecx], 0
$LN8@IsQingYiSe:

; 1730 : 	}
; 1731 : 
; 1732 : 	return true;

  00070	b0 01		 mov	 al, 1
$LN1@IsQingYiSe:

; 1733 : }

  00072	8b e5		 mov	 esp, ebp
  00074	5d		 pop	 ebp
  00075	c2 08 00	 ret	 8
?IsQingYiSe@CGameLogic@@IAE_NPBUtagAnalyseItem@@AA_N@Z ENDP ; CGameLogic::IsQingYiSe
_TEXT	ENDS
; Function compile flags: /Odtp
; File d:\qijianban\laok\服务端\游戏组件\老k子游戏\红中麻将\服务器组件\gamelogic.cpp
_TEXT	SEGMENT
_this$ = -12						; size = 4
tv78 = -8						; size = 4
_bLian$ = -3						; size = 1
_bPeng$ = -2						; size = 1
_i$1 = -1						; size = 1
_pAnalyseItem$ = 8					; size = 4
?IsJiHu@CGameLogic@@IAE_NPBUtagAnalyseItem@@@Z PROC	; CGameLogic::IsJiHu
; _this$ = ecx

; 1683 : {

  00000	55		 push	 ebp
  00001	8b ec		 mov	 ebp, esp
  00003	83 ec 0c	 sub	 esp, 12			; 0000000cH
  00006	89 4d f4	 mov	 DWORD PTR _this$[ebp], ecx

; 1684 : 	bool bPeng = false,bLian = false;

  00009	c6 45 fe 00	 mov	 BYTE PTR _bPeng$[ebp], 0
  0000d	c6 45 fd 00	 mov	 BYTE PTR _bLian$[ebp], 0

; 1685 : 	for(BYTE i = 0; i < CountArray(pAnalyseItem->cbWeaveKind); i++)

  00011	c6 45 ff 00	 mov	 BYTE PTR _i$1[ebp], 0
  00015	eb 08		 jmp	 SHORT $LN4@IsJiHu
$LN2@IsJiHu:
  00017	8a 45 ff	 mov	 al, BYTE PTR _i$1[ebp]
  0001a	04 01		 add	 al, 1
  0001c	88 45 ff	 mov	 BYTE PTR _i$1[ebp], al
$LN4@IsJiHu:
  0001f	0f b6 4d ff	 movzx	 ecx, BYTE PTR _i$1[ebp]
  00023	83 f9 04	 cmp	 ecx, 4
  00026	73 1d		 jae	 SHORT $LN3@IsJiHu

; 1686 : 	{
; 1687 : 		if(pAnalyseItem->cbWeaveKind[i]&(WIK_PENG|WIK_GANG))

  00028	0f b6 55 ff	 movzx	 edx, BYTE PTR _i$1[ebp]
  0002c	8b 45 08	 mov	 eax, DWORD PTR _pAnalyseItem$[ebp]
  0002f	0f b6 4c 10 02	 movzx	 ecx, BYTE PTR [eax+edx+2]
  00034	83 e1 18	 and	 ecx, 24			; 00000018H
  00037	74 06		 je	 SHORT $LN5@IsJiHu

; 1688 : 			bPeng = true;

  00039	c6 45 fe 01	 mov	 BYTE PTR _bPeng$[ebp], 1
  0003d	eb 04		 jmp	 SHORT $LN6@IsJiHu
$LN5@IsJiHu:

; 1689 : 		else bLian = true;

  0003f	c6 45 fd 01	 mov	 BYTE PTR _bLian$[ebp], 1
$LN6@IsJiHu:

; 1690 : 	}

  00043	eb d2		 jmp	 SHORT $LN2@IsJiHu
$LN3@IsJiHu:

; 1691 : 
; 1692 : 	return bPeng&&bLian;

  00045	0f b6 55 fe	 movzx	 edx, BYTE PTR _bPeng$[ebp]
  00049	85 d2		 test	 edx, edx
  0004b	74 11		 je	 SHORT $LN8@IsJiHu
  0004d	0f b6 45 fd	 movzx	 eax, BYTE PTR _bLian$[ebp]
  00051	85 c0		 test	 eax, eax
  00053	74 09		 je	 SHORT $LN8@IsJiHu
  00055	c7 45 f8 01 00
	00 00		 mov	 DWORD PTR tv78[ebp], 1
  0005c	eb 07		 jmp	 SHORT $LN9@IsJiHu
$LN8@IsJiHu:
  0005e	c7 45 f8 00 00
	00 00		 mov	 DWORD PTR tv78[ebp], 0
$LN9@IsJiHu:
  00065	8a 45 f8	 mov	 al, BYTE PTR tv78[ebp]

; 1693 : }

  00068	8b e5		 mov	 esp, ebp
  0006a	5d		 pop	 ebp
  0006b	c2 04 00	 ret	 4
?IsJiHu@CGameLogic@@IAE_NPBUtagAnalyseItem@@@Z ENDP	; CGameLogic::IsJiHu
_TEXT	ENDS
; Function compile flags: /Odtp
; File d:\qijianban\laok\服务端\游戏组件\老k子游戏\红中麻将\服务器组件\gamelogic.cpp
_TEXT	SEGMENT
_this$ = -8						; size = 4
_i$1 = -1						; size = 1
_pAnalyseItem$ = 8					; size = 4
?IsPingHu@CGameLogic@@IAE_NPBUtagAnalyseItem@@@Z PROC	; CGameLogic::IsPingHu
; _this$ = ecx

; 1697 : {

  00000	55		 push	 ebp
  00001	8b ec		 mov	 ebp, esp
  00003	83 ec 08	 sub	 esp, 8
  00006	89 4d f8	 mov	 DWORD PTR _this$[ebp], ecx

; 1698 : 	//检查组合
; 1699 : 	for(BYTE i = 0; i < CountArray(pAnalyseItem->cbWeaveKind); i++)

  00009	c6 45 ff 00	 mov	 BYTE PTR _i$1[ebp], 0
  0000d	eb 08		 jmp	 SHORT $LN4@IsPingHu
$LN2@IsPingHu:
  0000f	8a 45 ff	 mov	 al, BYTE PTR _i$1[ebp]
  00012	04 01		 add	 al, 1
  00014	88 45 ff	 mov	 BYTE PTR _i$1[ebp], al
$LN4@IsPingHu:
  00017	0f b6 4d ff	 movzx	 ecx, BYTE PTR _i$1[ebp]
  0001b	83 f9 04	 cmp	 ecx, 4
  0001e	73 17		 jae	 SHORT $LN3@IsPingHu

; 1700 : 	{
; 1701 : 		if(pAnalyseItem->cbWeaveKind[i]&(WIK_PENG|WIK_GANG)) return false;

  00020	0f b6 55 ff	 movzx	 edx, BYTE PTR _i$1[ebp]
  00024	8b 45 08	 mov	 eax, DWORD PTR _pAnalyseItem$[ebp]
  00027	0f b6 4c 10 02	 movzx	 ecx, BYTE PTR [eax+edx+2]
  0002c	83 e1 18	 and	 ecx, 24			; 00000018H
  0002f	74 04		 je	 SHORT $LN5@IsPingHu
  00031	32 c0		 xor	 al, al
  00033	eb 04		 jmp	 SHORT $LN1@IsPingHu
$LN5@IsPingHu:

; 1702 : 	}

  00035	eb d8		 jmp	 SHORT $LN2@IsPingHu
$LN3@IsPingHu:

; 1703 : 
; 1704 : 	return true;

  00037	b0 01		 mov	 al, 1
$LN1@IsPingHu:

; 1705 : }

  00039	8b e5		 mov	 esp, ebp
  0003b	5d		 pop	 ebp
  0003c	c2 04 00	 ret	 4
?IsPingHu@CGameLogic@@IAE_NPBUtagAnalyseItem@@@Z ENDP	; CGameLogic::IsPingHu
_TEXT	ENDS
; Function compile flags: /Odtp
; File d:\qijianban\laok\服务端\游戏组件\老k子游戏\红中麻将\服务器组件\gamelogic.cpp
_TEXT	SEGMENT
_this$ = -24						; size = 4
_index$1 = -20						; size = 4
_i$2 = -16						; size = 4
_i$3 = -12						; size = 4
_j$4 = -8						; size = 4
_i$5 = -4						; size = 4
_cbCardIndex$ = 8					; size = 4
_cbWeaveCount$ = 12					; size = 1
_ChiHuRight$ = 16					; size = 4
?IsShiSanLan@CGameLogic@@IAE_NQBEEAAVCChiHuRight@@@Z PROC ; CGameLogic::IsShiSanLan
; _this$ = ecx

; 1644 : {

  00000	55		 push	 ebp
  00001	8b ec		 mov	 ebp, esp
  00003	83 ec 18	 sub	 esp, 24			; 00000018H
  00006	89 4d e8	 mov	 DWORD PTR _this$[ebp], ecx

; 1645 : 	//组合判断
; 1646 : 	if (cbWeaveCount!=0) return false;

  00009	0f b6 45 0c	 movzx	 eax, BYTE PTR _cbWeaveCount$[ebp]
  0000d	85 c0		 test	 eax, eax
  0000f	74 07		 je	 SHORT $LN14@IsShiSanLa
  00011	32 c0		 xor	 al, al
  00013	e9 db 00 00 00	 jmp	 $LN1@IsShiSanLa
$LN14@IsShiSanLa:

; 1647 : 
; 1648 : 	for(int i=0;i<MAX_INDEX;i++)

  00018	c7 45 fc 00 00
	00 00		 mov	 DWORD PTR _i$5[ebp], 0
  0001f	eb 09		 jmp	 SHORT $LN4@IsShiSanLa
$LN2@IsShiSanLa:
  00021	8b 4d fc	 mov	 ecx, DWORD PTR _i$5[ebp]
  00024	83 c1 01	 add	 ecx, 1
  00027	89 4d fc	 mov	 DWORD PTR _i$5[ebp], ecx
$LN4@IsShiSanLa:
  0002a	83 7d fc 22	 cmp	 DWORD PTR _i$5[ebp], 34	; 00000022H
  0002e	7d 17		 jge	 SHORT $LN3@IsShiSanLa

; 1649 : 	{
; 1650 : 		if(cbCardIndex[i]>=2)//不能有重复牌

  00030	8b 55 08	 mov	 edx, DWORD PTR _cbCardIndex$[ebp]
  00033	03 55 fc	 add	 edx, DWORD PTR _i$5[ebp]
  00036	0f b6 02	 movzx	 eax, BYTE PTR [edx]
  00039	83 f8 02	 cmp	 eax, 2
  0003c	7c 07		 jl	 SHORT $LN15@IsShiSanLa

; 1651 : 			return false;

  0003e	32 c0		 xor	 al, al
  00040	e9 ae 00 00 00	 jmp	 $LN1@IsShiSanLa
$LN15@IsShiSanLa:

; 1652 : 	}

  00045	eb da		 jmp	 SHORT $LN2@IsShiSanLa
$LN3@IsShiSanLa:

; 1653 : 
; 1654 : 	for(int j=0;j<3;j++)

  00047	c7 45 f8 00 00
	00 00		 mov	 DWORD PTR _j$4[ebp], 0
  0004e	eb 09		 jmp	 SHORT $LN7@IsShiSanLa
$LN5@IsShiSanLa:
  00050	8b 4d f8	 mov	 ecx, DWORD PTR _j$4[ebp]
  00053	83 c1 01	 add	 ecx, 1
  00056	89 4d f8	 mov	 DWORD PTR _j$4[ebp], ecx
$LN7@IsShiSanLa:
  00059	83 7d f8 03	 cmp	 DWORD PTR _j$4[ebp], 3
  0005d	7d 50		 jge	 SHORT $LN6@IsShiSanLa

; 1655 : 	{
; 1656 : 		for(int i=0;i<9-2;i++)

  0005f	c7 45 f4 00 00
	00 00		 mov	 DWORD PTR _i$3[ebp], 0
  00066	eb 09		 jmp	 SHORT $LN10@IsShiSanLa
$LN8@IsShiSanLa:
  00068	8b 55 f4	 mov	 edx, DWORD PTR _i$3[ebp]
  0006b	83 c2 01	 add	 edx, 1
  0006e	89 55 f4	 mov	 DWORD PTR _i$3[ebp], edx
$LN10@IsShiSanLa:
  00071	83 7d f4 07	 cmp	 DWORD PTR _i$3[ebp], 7
  00075	7d 36		 jge	 SHORT $LN9@IsShiSanLa

; 1657 : 		{
; 1658 : 			int index = j*9+i;

  00077	6b 45 f8 09	 imul	 eax, DWORD PTR _j$4[ebp], 9
  0007b	03 45 f4	 add	 eax, DWORD PTR _i$3[ebp]
  0007e	89 45 ec	 mov	 DWORD PTR _index$1[ebp], eax

; 1659 : 			if(cbCardIndex[index]+cbCardIndex[index+1]+cbCardIndex[index+2]>1)

  00081	8b 4d 08	 mov	 ecx, DWORD PTR _cbCardIndex$[ebp]
  00084	03 4d ec	 add	 ecx, DWORD PTR _index$1[ebp]
  00087	0f b6 11	 movzx	 edx, BYTE PTR [ecx]
  0008a	8b 45 08	 mov	 eax, DWORD PTR _cbCardIndex$[ebp]
  0008d	03 45 ec	 add	 eax, DWORD PTR _index$1[ebp]
  00090	0f b6 48 01	 movzx	 ecx, BYTE PTR [eax+1]
  00094	03 d1		 add	 edx, ecx
  00096	8b 45 08	 mov	 eax, DWORD PTR _cbCardIndex$[ebp]
  00099	03 45 ec	 add	 eax, DWORD PTR _index$1[ebp]
  0009c	0f b6 48 02	 movzx	 ecx, BYTE PTR [eax+2]
  000a0	03 d1		 add	 edx, ecx
  000a2	83 fa 01	 cmp	 edx, 1
  000a5	7e 04		 jle	 SHORT $LN16@IsShiSanLa

; 1660 : 			{
; 1661 : 				//if(cbCardIndex[index+1]>0 || cbCardIndex[index+2]>0)//间隔必须>=3
; 1662 : 					return false;

  000a7	32 c0		 xor	 al, al
  000a9	eb 48		 jmp	 SHORT $LN1@IsShiSanLa
$LN16@IsShiSanLa:

; 1663 : 			}
; 1664 : 		}

  000ab	eb bb		 jmp	 SHORT $LN8@IsShiSanLa
$LN9@IsShiSanLa:

; 1665 : 	}

  000ad	eb a1		 jmp	 SHORT $LN5@IsShiSanLa
$LN6@IsShiSanLa:

; 1666 : 
; 1667 : 	for(int i=27;i<MAX_INDEX;i++)//检查风牌

  000af	c7 45 f0 1b 00
	00 00		 mov	 DWORD PTR _i$2[ebp], 27	; 0000001bH
  000b6	eb 09		 jmp	 SHORT $LN13@IsShiSanLa
$LN11@IsShiSanLa:
  000b8	8b 55 f0	 mov	 edx, DWORD PTR _i$2[ebp]
  000bb	83 c2 01	 add	 edx, 1
  000be	89 55 f0	 mov	 DWORD PTR _i$2[ebp], edx
$LN13@IsShiSanLa:
  000c1	83 7d f0 22	 cmp	 DWORD PTR _i$2[ebp], 34	; 00000022H
  000c5	7d 1d		 jge	 SHORT $LN12@IsShiSanLa

; 1668 : 	{
; 1669 : 		if(cbCardIndex[i]==0)//没有包含所有风牌，十三烂

  000c7	8b 45 08	 mov	 eax, DWORD PTR _cbCardIndex$[ebp]
  000ca	03 45 f0	 add	 eax, DWORD PTR _i$2[ebp]
  000cd	0f b6 08	 movzx	 ecx, BYTE PTR [eax]
  000d0	85 c9		 test	 ecx, ecx
  000d2	75 0e		 jne	 SHORT $LN17@IsShiSanLa

; 1670 : 		{
; 1671 : 			ChiHuRight |= CHR_SHI_SAN_LAN;

  000d4	6a 40		 push	 64			; 00000040H
  000d6	8b 4d 10	 mov	 ecx, DWORD PTR _ChiHuRight$[ebp]
  000d9	e8 00 00 00 00	 call	 ??_5CChiHuRight@@QAEAAV0@K@Z ; CChiHuRight::operator|=

; 1672 : 			return true;

  000de	b0 01		 mov	 al, 1
  000e0	eb 11		 jmp	 SHORT $LN1@IsShiSanLa
$LN17@IsShiSanLa:

; 1673 : 		}
; 1674 : 	}

  000e2	eb d4		 jmp	 SHORT $LN11@IsShiSanLa
$LN12@IsShiSanLa:

; 1675 : 
; 1676 : 	//所有风牌都有，七星十三烂
; 1677 : 	ChiHuRight |= CHR_QX_SHI_SAN_LAN;

  000e4	68 80 00 00 00	 push	 128			; 00000080H
  000e9	8b 4d 10	 mov	 ecx, DWORD PTR _ChiHuRight$[ebp]
  000ec	e8 00 00 00 00	 call	 ??_5CChiHuRight@@QAEAAV0@K@Z ; CChiHuRight::operator|=

; 1678 : 	return true;

  000f1	b0 01		 mov	 al, 1
$LN1@IsShiSanLa:

; 1679 : }

  000f3	8b e5		 mov	 esp, ebp
  000f5	5d		 pop	 ebp
  000f6	c2 0c 00	 ret	 12			; 0000000cH
?IsShiSanLan@CGameLogic@@IAE_NQBEEAAVCChiHuRight@@@Z ENDP ; CGameLogic::IsShiSanLan
_TEXT	ENDS
; Function compile flags: /Odtp
; File d:\qijianban\laok\服务端\游戏组件\老k子游戏\红中麻将\服务器组件\gamelogic.cpp
_TEXT	SEGMENT
tv75 = -12						; size = 4
_this$ = -8						; size = 4
_cbMagicCount$ = -3					; size = 1
_cbGang$ = -2						; size = 1
_i$1 = -1						; size = 1
_cbCardIndex$ = 8					; size = 4
_cbWeaveCount$ = 12					; size = 1
_ChiHuRight$ = 16					; size = 4
?IsMaQi@CGameLogic@@IAE_NQBEEAAVCChiHuRight@@@Z PROC	; CGameLogic::IsMaQi
; _this$ = ecx

; 1597 : {

  00000	55		 push	 ebp
  00001	8b ec		 mov	 ebp, esp
  00003	83 ec 0c	 sub	 esp, 12			; 0000000cH
  00006	89 4d f8	 mov	 DWORD PTR _this$[ebp], ecx

; 1598 : 	if(cbWeaveCount!=0)

  00009	0f b6 45 0c	 movzx	 eax, BYTE PTR _cbWeaveCount$[ebp]
  0000d	85 c0		 test	 eax, eax
  0000f	74 07		 je	 SHORT $LN5@IsMaQi

; 1599 : 		return false;

  00011	32 c0		 xor	 al, al
  00013	e9 fe 00 00 00	 jmp	 $LN1@IsMaQi
$LN5@IsMaQi:

; 1600 : 
; 1601 : 	BYTE cbGang = 0;

  00018	c6 45 fe 00	 mov	 BYTE PTR _cbGang$[ebp], 0

; 1602 : 	BYTE cbMagicCount = m_cbMagicIndex != MAX_INDEX ? cbCardIndex[m_cbMagicIndex] : 0;

  0001c	8b 4d f8	 mov	 ecx, DWORD PTR _this$[ebp]
  0001f	0f b6 51 04	 movzx	 edx, BYTE PTR [ecx+4]
  00023	83 fa 22	 cmp	 edx, 34			; 00000022H
  00026	74 13		 je	 SHORT $LN15@IsMaQi
  00028	8b 45 f8	 mov	 eax, DWORD PTR _this$[ebp]
  0002b	0f b6 48 04	 movzx	 ecx, BYTE PTR [eax+4]
  0002f	8b 55 08	 mov	 edx, DWORD PTR _cbCardIndex$[ebp]
  00032	0f b6 04 0a	 movzx	 eax, BYTE PTR [edx+ecx]
  00036	89 45 f4	 mov	 DWORD PTR tv75[ebp], eax
  00039	eb 07		 jmp	 SHORT $LN16@IsMaQi
$LN15@IsMaQi:
  0003b	c7 45 f4 00 00
	00 00		 mov	 DWORD PTR tv75[ebp], 0
$LN16@IsMaQi:
  00042	8a 4d f4	 mov	 cl, BYTE PTR tv75[ebp]
  00045	88 4d fd	 mov	 BYTE PTR _cbMagicCount$[ebp], cl

; 1603 : 	//变量定义
; 1604 : 	for(BYTE i=0;i<MAX_INDEX;i++)

  00048	c6 45 ff 00	 mov	 BYTE PTR _i$1[ebp], 0
  0004c	eb 09		 jmp	 SHORT $LN4@IsMaQi
$LN2@IsMaQi:
  0004e	8a 55 ff	 mov	 dl, BYTE PTR _i$1[ebp]
  00051	80 c2 01	 add	 dl, 1
  00054	88 55 ff	 mov	 BYTE PTR _i$1[ebp], dl
$LN4@IsMaQi:
  00057	0f b6 45 ff	 movzx	 eax, BYTE PTR _i$1[ebp]
  0005b	83 f8 22	 cmp	 eax, 34			; 00000022H
  0005e	7d 74		 jge	 SHORT $LN3@IsMaQi

; 1605 : 	{
; 1606 : 		if(cbCardIndex[i] != 0 && i != m_cbMagicIndex)

  00060	0f b6 4d ff	 movzx	 ecx, BYTE PTR _i$1[ebp]
  00064	8b 55 08	 mov	 edx, DWORD PTR _cbCardIndex$[ebp]
  00067	0f b6 04 0a	 movzx	 eax, BYTE PTR [edx+ecx]
  0006b	85 c0		 test	 eax, eax
  0006d	74 60		 je	 SHORT $LN6@IsMaQi
  0006f	0f b6 4d ff	 movzx	 ecx, BYTE PTR _i$1[ebp]
  00073	8b 55 f8	 mov	 edx, DWORD PTR _this$[ebp]
  00076	0f b6 42 04	 movzx	 eax, BYTE PTR [edx+4]
  0007a	3b c8		 cmp	 ecx, eax
  0007c	74 51		 je	 SHORT $LN6@IsMaQi

; 1607 : 		{			
; 1608 : 			if(cbCardIndex[i] % 2 == 1)

  0007e	0f b6 4d ff	 movzx	 ecx, BYTE PTR _i$1[ebp]
  00082	8b 55 08	 mov	 edx, DWORD PTR _cbCardIndex$[ebp]
  00085	0f b6 04 0a	 movzx	 eax, BYTE PTR [edx+ecx]
  00089	25 01 00 00 80	 and	 eax, -2147483647	; 80000001H
  0008e	79 05		 jns	 SHORT $LN17@IsMaQi
  00090	48		 dec	 eax
  00091	83 c8 fe	 or	 eax, -2			; fffffffeH
  00094	40		 inc	 eax
$LN17@IsMaQi:
  00095	83 f8 01	 cmp	 eax, 1
  00098	75 18		 jne	 SHORT $LN7@IsMaQi

; 1609 : 			{
; 1610 : 				if(cbMagicCount >= 1)

  0009a	0f b6 4d fd	 movzx	 ecx, BYTE PTR _cbMagicCount$[ebp]
  0009e	83 f9 01	 cmp	 ecx, 1
  000a1	7c 0b		 jl	 SHORT $LN8@IsMaQi

; 1611 : 				{
; 1612 : 					cbMagicCount--;

  000a3	8a 55 fd	 mov	 dl, BYTE PTR _cbMagicCount$[ebp]
  000a6	80 ea 01	 sub	 dl, 1
  000a9	88 55 fd	 mov	 BYTE PTR _cbMagicCount$[ebp], dl

; 1613 : 				}
; 1614 : 				else

  000ac	eb 04		 jmp	 SHORT $LN7@IsMaQi
$LN8@IsMaQi:

; 1615 : 				{
; 1616 : 					return false;//有非对子，跳出

  000ae	32 c0		 xor	 al, al
  000b0	eb 64		 jmp	 SHORT $LN1@IsMaQi
$LN7@IsMaQi:

; 1617 : 				}
; 1618 : 			}
; 1619 : 
; 1620 : 			cbGang+= cbCardIndex[i] / 4;

  000b2	0f b6 45 ff	 movzx	 eax, BYTE PTR _i$1[ebp]
  000b6	8b 4d 08	 mov	 ecx, DWORD PTR _cbCardIndex$[ebp]
  000b9	0f b6 04 01	 movzx	 eax, BYTE PTR [ecx+eax]
  000bd	99		 cdq
  000be	83 e2 03	 and	 edx, 3
  000c1	03 c2		 add	 eax, edx
  000c3	c1 f8 02	 sar	 eax, 2
  000c6	0f b6 55 fe	 movzx	 edx, BYTE PTR _cbGang$[ebp]
  000ca	03 d0		 add	 edx, eax
  000cc	88 55 fe	 mov	 BYTE PTR _cbGang$[ebp], dl
$LN6@IsMaQi:

; 1621 : 		}
; 1622 : 	}

  000cf	e9 7a ff ff ff	 jmp	 $LN2@IsMaQi
$LN3@IsMaQi:

; 1623 : 
; 1624 : 	if(cbGang >= 2)//手上有两个4张，王中王

  000d4	0f b6 45 fe	 movzx	 eax, BYTE PTR _cbGang$[ebp]
  000d8	83 f8 02	 cmp	 eax, 2
  000db	7c 10		 jl	 SHORT $LN10@IsMaQi

; 1625 : 	{
; 1626 : 		ChiHuRight |= CHR_MA_QI_WZW;

  000dd	6a 20		 push	 32			; 00000020H
  000df	8b 4d 10	 mov	 ecx, DWORD PTR _ChiHuRight$[ebp]
  000e2	e8 00 00 00 00	 call	 ??_5CChiHuRight@@QAEAAV0@K@Z ; CChiHuRight::operator|=

; 1627 : 		return true;

  000e7	b0 01		 mov	 al, 1
  000e9	eb 2b		 jmp	 SHORT $LN1@IsMaQi
  000eb	eb 27		 jmp	 SHORT $LN11@IsMaQi
$LN10@IsMaQi:

; 1628 : 	}
; 1629 : 	else if(cbGang == 1)//有一个4张，麻七王

  000ed	0f b6 4d fe	 movzx	 ecx, BYTE PTR _cbGang$[ebp]
  000f1	83 f9 01	 cmp	 ecx, 1
  000f4	75 10		 jne	 SHORT $LN12@IsMaQi

; 1630 : 	{
; 1631 : 		ChiHuRight |= CHR_MA_QI_WANG;

  000f6	6a 10		 push	 16			; 00000010H
  000f8	8b 4d 10	 mov	 ecx, DWORD PTR _ChiHuRight$[ebp]
  000fb	e8 00 00 00 00	 call	 ??_5CChiHuRight@@QAEAAV0@K@Z ; CChiHuRight::operator|=

; 1632 : 		return true;

  00100	b0 01		 mov	 al, 1
  00102	eb 12		 jmp	 SHORT $LN1@IsMaQi

; 1633 : 	}
; 1634 : 	else//麻七对

  00104	eb 0e		 jmp	 SHORT $LN11@IsMaQi
$LN12@IsMaQi:

; 1635 : 	{
; 1636 : 		ChiHuRight |=CHR_MA_QI_DUI;

  00106	6a 08		 push	 8
  00108	8b 4d 10	 mov	 ecx, DWORD PTR _ChiHuRight$[ebp]
  0010b	e8 00 00 00 00	 call	 ??_5CChiHuRight@@QAEAAV0@K@Z ; CChiHuRight::operator|=

; 1637 : 		return true;

  00110	b0 01		 mov	 al, 1
  00112	eb 02		 jmp	 SHORT $LN1@IsMaQi
$LN11@IsMaQi:

; 1638 : 	}
; 1639 : 
; 1640 : 	return false;

  00114	32 c0		 xor	 al, al
$LN1@IsMaQi:

; 1641 : }

  00116	8b e5		 mov	 esp, ebp
  00118	5d		 pop	 ebp
  00119	c2 0c 00	 ret	 12			; 0000000cH
?IsMaQi@CGameLogic@@IAE_NQBEEAAVCChiHuRight@@@Z ENDP	; CGameLogic::IsMaQi
_TEXT	ENDS
; Function compile flags: /Odtp
; File d:\qijianban\laok\服务端\游戏组件\老k子游戏\红中麻将\服务器组件\gamelogic.cpp
_TEXT	SEGMENT
_this$ = -8						; size = 4
_i$1 = -1						; size = 1
_pAnalyseItem$ = 8					; size = 4
?IsPengPeng@CGameLogic@@IAE_NPBUtagAnalyseItem@@@Z PROC	; CGameLogic::IsPengPeng
; _this$ = ecx

; 1586 : {

  00000	55		 push	 ebp
  00001	8b ec		 mov	 ebp, esp
  00003	83 ec 08	 sub	 esp, 8
  00006	89 4d f8	 mov	 DWORD PTR _this$[ebp], ecx

; 1587 : 	for(BYTE i = 0; i < CountArray(pAnalyseItem->cbWeaveKind); i++)

  00009	c6 45 ff 00	 mov	 BYTE PTR _i$1[ebp], 0
  0000d	eb 08		 jmp	 SHORT $LN4@IsPengPeng
$LN2@IsPengPeng:
  0000f	8a 45 ff	 mov	 al, BYTE PTR _i$1[ebp]
  00012	04 01		 add	 al, 1
  00014	88 45 ff	 mov	 BYTE PTR _i$1[ebp], al
$LN4@IsPengPeng:
  00017	0f b6 4d ff	 movzx	 ecx, BYTE PTR _i$1[ebp]
  0001b	83 f9 04	 cmp	 ecx, 4
  0001e	73 17		 jae	 SHORT $LN3@IsPengPeng

; 1588 : 	{
; 1589 : 		if(pAnalyseItem->cbWeaveKind[i]&(WIK_LEFT|WIK_CENTER|WIK_RIGHT))

  00020	0f b6 55 ff	 movzx	 edx, BYTE PTR _i$1[ebp]
  00024	8b 45 08	 mov	 eax, DWORD PTR _pAnalyseItem$[ebp]
  00027	0f b6 4c 10 02	 movzx	 ecx, BYTE PTR [eax+edx+2]
  0002c	83 e1 07	 and	 ecx, 7
  0002f	74 04		 je	 SHORT $LN5@IsPengPeng

; 1590 : 			return false;

  00031	32 c0		 xor	 al, al
  00033	eb 04		 jmp	 SHORT $LN1@IsPengPeng
$LN5@IsPengPeng:

; 1591 : 	}

  00035	eb d8		 jmp	 SHORT $LN2@IsPengPeng
$LN3@IsPengPeng:

; 1592 : 	return true;

  00037	b0 01		 mov	 al, 1
$LN1@IsPengPeng:

; 1593 : }

  00039	8b e5		 mov	 esp, ebp
  0003b	5d		 pop	 ebp
  0003c	c2 04 00	 ret	 4
?IsPengPeng@CGameLogic@@IAE_NPBUtagAnalyseItem@@@Z ENDP	; CGameLogic::IsPengPeng
_TEXT	ENDS
; Function compile flags: /Odtp
; File d:\qijianban\laok\服务端\游戏组件\老k子游戏\红中麻将\服务器组件\gamelogic.cpp
_TEXT	SEGMENT
tv869 = -1408						; size = 4
tv467 = -1404						; size = 4
_cbValidIndex$1 = -1400					; size = 3
_nMagicCountTemp$2 = -1396				; size = 4
_i$3 = -1392						; size = 4
_cbNewIndex$4 = -1385					; size = 1
_cbIndex$5 = -1384					; size = 4
tv278 = -1380						; size = 1
tv202 = -1379						; size = 1
tv268 = -1378						; size = 1
tv273 = -1377						; size = 1
_bEnoughCard$6 = -1376					; size = 1
tv356 = -1375						; size = 1
tv351 = -1374						; size = 1
tv346 = -1373						; size = 1
tv334 = -1372						; size = 1
tv329 = -1371						; size = 1
tv324 = -1370						; size = 1
_cbCardIndex$7 = -1369					; size = 1
_cbIndex$8 = -1368					; size = 3
_nTempIndex$9 = -1364					; size = 4
_cbCenterCard$10 = -1360				; size = 1
_bMagicThree$ = -1359					; size = 1
_cbTempMagicCount$ = -1358				; size = 1
_bMagicEye$11 = -1357					; size = 1
_j$12 = -1356						; size = 1
_cbCardEye$13 = -1355					; size = 1
_i$14 = -1354						; size = 1
_i$15 = -1353						; size = 1
_cbCardCount$ = -1352					; size = 1
_cbKindItemCount$ = -1351				; size = 1
_i$16 = -1350						; size = 1
_i$17 = -1349						; size = 1
_i$18 = -1348						; size = 1
_cbMagicCardCount$ = -1347				; size = 1
_j$19 = -1346						; size = 1
_i$20 = -1345						; size = 1
_j$21 = -1344						; size = 1
_cbIndex$22 = -1343					; size = 1
_i$23 = -1342						; size = 1
_cbLessKindItem$ = -1341				; size = 1
_this$ = -1340						; size = 4
_i$24 = -1334						; size = 1
_i$25 = -1333						; size = 1
_AnalyseItem$26 = -1332					; size = 26
_AnalyseItem$27 = -1304					; size = 26
_TempKindItem$ = -1276					; size = 6
_KindItemTemp$28 = -1268				; size = 588
_KindItem$ = -680					; size = 588
_pKindItem$29 = -92					; size = 16
_cbCardIndexTemp$30 = -76				; size = 34
_cbMagicCardIndex$ = -40				; size = 34
__$ArrayPad$ = -4					; size = 4
_cbCardIndex$ = 8					; size = 4
_WeaveItem$ = 12					; size = 4
_cbWeaveCount$ = 16					; size = 1
_AnalyseItemArray$ = 20					; size = 4
?AnalyseCard@CGameLogic@@AAE_NQBEQBUtagWeaveItem@@EAAV?$CWHArray@UtagAnalyseItem@@AAU1@@@@Z PROC ; CGameLogic::AnalyseCard
; _this$ = ecx

; 1238 : {

  00000	55		 push	 ebp
  00001	8b ec		 mov	 ebp, esp
  00003	81 ec 80 05 00
	00		 sub	 esp, 1408		; 00000580H
  00009	a1 00 00 00 00	 mov	 eax, DWORD PTR ___security_cookie
  0000e	33 c5		 xor	 eax, ebp
  00010	89 45 fc	 mov	 DWORD PTR __$ArrayPad$[ebp], eax
  00013	56		 push	 esi
  00014	89 8d c4 fa ff
	ff		 mov	 DWORD PTR _this$[ebp], ecx

; 1239 : 	//计算数目
; 1240 : 	BYTE cbCardCount=GetCardCount(cbCardIndex);

  0001a	8b 45 08	 mov	 eax, DWORD PTR _cbCardIndex$[ebp]
  0001d	50		 push	 eax
  0001e	8b 8d c4 fa ff
	ff		 mov	 ecx, DWORD PTR _this$[ebp]
  00024	e8 00 00 00 00	 call	 ?GetCardCount@CGameLogic@@QAEEQBE@Z ; CGameLogic::GetCardCount
  00029	88 85 b8 fa ff
	ff		 mov	 BYTE PTR _cbCardCount$[ebp], al

; 1241 : 
; 1242 : 	//效验数目
; 1243 : 	ASSERT((cbCardCount>=2)&&(cbCardCount<=MAX_COUNT)&&((cbCardCount-2)%3==0));
; 1244 : 	if ((cbCardCount<2)||(cbCardCount>MAX_COUNT)||((cbCardCount-2)%3!=0))

  0002f	0f b6 8d b8 fa
	ff ff		 movzx	 ecx, BYTE PTR _cbCardCount$[ebp]
  00036	83 f9 02	 cmp	 ecx, 2
  00039	7c 22		 jl	 SHORT $LN50@AnalyseCar
  0003b	0f b6 95 b8 fa
	ff ff		 movzx	 edx, BYTE PTR _cbCardCount$[ebp]
  00042	83 fa 0e	 cmp	 edx, 14			; 0000000eH
  00045	7f 16		 jg	 SHORT $LN50@AnalyseCar
  00047	0f b6 85 b8 fa
	ff ff		 movzx	 eax, BYTE PTR _cbCardCount$[ebp]
  0004e	83 e8 02	 sub	 eax, 2
  00051	99		 cdq
  00052	b9 03 00 00 00	 mov	 ecx, 3
  00057	f7 f9		 idiv	 ecx
  00059	85 d2		 test	 edx, edx
  0005b	74 07		 je	 SHORT $LN49@AnalyseCar
$LN50@AnalyseCar:

; 1245 : 		return false;

  0005d	32 c0		 xor	 al, al
  0005f	e9 ed 10 00 00	 jmp	 $LN1@AnalyseCar
$LN49@AnalyseCar:

; 1246 : 
; 1247 : 	//变量定义
; 1248 : 	BYTE cbKindItemCount=0;

  00064	c6 85 b9 fa ff
	ff 00		 mov	 BYTE PTR _cbKindItemCount$[ebp], 0

; 1249 : 	tagKindItem KindItem[27*2+28+16];
; 1250 : 	ZeroMemory(KindItem,sizeof(KindItem));

  0006b	68 4c 02 00 00	 push	 588			; 0000024cH
  00070	6a 00		 push	 0
  00072	8d 95 58 fd ff
	ff		 lea	 edx, DWORD PTR _KindItem$[ebp]
  00078	52		 push	 edx
  00079	e8 00 00 00 00	 call	 _memset
  0007e	83 c4 0c	 add	 esp, 12			; 0000000cH

; 1251 : 	tagKindItem TempKindItem;
; 1252 : 	ZeroMemory(&TempKindItem,sizeof(TempKindItem));

  00081	6a 06		 push	 6
  00083	6a 00		 push	 0
  00085	8d 85 04 fb ff
	ff		 lea	 eax, DWORD PTR _TempKindItem$[ebp]
  0008b	50		 push	 eax
  0008c	e8 00 00 00 00	 call	 _memset
  00091	83 c4 0c	 add	 esp, 12			; 0000000cH

; 1253 : 	bool bMagicThree=false;

  00094	c6 85 b1 fa ff
	ff 00		 mov	 BYTE PTR _bMagicThree$[ebp], 0

; 1254 : 
; 1255 : 	//需求判断
; 1256 : 	BYTE cbLessKindItem=(cbCardCount-2)/3;

  0009b	0f b6 85 b8 fa
	ff ff		 movzx	 eax, BYTE PTR _cbCardCount$[ebp]
  000a2	83 e8 02	 sub	 eax, 2
  000a5	99		 cdq
  000a6	b9 03 00 00 00	 mov	 ecx, 3
  000ab	f7 f9		 idiv	 ecx
  000ad	88 85 c3 fa ff
	ff		 mov	 BYTE PTR _cbLessKindItem$[ebp], al

; 1257 : 	ASSERT((cbLessKindItem+cbWeaveCount)==MAX_WEAVE);
; 1258 : 
; 1259 : 	//单吊判断
; 1260 : 	if (cbLessKindItem==0)

  000b3	0f b6 95 c3 fa
	ff ff		 movzx	 edx, BYTE PTR _cbLessKindItem$[ebp]
  000ba	85 d2		 test	 edx, edx
  000bc	0f 85 ed 01 00
	00		 jne	 $LN51@AnalyseCar

; 1261 : 	{
; 1262 : 		//效验参数
; 1263 : 		ASSERT((cbCardCount==2)&&(cbWeaveCount==MAX_WEAVE));
; 1264 : 
; 1265 : 		//牌眼判断
; 1266 : 		for (BYTE i=0;i<MAX_INDEX;i++)

  000c2	c6 85 c2 fa ff
	ff 00		 mov	 BYTE PTR _i$23[ebp], 0
  000c9	eb 0e		 jmp	 SHORT $LN4@AnalyseCar
$LN2@AnalyseCar:
  000cb	8a 85 c2 fa ff
	ff		 mov	 al, BYTE PTR _i$23[ebp]
  000d1	04 01		 add	 al, 1
  000d3	88 85 c2 fa ff
	ff		 mov	 BYTE PTR _i$23[ebp], al
$LN4@AnalyseCar:
  000d9	0f b6 8d c2 fa
	ff ff		 movzx	 ecx, BYTE PTR _i$23[ebp]
  000e0	83 f9 22	 cmp	 ecx, 34			; 00000022H
  000e3	0f 8d bf 01 00
	00		 jge	 $LN3@AnalyseCar

; 1267 : 		{
; 1268 : 			if (cbCardIndex[i]==2 || (m_cbMagicIndex != MAX_INDEX && i != m_cbMagicIndex && cbCardIndex[m_cbMagicIndex]+cbCardIndex[i]==2))

  000e9	0f b6 95 c2 fa
	ff ff		 movzx	 edx, BYTE PTR _i$23[ebp]
  000f0	8b 45 08	 mov	 eax, DWORD PTR _cbCardIndex$[ebp]
  000f3	0f b6 0c 10	 movzx	 ecx, BYTE PTR [eax+edx]
  000f7	83 f9 02	 cmp	 ecx, 2
  000fa	74 56		 je	 SHORT $LN53@AnalyseCar
  000fc	8b 95 c4 fa ff
	ff		 mov	 edx, DWORD PTR _this$[ebp]
  00102	0f b6 42 04	 movzx	 eax, BYTE PTR [edx+4]
  00106	83 f8 22	 cmp	 eax, 34			; 00000022H
  00109	0f 84 94 01 00
	00		 je	 $LN52@AnalyseCar
  0010f	0f b6 8d c2 fa
	ff ff		 movzx	 ecx, BYTE PTR _i$23[ebp]
  00116	8b 95 c4 fa ff
	ff		 mov	 edx, DWORD PTR _this$[ebp]
  0011c	0f b6 42 04	 movzx	 eax, BYTE PTR [edx+4]
  00120	3b c8		 cmp	 ecx, eax
  00122	0f 84 7b 01 00
	00		 je	 $LN52@AnalyseCar
  00128	8b 8d c4 fa ff
	ff		 mov	 ecx, DWORD PTR _this$[ebp]
  0012e	0f b6 51 04	 movzx	 edx, BYTE PTR [ecx+4]
  00132	8b 45 08	 mov	 eax, DWORD PTR _cbCardIndex$[ebp]
  00135	0f b6 0c 10	 movzx	 ecx, BYTE PTR [eax+edx]
  00139	0f b6 95 c2 fa
	ff ff		 movzx	 edx, BYTE PTR _i$23[ebp]
  00140	8b 45 08	 mov	 eax, DWORD PTR _cbCardIndex$[ebp]
  00143	0f b6 14 10	 movzx	 edx, BYTE PTR [eax+edx]
  00147	03 ca		 add	 ecx, edx
  00149	83 f9 02	 cmp	 ecx, 2
  0014c	0f 85 51 01 00
	00		 jne	 $LN52@AnalyseCar
$LN53@AnalyseCar:

; 1269 : 			{
; 1270 : 				//变量定义
; 1271 : 				tagAnalyseItem AnalyseItem;
; 1272 : 				ZeroMemory(&AnalyseItem,sizeof(AnalyseItem));

  00152	6a 1a		 push	 26			; 0000001aH
  00154	6a 00		 push	 0
  00156	8d 85 cc fa ff
	ff		 lea	 eax, DWORD PTR _AnalyseItem$26[ebp]
  0015c	50		 push	 eax
  0015d	e8 00 00 00 00	 call	 _memset
  00162	83 c4 0c	 add	 esp, 12			; 0000000cH

; 1273 : 
; 1274 : 				//设置结果
; 1275 : 				for (BYTE j=0;j<cbWeaveCount;j++)

  00165	c6 85 be fa ff
	ff 00		 mov	 BYTE PTR _j$19[ebp], 0
  0016c	eb 0f		 jmp	 SHORT $LN7@AnalyseCar
$LN5@AnalyseCar:
  0016e	8a 8d be fa ff
	ff		 mov	 cl, BYTE PTR _j$19[ebp]
  00174	80 c1 01	 add	 cl, 1
  00177	88 8d be fa ff
	ff		 mov	 BYTE PTR _j$19[ebp], cl
$LN7@AnalyseCar:
  0017d	0f b6 95 be fa
	ff ff		 movzx	 edx, BYTE PTR _j$19[ebp]
  00184	0f b6 45 10	 movzx	 eax, BYTE PTR _cbWeaveCount$[ebp]
  00188	3b d0		 cmp	 edx, eax
  0018a	7d 6d		 jge	 SHORT $LN6@AnalyseCar

; 1276 : 				{
; 1277 : 					AnalyseItem.cbWeaveKind[j]=WeaveItem[j].cbWeaveKind;

  0018c	0f b6 8d be fa
	ff ff		 movzx	 ecx, BYTE PTR _j$19[ebp]
  00193	6b d1 09	 imul	 edx, ecx, 9
  00196	0f b6 85 be fa
	ff ff		 movzx	 eax, BYTE PTR _j$19[ebp]
  0019d	8b 4d 0c	 mov	 ecx, DWORD PTR _WeaveItem$[ebp]
  001a0	8a 14 11	 mov	 dl, BYTE PTR [ecx+edx]
  001a3	88 94 05 ce fa
	ff ff		 mov	 BYTE PTR _AnalyseItem$26[ebp+eax+2], dl

; 1278 : 					AnalyseItem.cbCenterCard[j]=WeaveItem[j].cbCenterCard;

  001aa	0f b6 85 be fa
	ff ff		 movzx	 eax, BYTE PTR _j$19[ebp]
  001b1	6b c8 09	 imul	 ecx, eax, 9
  001b4	0f b6 95 be fa
	ff ff		 movzx	 edx, BYTE PTR _j$19[ebp]
  001bb	8b 45 0c	 mov	 eax, DWORD PTR _WeaveItem$[ebp]
  001be	8a 4c 08 01	 mov	 cl, BYTE PTR [eax+ecx+1]
  001c2	88 8c 15 d2 fa
	ff ff		 mov	 BYTE PTR _AnalyseItem$26[ebp+edx+6], cl

; 1279 : 					CopyMemory(AnalyseItem.cbCardData[j],WeaveItem[j].cbCardData,sizeof(WeaveItem[j].cbCardData));

  001c9	6a 04		 push	 4
  001cb	0f b6 95 be fa
	ff ff		 movzx	 edx, BYTE PTR _j$19[ebp]
  001d2	6b c2 09	 imul	 eax, edx, 9
  001d5	8b 4d 0c	 mov	 ecx, DWORD PTR _WeaveItem$[ebp]
  001d8	8d 54 01 05	 lea	 edx, DWORD PTR [ecx+eax+5]
  001dc	52		 push	 edx
  001dd	0f b6 85 be fa
	ff ff		 movzx	 eax, BYTE PTR _j$19[ebp]
  001e4	8d 8c 85 d6 fa
	ff ff		 lea	 ecx, DWORD PTR _AnalyseItem$26[ebp+eax*4+10]
  001eb	51		 push	 ecx
  001ec	e8 00 00 00 00	 call	 _memcpy
  001f1	83 c4 0c	 add	 esp, 12			; 0000000cH

; 1280 : 				}

  001f4	e9 75 ff ff ff	 jmp	 $LN5@AnalyseCar
$LN6@AnalyseCar:

; 1281 : 				if(cbCardIndex[i] < 2 || i == m_cbMagicIndex)

  001f9	0f b6 95 c2 fa
	ff ff		 movzx	 edx, BYTE PTR _i$23[ebp]
  00200	8b 45 08	 mov	 eax, DWORD PTR _cbCardIndex$[ebp]
  00203	0f b6 0c 10	 movzx	 ecx, BYTE PTR [eax+edx]
  00207	83 f9 02	 cmp	 ecx, 2
  0020a	7c 15		 jl	 SHORT $LN56@AnalyseCar
  0020c	0f b6 95 c2 fa
	ff ff		 movzx	 edx, BYTE PTR _i$23[ebp]
  00213	8b 85 c4 fa ff
	ff		 mov	 eax, DWORD PTR _this$[ebp]
  00219	0f b6 48 04	 movzx	 ecx, BYTE PTR [eax+4]
  0021d	3b d1		 cmp	 edx, ecx
  0021f	75 09		 jne	 SHORT $LN54@AnalyseCar
$LN56@AnalyseCar:

; 1282 : 					AnalyseItem.bMagicEye = true;

  00221	c6 85 cd fa ff
	ff 01		 mov	 BYTE PTR _AnalyseItem$26[ebp+1], 1
  00228	eb 07		 jmp	 SHORT $LN55@AnalyseCar
$LN54@AnalyseCar:

; 1283 : 				else AnalyseItem.bMagicEye = false;

  0022a	c6 85 cd fa ff
	ff 00		 mov	 BYTE PTR _AnalyseItem$26[ebp+1], 0
$LN55@AnalyseCar:

; 1284 : 				AnalyseItem.cbCardEye=cbCardIndex[i]==0?SwitchToCardData(cbCardIndex[m_cbMagicIndex]):SwitchToCardData(i);

  00231	0f b6 95 c2 fa
	ff ff		 movzx	 edx, BYTE PTR _i$23[ebp]
  00238	8b 45 08	 mov	 eax, DWORD PTR _cbCardIndex$[ebp]
  0023b	0f b6 0c 10	 movzx	 ecx, BYTE PTR [eax+edx]
  0023f	85 c9		 test	 ecx, ecx
  00241	75 25		 jne	 SHORT $LN96@AnalyseCar
  00243	8b 95 c4 fa ff
	ff		 mov	 edx, DWORD PTR _this$[ebp]
  00249	0f b6 42 04	 movzx	 eax, BYTE PTR [edx+4]
  0024d	8b 4d 08	 mov	 ecx, DWORD PTR _cbCardIndex$[ebp]
  00250	0f b6 14 01	 movzx	 edx, BYTE PTR [ecx+eax]
  00254	52		 push	 edx
  00255	8b 8d c4 fa ff
	ff		 mov	 ecx, DWORD PTR _this$[ebp]
  0025b	e8 00 00 00 00	 call	 ?SwitchToCardData@CGameLogic@@QAEEE@Z ; CGameLogic::SwitchToCardData
  00260	88 85 9d fa ff
	ff		 mov	 BYTE PTR tv202[ebp], al
  00266	eb 19		 jmp	 SHORT $LN97@AnalyseCar
$LN96@AnalyseCar:
  00268	0f b6 85 c2 fa
	ff ff		 movzx	 eax, BYTE PTR _i$23[ebp]
  0026f	50		 push	 eax
  00270	8b 8d c4 fa ff
	ff		 mov	 ecx, DWORD PTR _this$[ebp]
  00276	e8 00 00 00 00	 call	 ?SwitchToCardData@CGameLogic@@QAEEE@Z ; CGameLogic::SwitchToCardData
  0027b	88 85 9d fa ff
	ff		 mov	 BYTE PTR tv202[ebp], al
$LN97@AnalyseCar:
  00281	8a 8d 9d fa ff
	ff		 mov	 cl, BYTE PTR tv202[ebp]
  00287	88 8d cc fa ff
	ff		 mov	 BYTE PTR _AnalyseItem$26[ebp], cl

; 1285 : 
; 1286 : 				//插入结果
; 1287 : 				AnalyseItemArray.Add(AnalyseItem);

  0028d	8d 95 cc fa ff
	ff		 lea	 edx, DWORD PTR _AnalyseItem$26[ebp]
  00293	52		 push	 edx
  00294	8b 4d 14	 mov	 ecx, DWORD PTR _AnalyseItemArray$[ebp]
  00297	e8 00 00 00 00	 call	 ?Add@?$CWHArray@UtagAnalyseItem@@AAU1@@@QAEHAAUtagAnalyseItem@@@Z ; CWHArray<tagAnalyseItem,tagAnalyseItem &>::Add

; 1288 : 
; 1289 : 				return true;

  0029c	b0 01		 mov	 al, 1
  0029e	e9 ae 0e 00 00	 jmp	 $LN1@AnalyseCar
$LN52@AnalyseCar:

; 1290 : 			}
; 1291 : 		}

  002a3	e9 23 fe ff ff	 jmp	 $LN2@AnalyseCar
$LN3@AnalyseCar:

; 1292 : 
; 1293 : 		return false;

  002a8	32 c0		 xor	 al, al
  002aa	e9 a2 0e 00 00	 jmp	 $LN1@AnalyseCar
$LN51@AnalyseCar:

; 1294 : 	}
; 1295 : 
; 1296 : 	//拆分分析
; 1297 : 	BYTE cbMagicCardIndex[MAX_INDEX];
; 1298 : 	CopyMemory(cbMagicCardIndex,cbCardIndex,sizeof(cbMagicCardIndex));

  002af	6a 22		 push	 34			; 00000022H
  002b1	8b 45 08	 mov	 eax, DWORD PTR _cbCardIndex$[ebp]
  002b4	50		 push	 eax
  002b5	8d 4d d8	 lea	 ecx, DWORD PTR _cbMagicCardIndex$[ebp]
  002b8	51		 push	 ecx
  002b9	e8 00 00 00 00	 call	 _memcpy
  002be	83 c4 0c	 add	 esp, 12			; 0000000cH

; 1299 : 
; 1300 : 	//如果有财神
; 1301 : 	BYTE cbMagicCardCount = 0;

  002c1	c6 85 bd fa ff
	ff 00		 mov	 BYTE PTR _cbMagicCardCount$[ebp], 0

; 1302 : 	BYTE cbTempMagicCount = 0;

  002c8	c6 85 b2 fa ff
	ff 00		 mov	 BYTE PTR _cbTempMagicCount$[ebp], 0

; 1303 : 
; 1304 : 	if(m_cbMagicIndex != MAX_INDEX)

  002cf	8b 95 c4 fa ff
	ff		 mov	 edx, DWORD PTR _this$[ebp]
  002d5	0f b6 42 04	 movzx	 eax, BYTE PTR [edx+4]
  002d9	83 f8 22	 cmp	 eax, 34			; 00000022H
  002dc	74 46		 je	 SHORT $LN57@AnalyseCar

; 1305 : 	{
; 1306 : 		cbMagicCardCount = cbCardIndex[m_cbMagicIndex];

  002de	8b 8d c4 fa ff
	ff		 mov	 ecx, DWORD PTR _this$[ebp]
  002e4	0f b6 51 04	 movzx	 edx, BYTE PTR [ecx+4]
  002e8	8b 45 08	 mov	 eax, DWORD PTR _cbCardIndex$[ebp]
  002eb	8a 0c 10	 mov	 cl, BYTE PTR [eax+edx]
  002ee	88 8d bd fa ff
	ff		 mov	 BYTE PTR _cbMagicCardCount$[ebp], cl

; 1307 : 		//如果财神有代替牌，财神与代替牌转换
; 1308 : 		if(INDEX_REPLACE_CARD != MAX_INDEX)

  002f4	33 d2		 xor	 edx, edx
  002f6	74 2c		 je	 SHORT $LN57@AnalyseCar

; 1309 : 		{
; 1310 : 			cbMagicCardIndex[m_cbMagicIndex] = cbMagicCardIndex[INDEX_REPLACE_CARD];

  002f8	b8 01 00 00 00	 mov	 eax, 1
  002fd	6b c8 22	 imul	 ecx, eax, 34
  00300	8b 95 c4 fa ff
	ff		 mov	 edx, DWORD PTR _this$[ebp]
  00306	0f b6 42 04	 movzx	 eax, BYTE PTR [edx+4]
  0030a	8a 4c 0d d8	 mov	 cl, BYTE PTR _cbMagicCardIndex$[ebp+ecx]
  0030e	88 4c 05 d8	 mov	 BYTE PTR _cbMagicCardIndex$[ebp+eax], cl

; 1311 : 			cbMagicCardIndex[INDEX_REPLACE_CARD] = cbMagicCardCount;

  00312	ba 01 00 00 00	 mov	 edx, 1
  00317	6b c2 22	 imul	 eax, edx, 34
  0031a	8a 8d bd fa ff
	ff		 mov	 cl, BYTE PTR _cbMagicCardCount$[ebp]
  00320	88 4c 05 d8	 mov	 BYTE PTR _cbMagicCardIndex$[ebp+eax], cl
$LN57@AnalyseCar:

; 1312 : 		}
; 1313 : 	}
; 1314 : 
; 1315 : 	if (cbCardCount>=3)

  00324	0f b6 95 b8 fa
	ff ff		 movzx	 edx, BYTE PTR _cbCardCount$[ebp]
  0032b	83 fa 03	 cmp	 edx, 3
  0032e	0f 8c b9 06 00
	00		 jl	 $LN59@AnalyseCar

; 1316 : 	{
; 1317 : 		for (BYTE i=0;i<MAX_INDEX-MAX_HUA_INDEX;i++)

  00334	c6 85 cb fa ff
	ff 00		 mov	 BYTE PTR _i$25[ebp], 0
  0033b	eb 0e		 jmp	 SHORT $LN10@AnalyseCar
$LN8@AnalyseCar:
  0033d	8a 85 cb fa ff
	ff		 mov	 al, BYTE PTR _i$25[ebp]
  00343	04 01		 add	 al, 1
  00345	88 85 cb fa ff
	ff		 mov	 BYTE PTR _i$25[ebp], al
$LN10@AnalyseCar:
  0034b	0f b6 8d cb fa
	ff ff		 movzx	 ecx, BYTE PTR _i$25[ebp]
  00352	83 f9 22	 cmp	 ecx, 34			; 00000022H
  00355	0f 8d 92 06 00
	00		 jge	 $LN59@AnalyseCar

; 1318 : 		{
; 1319 : 			//同牌判断
; 1320 : 			//如果是财神,并且财神数小于3,则不进行组合
; 1321 : 			if(cbMagicCardIndex[i] >= 3 || (cbMagicCardIndex[i]+cbMagicCardCount >= 3 &&

  0035b	0f b6 95 cb fa
	ff ff		 movzx	 edx, BYTE PTR _i$25[ebp]
  00362	0f b6 44 15 d8	 movzx	 eax, BYTE PTR _cbMagicCardIndex$[ebp+edx]
  00367	83 f8 03	 cmp	 eax, 3
  0036a	7d 48		 jge	 SHORT $LN61@AnalyseCar
  0036c	0f b6 8d cb fa
	ff ff		 movzx	 ecx, BYTE PTR _i$25[ebp]
  00373	0f b6 54 0d d8	 movzx	 edx, BYTE PTR _cbMagicCardIndex$[ebp+ecx]
  00378	0f b6 85 bd fa
	ff ff		 movzx	 eax, BYTE PTR _cbMagicCardCount$[ebp]
  0037f	03 d0		 add	 edx, eax
  00381	83 fa 03	 cmp	 edx, 3
  00384	0f 8c f1 03 00
	00		 jl	 $LN60@AnalyseCar
  0038a	33 c9		 xor	 ecx, ecx
  0038c	75 26		 jne	 SHORT $LN61@AnalyseCar
  0038e	ba 01 00 00 00	 mov	 edx, 1
  00393	85 d2		 test	 edx, edx
  00395	0f 84 e0 03 00
	00		 je	 $LN60@AnalyseCar
  0039b	0f b6 85 cb fa
	ff ff		 movzx	 eax, BYTE PTR _i$25[ebp]
  003a2	8b 8d c4 fa ff
	ff		 mov	 ecx, DWORD PTR _this$[ebp]
  003a8	0f b6 51 04	 movzx	 edx, BYTE PTR [ecx+4]
  003ac	3b c2		 cmp	 eax, edx
  003ae	0f 84 c7 03 00
	00		 je	 $LN60@AnalyseCar
$LN61@AnalyseCar:

; 1322 : 				((INDEX_REPLACE_CARD!=MAX_INDEX && i != INDEX_REPLACE_CARD) || (INDEX_REPLACE_CARD==MAX_INDEX && i != m_cbMagicIndex)))
; 1323 : 				)
; 1324 : 			{
; 1325 : 				int nTempIndex = cbMagicCardIndex[i];

  003b4	0f b6 85 cb fa
	ff ff		 movzx	 eax, BYTE PTR _i$25[ebp]
  003bb	0f b6 4c 05 d8	 movzx	 ecx, BYTE PTR _cbMagicCardIndex$[ebp+eax]
  003c0	89 8d ac fa ff
	ff		 mov	 DWORD PTR _nTempIndex$9[ebp], ecx
$LN13@AnalyseCar:

; 1326 : 				do
; 1327 : 				{
; 1328 : 					ASSERT(cbKindItemCount < CountArray(KindItem));
; 1329 : 					BYTE cbIndex = i;

  003c6	8a 95 cb fa ff
	ff		 mov	 dl, BYTE PTR _i$25[ebp]
  003cc	88 95 c1 fa ff
	ff		 mov	 BYTE PTR _cbIndex$22[ebp], dl

; 1330 : 					BYTE cbCenterCard = SwitchToCardData(i);

  003d2	0f b6 85 cb fa
	ff ff		 movzx	 eax, BYTE PTR _i$25[ebp]
  003d9	50		 push	 eax
  003da	8b 8d c4 fa ff
	ff		 mov	 ecx, DWORD PTR _this$[ebp]
  003e0	e8 00 00 00 00	 call	 ?SwitchToCardData@CGameLogic@@QAEEE@Z ; CGameLogic::SwitchToCardData
  003e5	88 85 b0 fa ff
	ff		 mov	 BYTE PTR _cbCenterCard$10[ebp], al

; 1331 : 					//如果是财神且财神有代替牌,则换成代替牌
; 1332 : 					if(i == m_cbMagicIndex && INDEX_REPLACE_CARD != MAX_INDEX)

  003eb	0f b6 8d cb fa
	ff ff		 movzx	 ecx, BYTE PTR _i$25[ebp]
  003f2	8b 95 c4 fa ff
	ff		 mov	 edx, DWORD PTR _this$[ebp]
  003f8	0f b6 42 04	 movzx	 eax, BYTE PTR [edx+4]
  003fc	3b c8		 cmp	 ecx, eax
  003fe	75 1e		 jne	 SHORT $LN63@AnalyseCar
  00400	33 c9		 xor	 ecx, ecx
  00402	74 1a		 je	 SHORT $LN63@AnalyseCar

; 1333 : 					{
; 1334 : 						cbIndex = INDEX_REPLACE_CARD;

  00404	c6 85 c1 fa ff
	ff 22		 mov	 BYTE PTR _cbIndex$22[ebp], 34 ; 00000022H

; 1335 : 						cbCenterCard = SwitchToCardData(INDEX_REPLACE_CARD);

  0040b	6a 22		 push	 34			; 00000022H
  0040d	8b 8d c4 fa ff
	ff		 mov	 ecx, DWORD PTR _this$[ebp]
  00413	e8 00 00 00 00	 call	 ?SwitchToCardData@CGameLogic@@QAEEE@Z ; CGameLogic::SwitchToCardData
  00418	88 85 b0 fa ff
	ff		 mov	 BYTE PTR _cbCenterCard$10[ebp], al
$LN63@AnalyseCar:

; 1336 : 					}
; 1337 : 					TempKindItem.cbWeaveKind=WIK_PENG;

  0041e	c6 85 04 fb ff
	ff 08		 mov	 BYTE PTR _TempKindItem$[ebp], 8

; 1338 : 					TempKindItem.cbCenterCard=cbCenterCard;

  00425	8a 95 b0 fa ff
	ff		 mov	 dl, BYTE PTR _cbCenterCard$10[ebp]
  0042b	88 95 05 fb ff
	ff		 mov	 BYTE PTR _TempKindItem$[ebp+1], dl

; 1339 : 					TempKindItem.cbValidIndex[0] = nTempIndex>0?cbIndex:m_cbMagicIndex;

  00431	83 bd ac fa ff
	ff 00		 cmp	 DWORD PTR _nTempIndex$9[ebp], 0
  00438	7e 0e		 jle	 SHORT $LN98@AnalyseCar
  0043a	8a 85 c1 fa ff
	ff		 mov	 al, BYTE PTR _cbIndex$22[ebp]
  00440	88 85 9e fa ff
	ff		 mov	 BYTE PTR tv268[ebp], al
  00446	eb 0f		 jmp	 SHORT $LN99@AnalyseCar
$LN98@AnalyseCar:
  00448	8b 8d c4 fa ff
	ff		 mov	 ecx, DWORD PTR _this$[ebp]
  0044e	8a 51 04	 mov	 dl, BYTE PTR [ecx+4]
  00451	88 95 9e fa ff
	ff		 mov	 BYTE PTR tv268[ebp], dl
$LN99@AnalyseCar:
  00457	b8 01 00 00 00	 mov	 eax, 1
  0045c	6b c8 00	 imul	 ecx, eax, 0
  0045f	8a 95 9e fa ff
	ff		 mov	 dl, BYTE PTR tv268[ebp]
  00465	88 94 0d 06 fb
	ff ff		 mov	 BYTE PTR _TempKindItem$[ebp+ecx+2], dl

; 1340 : 					TempKindItem.cbValidIndex[1] = nTempIndex>1?cbIndex:m_cbMagicIndex;

  0046c	83 bd ac fa ff
	ff 01		 cmp	 DWORD PTR _nTempIndex$9[ebp], 1
  00473	7e 0e		 jle	 SHORT $LN100@AnalyseCar
  00475	8a 85 c1 fa ff
	ff		 mov	 al, BYTE PTR _cbIndex$22[ebp]
  0047b	88 85 9f fa ff
	ff		 mov	 BYTE PTR tv273[ebp], al
  00481	eb 0f		 jmp	 SHORT $LN101@AnalyseCar
$LN100@AnalyseCar:
  00483	8b 8d c4 fa ff
	ff		 mov	 ecx, DWORD PTR _this$[ebp]
  00489	8a 51 04	 mov	 dl, BYTE PTR [ecx+4]
  0048c	88 95 9f fa ff
	ff		 mov	 BYTE PTR tv273[ebp], dl
$LN101@AnalyseCar:
  00492	b8 01 00 00 00	 mov	 eax, 1
  00497	c1 e0 00	 shl	 eax, 0
  0049a	8a 8d 9f fa ff
	ff		 mov	 cl, BYTE PTR tv273[ebp]
  004a0	88 8c 05 06 fb
	ff ff		 mov	 BYTE PTR _TempKindItem$[ebp+eax+2], cl

; 1341 : 					TempKindItem.cbValidIndex[2] = nTempIndex>2?cbIndex:m_cbMagicIndex;

  004a7	83 bd ac fa ff
	ff 02		 cmp	 DWORD PTR _nTempIndex$9[ebp], 2
  004ae	7e 0e		 jle	 SHORT $LN102@AnalyseCar
  004b0	8a 95 c1 fa ff
	ff		 mov	 dl, BYTE PTR _cbIndex$22[ebp]
  004b6	88 95 9c fa ff
	ff		 mov	 BYTE PTR tv278[ebp], dl
  004bc	eb 0f		 jmp	 SHORT $LN103@AnalyseCar
$LN102@AnalyseCar:
  004be	8b 85 c4 fa ff
	ff		 mov	 eax, DWORD PTR _this$[ebp]
  004c4	8a 48 04	 mov	 cl, BYTE PTR [eax+4]
  004c7	88 8d 9c fa ff
	ff		 mov	 BYTE PTR tv278[ebp], cl
$LN103@AnalyseCar:
  004cd	ba 01 00 00 00	 mov	 edx, 1
  004d2	d1 e2		 shl	 edx, 1
  004d4	8a 85 9c fa ff
	ff		 mov	 al, BYTE PTR tv278[ebp]
  004da	88 84 15 06 fb
	ff ff		 mov	 BYTE PTR _TempKindItem$[ebp+edx+2], al

; 1342 : 					AddKindItem(TempKindItem, KindItem, cbKindItemCount, bMagicThree);

  004e1	8d 8d b1 fa ff
	ff		 lea	 ecx, DWORD PTR _bMagicThree$[ebp]
  004e7	51		 push	 ecx
  004e8	8d 95 b9 fa ff
	ff		 lea	 edx, DWORD PTR _cbKindItemCount$[ebp]
  004ee	52		 push	 edx
  004ef	8d 85 58 fd ff
	ff		 lea	 eax, DWORD PTR _KindItem$[ebp]
  004f5	50		 push	 eax
  004f6	8d 8d 04 fb ff
	ff		 lea	 ecx, DWORD PTR _TempKindItem$[ebp]
  004fc	51		 push	 ecx
  004fd	8b 8d c4 fa ff
	ff		 mov	 ecx, DWORD PTR _this$[ebp]
  00503	e8 00 00 00 00	 call	 ?AddKindItem@CGameLogic@@AAE_NAAUtagKindItem@@QAU2@AAEAA_N@Z ; CGameLogic::AddKindItem

; 1343 : 
; 1344 : 
; 1345 : 					//当前索引牌未与财神组合 且财神个数不为0 
; 1346 : 					if(nTempIndex>=3 && cbMagicCardCount >0)

  00508	83 bd ac fa ff
	ff 03		 cmp	 DWORD PTR _nTempIndex$9[ebp], 3
  0050f	0f 8c 11 02 00
	00		 jl	 $LN64@AnalyseCar
  00515	0f b6 95 bd fa
	ff ff		 movzx	 edx, BYTE PTR _cbMagicCardCount$[ebp]
  0051c	85 d2		 test	 edx, edx
  0051e	0f 8e 02 02 00
	00		 jle	 $LN64@AnalyseCar

; 1347 : 					{
; 1348 : 						--nTempIndex;

  00524	8b 85 ac fa ff
	ff		 mov	 eax, DWORD PTR _nTempIndex$9[ebp]
  0052a	83 e8 01	 sub	 eax, 1
  0052d	89 85 ac fa ff
	ff		 mov	 DWORD PTR _nTempIndex$9[ebp], eax

; 1349 : 						//1个财神与之组合
; 1350 : 						TempKindItem.cbWeaveKind=WIK_PENG;

  00533	c6 85 04 fb ff
	ff 08		 mov	 BYTE PTR _TempKindItem$[ebp], 8

; 1351 : 						TempKindItem.cbCenterCard=cbCenterCard;

  0053a	8a 8d b0 fa ff
	ff		 mov	 cl, BYTE PTR _cbCenterCard$10[ebp]
  00540	88 8d 05 fb ff
	ff		 mov	 BYTE PTR _TempKindItem$[ebp+1], cl

; 1352 : 						TempKindItem.cbValidIndex[0] = nTempIndex>0?cbIndex:m_cbMagicIndex;

  00546	83 bd ac fa ff
	ff 00		 cmp	 DWORD PTR _nTempIndex$9[ebp], 0
  0054d	7e 0e		 jle	 SHORT $LN104@AnalyseCar
  0054f	8a 95 c1 fa ff
	ff		 mov	 dl, BYTE PTR _cbIndex$22[ebp]
  00555	88 95 a6 fa ff
	ff		 mov	 BYTE PTR tv324[ebp], dl
  0055b	eb 0f		 jmp	 SHORT $LN105@AnalyseCar
$LN104@AnalyseCar:
  0055d	8b 85 c4 fa ff
	ff		 mov	 eax, DWORD PTR _this$[ebp]
  00563	8a 48 04	 mov	 cl, BYTE PTR [eax+4]
  00566	88 8d a6 fa ff
	ff		 mov	 BYTE PTR tv324[ebp], cl
$LN105@AnalyseCar:
  0056c	ba 01 00 00 00	 mov	 edx, 1
  00571	6b c2 00	 imul	 eax, edx, 0
  00574	8a 8d a6 fa ff
	ff		 mov	 cl, BYTE PTR tv324[ebp]
  0057a	88 8c 05 06 fb
	ff ff		 mov	 BYTE PTR _TempKindItem$[ebp+eax+2], cl

; 1353 : 						TempKindItem.cbValidIndex[1] = nTempIndex>1?cbIndex:m_cbMagicIndex;

  00581	83 bd ac fa ff
	ff 01		 cmp	 DWORD PTR _nTempIndex$9[ebp], 1
  00588	7e 0e		 jle	 SHORT $LN106@AnalyseCar
  0058a	8a 95 c1 fa ff
	ff		 mov	 dl, BYTE PTR _cbIndex$22[ebp]
  00590	88 95 a5 fa ff
	ff		 mov	 BYTE PTR tv329[ebp], dl
  00596	eb 0f		 jmp	 SHORT $LN107@AnalyseCar
$LN106@AnalyseCar:
  00598	8b 85 c4 fa ff
	ff		 mov	 eax, DWORD PTR _this$[ebp]
  0059e	8a 48 04	 mov	 cl, BYTE PTR [eax+4]
  005a1	88 8d a5 fa ff
	ff		 mov	 BYTE PTR tv329[ebp], cl
$LN107@AnalyseCar:
  005a7	ba 01 00 00 00	 mov	 edx, 1
  005ac	c1 e2 00	 shl	 edx, 0
  005af	8a 85 a5 fa ff
	ff		 mov	 al, BYTE PTR tv329[ebp]
  005b5	88 84 15 06 fb
	ff ff		 mov	 BYTE PTR _TempKindItem$[ebp+edx+2], al

; 1354 : 						TempKindItem.cbValidIndex[2] = nTempIndex>2?cbIndex:m_cbMagicIndex;

  005bc	83 bd ac fa ff
	ff 02		 cmp	 DWORD PTR _nTempIndex$9[ebp], 2
  005c3	7e 0e		 jle	 SHORT $LN108@AnalyseCar
  005c5	8a 8d c1 fa ff
	ff		 mov	 cl, BYTE PTR _cbIndex$22[ebp]
  005cb	88 8d a4 fa ff
	ff		 mov	 BYTE PTR tv334[ebp], cl
  005d1	eb 0f		 jmp	 SHORT $LN109@AnalyseCar
$LN108@AnalyseCar:
  005d3	8b 95 c4 fa ff
	ff		 mov	 edx, DWORD PTR _this$[ebp]
  005d9	8a 42 04	 mov	 al, BYTE PTR [edx+4]
  005dc	88 85 a4 fa ff
	ff		 mov	 BYTE PTR tv334[ebp], al
$LN109@AnalyseCar:
  005e2	b9 01 00 00 00	 mov	 ecx, 1
  005e7	d1 e1		 shl	 ecx, 1
  005e9	8a 95 a4 fa ff
	ff		 mov	 dl, BYTE PTR tv334[ebp]
  005ef	88 94 0d 06 fb
	ff ff		 mov	 BYTE PTR _TempKindItem$[ebp+ecx+2], dl

; 1355 : 						AddKindItem(TempKindItem, KindItem, cbKindItemCount, bMagicThree);

  005f6	8d 85 b1 fa ff
	ff		 lea	 eax, DWORD PTR _bMagicThree$[ebp]
  005fc	50		 push	 eax
  005fd	8d 8d b9 fa ff
	ff		 lea	 ecx, DWORD PTR _cbKindItemCount$[ebp]
  00603	51		 push	 ecx
  00604	8d 95 58 fd ff
	ff		 lea	 edx, DWORD PTR _KindItem$[ebp]
  0060a	52		 push	 edx
  0060b	8d 85 04 fb ff
	ff		 lea	 eax, DWORD PTR _TempKindItem$[ebp]
  00611	50		 push	 eax
  00612	8b 8d c4 fa ff
	ff		 mov	 ecx, DWORD PTR _this$[ebp]
  00618	e8 00 00 00 00	 call	 ?AddKindItem@CGameLogic@@AAE_NAAUtagKindItem@@QAU2@AAEAA_N@Z ; CGameLogic::AddKindItem

; 1356 : 
; 1357 : 						//两个财神与之组合
; 1358 : 						if(cbMagicCardCount>1)

  0061d	0f b6 8d bd fa
	ff ff		 movzx	 ecx, BYTE PTR _cbMagicCardCount$[ebp]
  00624	83 f9 01	 cmp	 ecx, 1
  00627	0f 8e ea 00 00
	00		 jle	 $LN65@AnalyseCar

; 1359 : 						{
; 1360 : 							TempKindItem.cbWeaveKind=WIK_PENG;

  0062d	c6 85 04 fb ff
	ff 08		 mov	 BYTE PTR _TempKindItem$[ebp], 8

; 1361 : 							TempKindItem.cbCenterCard=cbCenterCard;

  00634	8a 95 b0 fa ff
	ff		 mov	 dl, BYTE PTR _cbCenterCard$10[ebp]
  0063a	88 95 05 fb ff
	ff		 mov	 BYTE PTR _TempKindItem$[ebp+1], dl

; 1362 : 							TempKindItem.cbValidIndex[0] = nTempIndex>0?cbIndex:m_cbMagicIndex;

  00640	83 bd ac fa ff
	ff 00		 cmp	 DWORD PTR _nTempIndex$9[ebp], 0
  00647	7e 0e		 jle	 SHORT $LN110@AnalyseCar
  00649	8a 85 c1 fa ff
	ff		 mov	 al, BYTE PTR _cbIndex$22[ebp]
  0064f	88 85 a3 fa ff
	ff		 mov	 BYTE PTR tv346[ebp], al
  00655	eb 0f		 jmp	 SHORT $LN111@AnalyseCar
$LN110@AnalyseCar:
  00657	8b 8d c4 fa ff
	ff		 mov	 ecx, DWORD PTR _this$[ebp]
  0065d	8a 51 04	 mov	 dl, BYTE PTR [ecx+4]
  00660	88 95 a3 fa ff
	ff		 mov	 BYTE PTR tv346[ebp], dl
$LN111@AnalyseCar:
  00666	b8 01 00 00 00	 mov	 eax, 1
  0066b	6b c8 00	 imul	 ecx, eax, 0
  0066e	8a 95 a3 fa ff
	ff		 mov	 dl, BYTE PTR tv346[ebp]
  00674	88 94 0d 06 fb
	ff ff		 mov	 BYTE PTR _TempKindItem$[ebp+ecx+2], dl

; 1363 : 							TempKindItem.cbValidIndex[1] = nTempIndex>1?cbIndex:m_cbMagicIndex;

  0067b	83 bd ac fa ff
	ff 01		 cmp	 DWORD PTR _nTempIndex$9[ebp], 1
  00682	7e 0e		 jle	 SHORT $LN112@AnalyseCar
  00684	8a 85 c1 fa ff
	ff		 mov	 al, BYTE PTR _cbIndex$22[ebp]
  0068a	88 85 a2 fa ff
	ff		 mov	 BYTE PTR tv351[ebp], al
  00690	eb 0f		 jmp	 SHORT $LN113@AnalyseCar
$LN112@AnalyseCar:
  00692	8b 8d c4 fa ff
	ff		 mov	 ecx, DWORD PTR _this$[ebp]
  00698	8a 51 04	 mov	 dl, BYTE PTR [ecx+4]
  0069b	88 95 a2 fa ff
	ff		 mov	 BYTE PTR tv351[ebp], dl
$LN113@AnalyseCar:
  006a1	b8 01 00 00 00	 mov	 eax, 1
  006a6	c1 e0 00	 shl	 eax, 0
  006a9	8a 8d a2 fa ff
	ff		 mov	 cl, BYTE PTR tv351[ebp]
  006af	88 8c 05 06 fb
	ff ff		 mov	 BYTE PTR _TempKindItem$[ebp+eax+2], cl

; 1364 : 							TempKindItem.cbValidIndex[2] = nTempIndex>2?cbIndex:m_cbMagicIndex;

  006b6	83 bd ac fa ff
	ff 02		 cmp	 DWORD PTR _nTempIndex$9[ebp], 2
  006bd	7e 0e		 jle	 SHORT $LN114@AnalyseCar
  006bf	8a 95 c1 fa ff
	ff		 mov	 dl, BYTE PTR _cbIndex$22[ebp]
  006c5	88 95 a1 fa ff
	ff		 mov	 BYTE PTR tv356[ebp], dl
  006cb	eb 0f		 jmp	 SHORT $LN115@AnalyseCar
$LN114@AnalyseCar:
  006cd	8b 85 c4 fa ff
	ff		 mov	 eax, DWORD PTR _this$[ebp]
  006d3	8a 48 04	 mov	 cl, BYTE PTR [eax+4]
  006d6	88 8d a1 fa ff
	ff		 mov	 BYTE PTR tv356[ebp], cl
$LN115@AnalyseCar:
  006dc	ba 01 00 00 00	 mov	 edx, 1
  006e1	d1 e2		 shl	 edx, 1
  006e3	8a 85 a1 fa ff
	ff		 mov	 al, BYTE PTR tv356[ebp]
  006e9	88 84 15 06 fb
	ff ff		 mov	 BYTE PTR _TempKindItem$[ebp+edx+2], al

; 1365 : 							AddKindItem(TempKindItem, KindItem, cbKindItemCount, bMagicThree);

  006f0	8d 8d b1 fa ff
	ff		 lea	 ecx, DWORD PTR _bMagicThree$[ebp]
  006f6	51		 push	 ecx
  006f7	8d 95 b9 fa ff
	ff		 lea	 edx, DWORD PTR _cbKindItemCount$[ebp]
  006fd	52		 push	 edx
  006fe	8d 85 58 fd ff
	ff		 lea	 eax, DWORD PTR _KindItem$[ebp]
  00704	50		 push	 eax
  00705	8d 8d 04 fb ff
	ff		 lea	 ecx, DWORD PTR _TempKindItem$[ebp]
  0070b	51		 push	 ecx
  0070c	8b 8d c4 fa ff
	ff		 mov	 ecx, DWORD PTR _this$[ebp]
  00712	e8 00 00 00 00	 call	 ?AddKindItem@CGameLogic@@AAE_NAAUtagKindItem@@QAU2@AAEAA_N@Z ; CGameLogic::AddKindItem
$LN65@AnalyseCar:

; 1366 : 						}
; 1367 : 
; 1368 : 						++nTempIndex;

  00717	8b 95 ac fa ff
	ff		 mov	 edx, DWORD PTR _nTempIndex$9[ebp]
  0071d	83 c2 01	 add	 edx, 1
  00720	89 95 ac fa ff
	ff		 mov	 DWORD PTR _nTempIndex$9[ebp], edx
$LN64@AnalyseCar:

; 1369 : 					}
; 1370 : 
; 1371 : 					//如果是财神,则退出
; 1372 : 					if(i == INDEX_REPLACE_CARD || ((i == m_cbMagicIndex) && INDEX_REPLACE_CARD == MAX_INDEX))

  00726	0f b6 85 cb fa
	ff ff		 movzx	 eax, BYTE PTR _i$25[ebp]
  0072d	83 f8 22	 cmp	 eax, 34			; 00000022H
  00730	74 1e		 je	 SHORT $LN67@AnalyseCar
  00732	0f b6 8d cb fa
	ff ff		 movzx	 ecx, BYTE PTR _i$25[ebp]
  00739	8b 95 c4 fa ff
	ff		 mov	 edx, DWORD PTR _this$[ebp]
  0073f	0f b6 42 04	 movzx	 eax, BYTE PTR [edx+4]
  00743	3b c8		 cmp	 ecx, eax
  00745	75 0b		 jne	 SHORT $LN66@AnalyseCar
  00747	b9 01 00 00 00	 mov	 ecx, 1
  0074c	85 c9		 test	 ecx, ecx
  0074e	74 02		 je	 SHORT $LN66@AnalyseCar
$LN67@AnalyseCar:

; 1373 : 						break;

  00750	eb 29		 jmp	 SHORT $LN60@AnalyseCar
$LN66@AnalyseCar:

; 1374 : 
; 1375 : 					nTempIndex -= 3;

  00752	8b 95 ac fa ff
	ff		 mov	 edx, DWORD PTR _nTempIndex$9[ebp]
  00758	83 ea 03	 sub	 edx, 3
  0075b	89 95 ac fa ff
	ff		 mov	 DWORD PTR _nTempIndex$9[ebp], edx

; 1376 : 					//如果刚好搭配全部，则退出
; 1377 : 					if(nTempIndex == 0) break;

  00761	75 02		 jne	 SHORT $LN11@AnalyseCar
  00763	eb 16		 jmp	 SHORT $LN60@AnalyseCar
$LN11@AnalyseCar:

; 1378 : 
; 1379 : 				}while(nTempIndex+cbMagicCardCount >= 3);

  00765	0f b6 85 bd fa
	ff ff		 movzx	 eax, BYTE PTR _cbMagicCardCount$[ebp]
  0076c	03 85 ac fa ff
	ff		 add	 eax, DWORD PTR _nTempIndex$9[ebp]
  00772	83 f8 03	 cmp	 eax, 3
  00775	0f 8d 4b fc ff
	ff		 jge	 $LN13@AnalyseCar
$LN60@AnalyseCar:

; 1380 : 			}
; 1381 : 
; 1382 : 			//连牌判断
; 1383 : 			if ((i<(MAX_INDEX-MAX_HUA_INDEX-9))&&((i%9)<7))

  0077b	0f b6 8d cb fa
	ff ff		 movzx	 ecx, BYTE PTR _i$25[ebp]
  00782	83 f9 19	 cmp	 ecx, 25			; 00000019H
  00785	0f 8d 5d 02 00
	00		 jge	 $LN69@AnalyseCar
  0078b	0f b6 85 cb fa
	ff ff		 movzx	 eax, BYTE PTR _i$25[ebp]
  00792	99		 cdq
  00793	b9 09 00 00 00	 mov	 ecx, 9
  00798	f7 f9		 idiv	 ecx
  0079a	83 fa 07	 cmp	 edx, 7
  0079d	0f 8d 45 02 00
	00		 jge	 $LN69@AnalyseCar

; 1384 : 			{
; 1385 : 				//只要财神牌数加上3个顺序索引的牌数大于等于3,则进行组合
; 1386 : 				if(cbMagicCardCount+cbMagicCardIndex[i]+cbMagicCardIndex[i+1]+cbMagicCardIndex[i+2] >= 3)

  007a3	0f b6 95 bd fa
	ff ff		 movzx	 edx, BYTE PTR _cbMagicCardCount$[ebp]
  007aa	0f b6 85 cb fa
	ff ff		 movzx	 eax, BYTE PTR _i$25[ebp]
  007b1	0f b6 4c 05 d8	 movzx	 ecx, BYTE PTR _cbMagicCardIndex$[ebp+eax]
  007b6	03 d1		 add	 edx, ecx
  007b8	0f b6 85 cb fa
	ff ff		 movzx	 eax, BYTE PTR _i$25[ebp]
  007bf	0f b6 4c 05 d9	 movzx	 ecx, BYTE PTR _cbMagicCardIndex$[ebp+eax+1]
  007c4	03 d1		 add	 edx, ecx
  007c6	0f b6 85 cb fa
	ff ff		 movzx	 eax, BYTE PTR _i$25[ebp]
  007cd	0f b6 4c 05 da	 movzx	 ecx, BYTE PTR _cbMagicCardIndex$[ebp+eax+2]
  007d2	03 d1		 add	 edx, ecx
  007d4	83 fa 03	 cmp	 edx, 3
  007d7	0f 8c 0b 02 00
	00		 jl	 $LN69@AnalyseCar

; 1387 : 				{
; 1388 : 					BYTE cbIndex[3] = { cbMagicCardIndex[i],cbMagicCardIndex[i+1],cbMagicCardIndex[i+2] };

  007dd	0f b6 95 cb fa
	ff ff		 movzx	 edx, BYTE PTR _i$25[ebp]
  007e4	8a 44 15 d8	 mov	 al, BYTE PTR _cbMagicCardIndex$[ebp+edx]
  007e8	88 85 a8 fa ff
	ff		 mov	 BYTE PTR _cbIndex$8[ebp], al
  007ee	0f b6 8d cb fa
	ff ff		 movzx	 ecx, BYTE PTR _i$25[ebp]
  007f5	8a 54 0d d9	 mov	 dl, BYTE PTR _cbMagicCardIndex$[ebp+ecx+1]
  007f9	88 95 a9 fa ff
	ff		 mov	 BYTE PTR _cbIndex$8[ebp+1], dl
  007ff	0f b6 85 cb fa
	ff ff		 movzx	 eax, BYTE PTR _i$25[ebp]
  00806	8a 4c 05 da	 mov	 cl, BYTE PTR _cbMagicCardIndex$[ebp+eax+2]
  0080a	88 8d aa fa ff
	ff		 mov	 BYTE PTR _cbIndex$8[ebp+2], cl

; 1389 : 
; 1390 : 					if(cbIndex[0]+cbIndex[1]+cbIndex[2]==0) continue;

  00810	ba 01 00 00 00	 mov	 edx, 1
  00815	6b c2 00	 imul	 eax, edx, 0
  00818	0f b6 8c 05 a8
	fa ff ff	 movzx	 ecx, BYTE PTR _cbIndex$8[ebp+eax]
  00820	ba 01 00 00 00	 mov	 edx, 1
  00825	c1 e2 00	 shl	 edx, 0
  00828	0f b6 84 15 a8
	fa ff ff	 movzx	 eax, BYTE PTR _cbIndex$8[ebp+edx]
  00830	03 c8		 add	 ecx, eax
  00832	ba 01 00 00 00	 mov	 edx, 1
  00837	d1 e2		 shl	 edx, 1
  00839	0f b6 84 15 a8
	fa ff ff	 movzx	 eax, BYTE PTR _cbIndex$8[ebp+edx]
  00841	03 c8		 add	 ecx, eax
  00843	75 05		 jne	 SHORT $LN71@AnalyseCar
  00845	e9 f3 fa ff ff	 jmp	 $LN8@AnalyseCar
$LN71@AnalyseCar:

; 1391 : 
; 1392 : 					int nMagicCountTemp;
; 1393 : 					nMagicCountTemp = cbMagicCardCount;

  0084a	0f b6 8d bd fa
	ff ff		 movzx	 ecx, BYTE PTR _cbMagicCardCount$[ebp]
  00851	89 8d 8c fa ff
	ff		 mov	 DWORD PTR _nMagicCountTemp$2[ebp], ecx
$LN14@AnalyseCar:

; 1394 : 
; 1395 : 					BYTE cbValidIndex[3];
; 1396 : 					while(nMagicCountTemp+cbIndex[0]+cbIndex[1]+cbIndex[2] >= 3)

  00857	ba 01 00 00 00	 mov	 edx, 1
  0085c	6b c2 00	 imul	 eax, edx, 0
  0085f	0f b6 8c 05 a8
	fa ff ff	 movzx	 ecx, BYTE PTR _cbIndex$8[ebp+eax]
  00867	03 8d 8c fa ff
	ff		 add	 ecx, DWORD PTR _nMagicCountTemp$2[ebp]
  0086d	ba 01 00 00 00	 mov	 edx, 1
  00872	c1 e2 00	 shl	 edx, 0
  00875	0f b6 84 15 a8
	fa ff ff	 movzx	 eax, BYTE PTR _cbIndex$8[ebp+edx]
  0087d	03 c8		 add	 ecx, eax
  0087f	ba 01 00 00 00	 mov	 edx, 1
  00884	d1 e2		 shl	 edx, 1
  00886	0f b6 84 15 a8
	fa ff ff	 movzx	 eax, BYTE PTR _cbIndex$8[ebp+edx]
  0088e	03 c8		 add	 ecx, eax
  00890	83 f9 03	 cmp	 ecx, 3
  00893	0f 8c 4f 01 00
	00		 jl	 $LN69@AnalyseCar

; 1397 : 					{
; 1398 : 						for(BYTE j = 0; j < CountArray(cbIndex); j++)

  00899	c6 85 c0 fa ff
	ff 00		 mov	 BYTE PTR _j$21[ebp], 0
  008a0	eb 0f		 jmp	 SHORT $LN18@AnalyseCar
$LN16@AnalyseCar:
  008a2	8a 8d c0 fa ff
	ff		 mov	 cl, BYTE PTR _j$21[ebp]
  008a8	80 c1 01	 add	 cl, 1
  008ab	88 8d c0 fa ff
	ff		 mov	 BYTE PTR _j$21[ebp], cl
$LN18@AnalyseCar:
  008b1	0f b6 95 c0 fa
	ff ff		 movzx	 edx, BYTE PTR _j$21[ebp]
  008b8	83 fa 03	 cmp	 edx, 3
  008bb	0f 83 b6 00 00
	00		 jae	 $LN17@AnalyseCar

; 1399 : 						{
; 1400 : 							if(cbIndex[j] > 0) 

  008c1	0f b6 85 c0 fa
	ff ff		 movzx	 eax, BYTE PTR _j$21[ebp]
  008c8	0f b6 8c 05 a8
	fa ff ff	 movzx	 ecx, BYTE PTR _cbIndex$8[ebp+eax]
  008d0	85 c9		 test	 ecx, ecx
  008d2	7e 78		 jle	 SHORT $LN72@AnalyseCar

; 1401 : 							{
; 1402 : 								cbIndex[j]--;

  008d4	0f b6 95 c0 fa
	ff ff		 movzx	 edx, BYTE PTR _j$21[ebp]
  008db	8a 84 15 a8 fa
	ff ff		 mov	 al, BYTE PTR _cbIndex$8[ebp+edx]
  008e2	2c 01		 sub	 al, 1
  008e4	0f b6 8d c0 fa
	ff ff		 movzx	 ecx, BYTE PTR _j$21[ebp]
  008eb	88 84 0d a8 fa
	ff ff		 mov	 BYTE PTR _cbIndex$8[ebp+ecx], al

; 1403 : 								cbValidIndex[j] = ((i+j==m_cbMagicIndex) && INDEX_REPLACE_CARD!=MAX_INDEX)?INDEX_REPLACE_CARD:i+j;

  008f2	0f b6 95 cb fa
	ff ff		 movzx	 edx, BYTE PTR _i$25[ebp]
  008f9	0f b6 85 c0 fa
	ff ff		 movzx	 eax, BYTE PTR _j$21[ebp]
  00900	03 d0		 add	 edx, eax
  00902	8b 8d c4 fa ff
	ff		 mov	 ecx, DWORD PTR _this$[ebp]
  00908	0f b6 41 04	 movzx	 eax, BYTE PTR [ecx+4]
  0090c	3b d0		 cmp	 edx, eax
  0090e	75 10		 jne	 SHORT $LN116@AnalyseCar
  00910	33 c9		 xor	 ecx, ecx
  00912	74 0c		 je	 SHORT $LN116@AnalyseCar
  00914	c7 85 84 fa ff
	ff 22 00 00 00	 mov	 DWORD PTR tv467[ebp], 34 ; 00000022H
  0091e	eb 16		 jmp	 SHORT $LN117@AnalyseCar
$LN116@AnalyseCar:
  00920	0f b6 95 cb fa
	ff ff		 movzx	 edx, BYTE PTR _i$25[ebp]
  00927	0f b6 85 c0 fa
	ff ff		 movzx	 eax, BYTE PTR _j$21[ebp]
  0092e	03 d0		 add	 edx, eax
  00930	89 95 84 fa ff
	ff		 mov	 DWORD PTR tv467[ebp], edx
$LN117@AnalyseCar:
  00936	0f b6 8d c0 fa
	ff ff		 movzx	 ecx, BYTE PTR _j$21[ebp]
  0093d	8a 95 84 fa ff
	ff		 mov	 dl, BYTE PTR tv467[ebp]
  00943	88 94 0d 88 fa
	ff ff		 mov	 BYTE PTR _cbValidIndex$1[ebp+ecx], dl

; 1404 : 							}
; 1405 : 							else 

  0094a	eb 26		 jmp	 SHORT $LN73@AnalyseCar
$LN72@AnalyseCar:

; 1406 : 							{
; 1407 : 								nMagicCountTemp--;

  0094c	8b 85 8c fa ff
	ff		 mov	 eax, DWORD PTR _nMagicCountTemp$2[ebp]
  00952	83 e8 01	 sub	 eax, 1
  00955	89 85 8c fa ff
	ff		 mov	 DWORD PTR _nMagicCountTemp$2[ebp], eax

; 1408 : 								cbValidIndex[j] = m_cbMagicIndex;														

  0095b	0f b6 8d c0 fa
	ff ff		 movzx	 ecx, BYTE PTR _j$21[ebp]
  00962	8b 95 c4 fa ff
	ff		 mov	 edx, DWORD PTR _this$[ebp]
  00968	8a 42 04	 mov	 al, BYTE PTR [edx+4]
  0096b	88 84 0d 88 fa
	ff ff		 mov	 BYTE PTR _cbValidIndex$1[ebp+ecx], al
$LN73@AnalyseCar:

; 1409 : 							}
; 1410 : 						}

  00972	e9 2b ff ff ff	 jmp	 $LN16@AnalyseCar
$LN17@AnalyseCar:

; 1411 : 						if(nMagicCountTemp >= 0)

  00977	83 bd 8c fa ff
	ff 00		 cmp	 DWORD PTR _nMagicCountTemp$2[ebp], 0
  0097e	7c 61		 jl	 SHORT $LN74@AnalyseCar

; 1412 : 						{
; 1413 : 							ASSERT(cbKindItemCount < CountArray(KindItem));
; 1414 : 							TempKindItem.cbWeaveKind=WIK_LEFT;

  00980	c6 85 04 fb ff
	ff 01		 mov	 BYTE PTR _TempKindItem$[ebp], 1

; 1415 : 							TempKindItem.cbCenterCard=SwitchToCardData(i);

  00987	0f b6 8d cb fa
	ff ff		 movzx	 ecx, BYTE PTR _i$25[ebp]
  0098e	51		 push	 ecx
  0098f	8b 8d c4 fa ff
	ff		 mov	 ecx, DWORD PTR _this$[ebp]
  00995	e8 00 00 00 00	 call	 ?SwitchToCardData@CGameLogic@@QAEEE@Z ; CGameLogic::SwitchToCardData
  0099a	88 85 05 fb ff
	ff		 mov	 BYTE PTR _TempKindItem$[ebp+1], al

; 1416 : 							CopyMemory(TempKindItem.cbValidIndex,cbValidIndex,sizeof(cbValidIndex));

  009a0	6a 03		 push	 3
  009a2	8d 95 88 fa ff
	ff		 lea	 edx, DWORD PTR _cbValidIndex$1[ebp]
  009a8	52		 push	 edx
  009a9	8d 85 06 fb ff
	ff		 lea	 eax, DWORD PTR _TempKindItem$[ebp+2]
  009af	50		 push	 eax
  009b0	e8 00 00 00 00	 call	 _memcpy
  009b5	83 c4 0c	 add	 esp, 12			; 0000000cH

; 1417 : 							AddKindItem(TempKindItem, KindItem, cbKindItemCount, bMagicThree);

  009b8	8d 8d b1 fa ff
	ff		 lea	 ecx, DWORD PTR _bMagicThree$[ebp]
  009be	51		 push	 ecx
  009bf	8d 95 b9 fa ff
	ff		 lea	 edx, DWORD PTR _cbKindItemCount$[ebp]
  009c5	52		 push	 edx
  009c6	8d 85 58 fd ff
	ff		 lea	 eax, DWORD PTR _KindItem$[ebp]
  009cc	50		 push	 eax
  009cd	8d 8d 04 fb ff
	ff		 lea	 ecx, DWORD PTR _TempKindItem$[ebp]
  009d3	51		 push	 ecx
  009d4	8b 8d c4 fa ff
	ff		 mov	 ecx, DWORD PTR _this$[ebp]
  009da	e8 00 00 00 00	 call	 ?AddKindItem@CGameLogic@@AAE_NAAUtagKindItem@@QAU2@AAEAA_N@Z ; CGameLogic::AddKindItem

; 1418 : 						}
; 1419 : 						else break;

  009df	eb 02		 jmp	 SHORT $LN75@AnalyseCar
$LN74@AnalyseCar:
  009e1	eb 05		 jmp	 SHORT $LN69@AnalyseCar
$LN75@AnalyseCar:

; 1420 : 					}

  009e3	e9 6f fe ff ff	 jmp	 $LN14@AnalyseCar
$LN69@AnalyseCar:

; 1421 : 				}
; 1422 : 			}
; 1423 : 		}

  009e8	e9 50 f9 ff ff	 jmp	 $LN8@AnalyseCar
$LN59@AnalyseCar:

; 1424 : 	}
; 1425 : 
; 1426 : 	//组合分析
; 1427 : 	if (cbKindItemCount>=cbLessKindItem)

  009ed	0f b6 95 b9 fa
	ff ff		 movzx	 edx, BYTE PTR _cbKindItemCount$[ebp]
  009f4	0f b6 85 c3 fa
	ff ff		 movzx	 eax, BYTE PTR _cbLessKindItem$[ebp]
  009fb	3b d0		 cmp	 edx, eax
  009fd	0f 8c 26 07 00
	00		 jl	 $LN76@AnalyseCar

; 1428 : 	{
; 1429 : 		ASSERT(27*2+28+16 >= cbKindItemCount);
; 1430 : 		//变量定义
; 1431 : 		BYTE cbCardIndexTemp[MAX_INDEX];
; 1432 : 		ZeroMemory(cbCardIndexTemp,sizeof(cbCardIndexTemp));

  00a03	6a 22		 push	 34			; 00000022H
  00a05	6a 00		 push	 0
  00a07	8d 4d b4	 lea	 ecx, DWORD PTR _cbCardIndexTemp$30[ebp]
  00a0a	51		 push	 ecx
  00a0b	e8 00 00 00 00	 call	 _memset
  00a10	83 c4 0c	 add	 esp, 12			; 0000000cH

; 1433 : 
; 1434 : 		//变量定义
; 1435 : 		BYTE cbIndex[MAX_WEAVE];
; 1436 : 		for(BYTE i = 0; i < CountArray(cbIndex); i++)

  00a13	c6 85 b7 fa ff
	ff 00		 mov	 BYTE PTR _i$15[ebp], 0
  00a1a	eb 0f		 jmp	 SHORT $LN21@AnalyseCar
$LN19@AnalyseCar:
  00a1c	8a 95 b7 fa ff
	ff		 mov	 dl, BYTE PTR _i$15[ebp]
  00a22	80 c2 01	 add	 dl, 1
  00a25	88 95 b7 fa ff
	ff		 mov	 BYTE PTR _i$15[ebp], dl
$LN21@AnalyseCar:
  00a2b	0f b6 85 b7 fa
	ff ff		 movzx	 eax, BYTE PTR _i$15[ebp]
  00a32	83 f8 04	 cmp	 eax, 4
  00a35	73 16		 jae	 SHORT $LN20@AnalyseCar

; 1437 : 			cbIndex[i] = i;

  00a37	0f b6 8d b7 fa
	ff ff		 movzx	 ecx, BYTE PTR _i$15[ebp]
  00a3e	8a 95 b7 fa ff
	ff		 mov	 dl, BYTE PTR _i$15[ebp]
  00a44	88 94 0d 98 fa
	ff ff		 mov	 BYTE PTR _cbIndex$5[ebp+ecx], dl
  00a4b	eb cf		 jmp	 SHORT $LN19@AnalyseCar
$LN20@AnalyseCar:

; 1438 : 
; 1439 : 		tagKindItem * pKindItem[MAX_WEAVE];
; 1440 : 		ZeroMemory(&pKindItem,sizeof(pKindItem));

  00a4d	6a 10		 push	 16			; 00000010H
  00a4f	6a 00		 push	 0
  00a51	8d 45 a4	 lea	 eax, DWORD PTR _pKindItem$29[ebp]
  00a54	50		 push	 eax
  00a55	e8 00 00 00 00	 call	 _memset
  00a5a	83 c4 0c	 add	 esp, 12			; 0000000cH
$LN24@AnalyseCar:

; 1441 : 
; 1442 : 		tagKindItem KindItemTemp[CountArray(KindItem)];
; 1443 : 
; 1444 : 		//开始组合
; 1445 : 		do
; 1446 : 		{
; 1447 : 			//如果四个组合中的混牌大于手上的混牌个数则重置索引
; 1448 : 			cbTempMagicCount = 0;

  00a5d	c6 85 b2 fa ff
	ff 00		 mov	 BYTE PTR _cbTempMagicCount$[ebp], 0

; 1449 : 			for(int i=0;i<cbLessKindItem;i++) cbTempMagicCount +=  KindItem[cbIndex[i]].cbMagicCount; 

  00a64	c7 85 90 fa ff
	ff 00 00 00 00	 mov	 DWORD PTR _i$3[ebp], 0
  00a6e	eb 0f		 jmp	 SHORT $LN27@AnalyseCar
$LN25@AnalyseCar:
  00a70	8b 8d 90 fa ff
	ff		 mov	 ecx, DWORD PTR _i$3[ebp]
  00a76	83 c1 01	 add	 ecx, 1
  00a79	89 8d 90 fa ff
	ff		 mov	 DWORD PTR _i$3[ebp], ecx
$LN27@AnalyseCar:
  00a7f	0f b6 95 c3 fa
	ff ff		 movzx	 edx, BYTE PTR _cbLessKindItem$[ebp]
  00a86	39 95 90 fa ff
	ff		 cmp	 DWORD PTR _i$3[ebp], edx
  00a8c	7d 2a		 jge	 SHORT $LN26@AnalyseCar
  00a8e	8b 85 90 fa ff
	ff		 mov	 eax, DWORD PTR _i$3[ebp]
  00a94	0f b6 8c 05 98
	fa ff ff	 movzx	 ecx, BYTE PTR _cbIndex$5[ebp+eax]
  00a9c	6b d1 06	 imul	 edx, ecx, 6
  00a9f	0f b6 84 15 5d
	fd ff ff	 movzx	 eax, BYTE PTR _KindItem$[ebp+edx+5]
  00aa7	0f b6 8d b2 fa
	ff ff		 movzx	 ecx, BYTE PTR _cbTempMagicCount$[ebp]
  00aae	03 c8		 add	 ecx, eax
  00ab0	88 8d b2 fa ff
	ff		 mov	 BYTE PTR _cbTempMagicCount$[ebp], cl
  00ab6	eb b8		 jmp	 SHORT $LN25@AnalyseCar
$LN26@AnalyseCar:

; 1450 : 			if(cbTempMagicCount <= cbMagicCardCount)

  00ab8	0f b6 95 b2 fa
	ff ff		 movzx	 edx, BYTE PTR _cbTempMagicCount$[ebp]
  00abf	0f b6 85 bd fa
	ff ff		 movzx	 eax, BYTE PTR _cbMagicCardCount$[ebp]
  00ac6	3b d0		 cmp	 edx, eax
  00ac8	0f 8f 30 05 00
	00		 jg	 $LN77@AnalyseCar

; 1451 : 			{
; 1452 : 				//设置变量
; 1453 : 				CopyMemory(cbCardIndexTemp,cbCardIndex,sizeof(cbCardIndexTemp));

  00ace	6a 22		 push	 34			; 00000022H
  00ad0	8b 4d 08	 mov	 ecx, DWORD PTR _cbCardIndex$[ebp]
  00ad3	51		 push	 ecx
  00ad4	8d 55 b4	 lea	 edx, DWORD PTR _cbCardIndexTemp$30[ebp]
  00ad7	52		 push	 edx
  00ad8	e8 00 00 00 00	 call	 _memcpy
  00add	83 c4 0c	 add	 esp, 12			; 0000000cH

; 1454 : 				CopyMemory(KindItemTemp,KindItem,sizeof(KindItem));

  00ae0	68 4c 02 00 00	 push	 588			; 0000024cH
  00ae5	8d 85 58 fd ff
	ff		 lea	 eax, DWORD PTR _KindItem$[ebp]
  00aeb	50		 push	 eax
  00aec	8d 8d 0c fb ff
	ff		 lea	 ecx, DWORD PTR _KindItemTemp$28[ebp]
  00af2	51		 push	 ecx
  00af3	e8 00 00 00 00	 call	 _memcpy
  00af8	83 c4 0c	 add	 esp, 12			; 0000000cH

; 1455 : 	
; 1456 : 				for (BYTE i=0;i<cbLessKindItem;i++)

  00afb	c6 85 b6 fa ff
	ff 00		 mov	 BYTE PTR _i$14[ebp], 0
  00b02	eb 0f		 jmp	 SHORT $LN30@AnalyseCar
$LN28@AnalyseCar:
  00b04	8a 95 b6 fa ff
	ff		 mov	 dl, BYTE PTR _i$14[ebp]
  00b0a	80 c2 01	 add	 dl, 1
  00b0d	88 95 b6 fa ff
	ff		 mov	 BYTE PTR _i$14[ebp], dl
$LN30@AnalyseCar:
  00b13	0f b6 85 b6 fa
	ff ff		 movzx	 eax, BYTE PTR _i$14[ebp]
  00b1a	0f b6 8d c3 fa
	ff ff		 movzx	 ecx, BYTE PTR _cbLessKindItem$[ebp]
  00b21	3b c1		 cmp	 eax, ecx
  00b23	7d 26		 jge	 SHORT $LN29@AnalyseCar

; 1457 : 					pKindItem[i]=&KindItemTemp[cbIndex[i]];

  00b25	0f b6 95 b6 fa
	ff ff		 movzx	 edx, BYTE PTR _i$14[ebp]
  00b2c	0f b6 84 15 98
	fa ff ff	 movzx	 eax, BYTE PTR _cbIndex$5[ebp+edx]
  00b34	6b c8 06	 imul	 ecx, eax, 6
  00b37	8d 94 0d 0c fb
	ff ff		 lea	 edx, DWORD PTR _KindItemTemp$28[ebp+ecx]
  00b3e	0f b6 85 b6 fa
	ff ff		 movzx	 eax, BYTE PTR _i$14[ebp]
  00b45	89 54 85 a4	 mov	 DWORD PTR _pKindItem$29[ebp+eax*4], edx
  00b49	eb b9		 jmp	 SHORT $LN28@AnalyseCar
$LN29@AnalyseCar:

; 1458 : 
; 1459 : 
; 1460 : 				//数量判断
; 1461 : 				bool bEnoughCard=true;

  00b4b	c6 85 a0 fa ff
	ff 01		 mov	 BYTE PTR _bEnoughCard$6[ebp], 1

; 1462 : 
; 1463 : 				for (BYTE i=0;i<cbLessKindItem*3;i++)

  00b52	c6 85 ba fa ff
	ff 00		 mov	 BYTE PTR _i$16[ebp], 0
  00b59	eb 0f		 jmp	 SHORT $LN33@AnalyseCar
$LN31@AnalyseCar:
  00b5b	8a 8d ba fa ff
	ff		 mov	 cl, BYTE PTR _i$16[ebp]
  00b61	80 c1 01	 add	 cl, 1
  00b64	88 8d ba fa ff
	ff		 mov	 BYTE PTR _i$16[ebp], cl
$LN33@AnalyseCar:
  00b6a	0f b6 95 ba fa
	ff ff		 movzx	 edx, BYTE PTR _i$16[ebp]
  00b71	0f b6 85 c3 fa
	ff ff		 movzx	 eax, BYTE PTR _cbLessKindItem$[ebp]
  00b78	6b c8 03	 imul	 ecx, eax, 3
  00b7b	3b d1		 cmp	 edx, ecx
  00b7d	0f 8d d6 00 00
	00		 jge	 $LN32@AnalyseCar

; 1464 : 				{
; 1465 : 					//存在判断
; 1466 : 					BYTE cbCardIndex=pKindItem[i/3]->cbValidIndex[i%3]; 

  00b83	0f b6 85 ba fa
	ff ff		 movzx	 eax, BYTE PTR _i$16[ebp]
  00b8a	99		 cdq
  00b8b	b9 03 00 00 00	 mov	 ecx, 3
  00b90	f7 f9		 idiv	 ecx
  00b92	8b 4c 85 a4	 mov	 ecx, DWORD PTR _pKindItem$29[ebp+eax*4]
  00b96	0f b6 85 ba fa
	ff ff		 movzx	 eax, BYTE PTR _i$16[ebp]
  00b9d	99		 cdq
  00b9e	be 03 00 00 00	 mov	 esi, 3
  00ba3	f7 fe		 idiv	 esi
  00ba5	8a 54 11 02	 mov	 dl, BYTE PTR [ecx+edx+2]
  00ba9	88 95 a7 fa ff
	ff		 mov	 BYTE PTR _cbCardIndex$7[ebp], dl

; 1467 : 					if (cbCardIndexTemp[cbCardIndex]==0)

  00baf	0f b6 85 a7 fa
	ff ff		 movzx	 eax, BYTE PTR _cbCardIndex$7[ebp]
  00bb6	0f b6 4c 05 b4	 movzx	 ecx, BYTE PTR _cbCardIndexTemp$30[ebp+eax]
  00bbb	85 c9		 test	 ecx, ecx
  00bbd	75 7c		 jne	 SHORT $LN78@AnalyseCar

; 1468 : 					{
; 1469 : 						if(m_cbMagicIndex != MAX_INDEX && cbCardIndexTemp[m_cbMagicIndex] > 0)

  00bbf	8b 95 c4 fa ff
	ff		 mov	 edx, DWORD PTR _this$[ebp]
  00bc5	0f b6 42 04	 movzx	 eax, BYTE PTR [edx+4]
  00bc9	83 f8 22	 cmp	 eax, 34			; 00000022H
  00bcc	74 62		 je	 SHORT $LN80@AnalyseCar
  00bce	8b 8d c4 fa ff
	ff		 mov	 ecx, DWORD PTR _this$[ebp]
  00bd4	0f b6 51 04	 movzx	 edx, BYTE PTR [ecx+4]
  00bd8	0f b6 44 15 b4	 movzx	 eax, BYTE PTR _cbCardIndexTemp$30[ebp+edx]
  00bdd	85 c0		 test	 eax, eax
  00bdf	7e 4f		 jle	 SHORT $LN80@AnalyseCar

; 1470 : 						{											
; 1471 : 							pKindItem[i/3]->cbValidIndex[i%3] = m_cbMagicIndex;

  00be1	0f b6 85 ba fa
	ff ff		 movzx	 eax, BYTE PTR _i$16[ebp]
  00be8	99		 cdq
  00be9	b9 03 00 00 00	 mov	 ecx, 3
  00bee	f7 f9		 idiv	 ecx
  00bf0	8b 4c 85 a4	 mov	 ecx, DWORD PTR _pKindItem$29[ebp+eax*4]
  00bf4	0f b6 85 ba fa
	ff ff		 movzx	 eax, BYTE PTR _i$16[ebp]
  00bfb	99		 cdq
  00bfc	be 03 00 00 00	 mov	 esi, 3
  00c01	f7 fe		 idiv	 esi
  00c03	8b 85 c4 fa ff
	ff		 mov	 eax, DWORD PTR _this$[ebp]
  00c09	8a 40 04	 mov	 al, BYTE PTR [eax+4]
  00c0c	88 44 11 02	 mov	 BYTE PTR [ecx+edx+2], al

; 1472 : 							cbCardIndexTemp[m_cbMagicIndex]--;

  00c10	8b 8d c4 fa ff
	ff		 mov	 ecx, DWORD PTR _this$[ebp]
  00c16	0f b6 51 04	 movzx	 edx, BYTE PTR [ecx+4]
  00c1a	8a 44 15 b4	 mov	 al, BYTE PTR _cbCardIndexTemp$30[ebp+edx]
  00c1e	2c 01		 sub	 al, 1
  00c20	8b 8d c4 fa ff
	ff		 mov	 ecx, DWORD PTR _this$[ebp]
  00c26	0f b6 51 04	 movzx	 edx, BYTE PTR [ecx+4]
  00c2a	88 44 15 b4	 mov	 BYTE PTR _cbCardIndexTemp$30[ebp+edx], al

; 1473 : 						}
; 1474 : 						else

  00c2e	eb 09		 jmp	 SHORT $LN81@AnalyseCar
$LN80@AnalyseCar:

; 1475 : 						{
; 1476 : 							bEnoughCard=false;

  00c30	c6 85 a0 fa ff
	ff 00		 mov	 BYTE PTR _bEnoughCard$6[ebp], 0

; 1477 : 							break;

  00c37	eb 20		 jmp	 SHORT $LN32@AnalyseCar
$LN81@AnalyseCar:

; 1478 : 						}

  00c39	eb 19		 jmp	 SHORT $LN79@AnalyseCar
$LN78@AnalyseCar:

; 1479 : 					}
; 1480 : 					else cbCardIndexTemp[cbCardIndex]--;

  00c3b	0f b6 85 a7 fa
	ff ff		 movzx	 eax, BYTE PTR _cbCardIndex$7[ebp]
  00c42	8a 4c 05 b4	 mov	 cl, BYTE PTR _cbCardIndexTemp$30[ebp+eax]
  00c46	80 e9 01	 sub	 cl, 1
  00c49	0f b6 95 a7 fa
	ff ff		 movzx	 edx, BYTE PTR _cbCardIndex$7[ebp]
  00c50	88 4c 15 b4	 mov	 BYTE PTR _cbCardIndexTemp$30[ebp+edx], cl
$LN79@AnalyseCar:

; 1481 : 				}

  00c54	e9 02 ff ff ff	 jmp	 $LN31@AnalyseCar
$LN32@AnalyseCar:

; 1482 : 
; 1483 : 				//胡牌判断
; 1484 : 				if (bEnoughCard==true)

  00c59	0f b6 85 a0 fa
	ff ff		 movzx	 eax, BYTE PTR _bEnoughCard$6[ebp]
  00c60	83 f8 01	 cmp	 eax, 1
  00c63	0f 85 95 03 00
	00		 jne	 $LN77@AnalyseCar

; 1485 : 				{
; 1486 : 					//牌眼判断
; 1487 : 					BYTE cbCardEye=0;

  00c69	c6 85 b5 fa ff
	ff 00		 mov	 BYTE PTR _cbCardEye$13[ebp], 0

; 1488 : 					bool bMagicEye = false;

  00c70	c6 85 b3 fa ff
	ff 00		 mov	 BYTE PTR _bMagicEye$11[ebp], 0

; 1489 : 					if(GetCardCount(cbCardIndexTemp) == 2)

  00c77	8d 4d b4	 lea	 ecx, DWORD PTR _cbCardIndexTemp$30[ebp]
  00c7a	51		 push	 ecx
  00c7b	8b 8d c4 fa ff
	ff		 mov	 ecx, DWORD PTR _this$[ebp]
  00c81	e8 00 00 00 00	 call	 ?GetCardCount@CGameLogic@@QAEEQBE@Z ; CGameLogic::GetCardCount
  00c86	0f b6 d0	 movzx	 edx, al
  00c89	83 fa 02	 cmp	 edx, 2
  00c8c	0f 85 39 01 00
	00		 jne	 $LN83@AnalyseCar

; 1490 : 					{
; 1491 : 						if(m_cbMagicIndex != MAX_INDEX && cbCardIndexTemp[m_cbMagicIndex]==2)

  00c92	8b 85 c4 fa ff
	ff		 mov	 eax, DWORD PTR _this$[ebp]
  00c98	0f b6 48 04	 movzx	 ecx, BYTE PTR [eax+4]
  00c9c	83 f9 22	 cmp	 ecx, 34			; 00000022H
  00c9f	74 3c		 je	 SHORT $LN84@AnalyseCar
  00ca1	8b 95 c4 fa ff
	ff		 mov	 edx, DWORD PTR _this$[ebp]
  00ca7	0f b6 42 04	 movzx	 eax, BYTE PTR [edx+4]
  00cab	0f b6 4c 05 b4	 movzx	 ecx, BYTE PTR _cbCardIndexTemp$30[ebp+eax]
  00cb0	83 f9 02	 cmp	 ecx, 2
  00cb3	75 28		 jne	 SHORT $LN84@AnalyseCar

; 1492 : 						{
; 1493 : 							cbCardEye = SwitchToCardData(m_cbMagicIndex);

  00cb5	8b 95 c4 fa ff
	ff		 mov	 edx, DWORD PTR _this$[ebp]
  00cbb	0f b6 42 04	 movzx	 eax, BYTE PTR [edx+4]
  00cbf	50		 push	 eax
  00cc0	8b 8d c4 fa ff
	ff		 mov	 ecx, DWORD PTR _this$[ebp]
  00cc6	e8 00 00 00 00	 call	 ?SwitchToCardData@CGameLogic@@QAEEE@Z ; CGameLogic::SwitchToCardData
  00ccb	88 85 b5 fa ff
	ff		 mov	 BYTE PTR _cbCardEye$13[ebp], al

; 1494 : 							bMagicEye = true;

  00cd1	c6 85 b3 fa ff
	ff 01		 mov	 BYTE PTR _bMagicEye$11[ebp], 1

; 1495 : 						}
; 1496 : 						else

  00cd8	e9 ee 00 00 00	 jmp	 $LN83@AnalyseCar
$LN84@AnalyseCar:

; 1497 : 						{
; 1498 : 							for (BYTE i=0;i<MAX_INDEX;i++)

  00cdd	c6 85 bc fa ff
	ff 00		 mov	 BYTE PTR _i$18[ebp], 0
  00ce4	eb 0f		 jmp	 SHORT $LN36@AnalyseCar
$LN34@AnalyseCar:
  00ce6	8a 8d bc fa ff
	ff		 mov	 cl, BYTE PTR _i$18[ebp]
  00cec	80 c1 01	 add	 cl, 1
  00cef	88 8d bc fa ff
	ff		 mov	 BYTE PTR _i$18[ebp], cl
$LN36@AnalyseCar:
  00cf5	0f b6 95 bc fa
	ff ff		 movzx	 edx, BYTE PTR _i$18[ebp]
  00cfc	83 fa 22	 cmp	 edx, 34			; 00000022H
  00cff	0f 8d c6 00 00
	00		 jge	 $LN83@AnalyseCar

; 1499 : 							{
; 1500 : 								if (cbCardIndexTemp[i]==2)

  00d05	0f b6 85 bc fa
	ff ff		 movzx	 eax, BYTE PTR _i$18[ebp]
  00d0c	0f b6 4c 05 b4	 movzx	 ecx, BYTE PTR _cbCardIndexTemp$30[ebp+eax]
  00d11	83 f9 02	 cmp	 ecx, 2
  00d14	75 48		 jne	 SHORT $LN86@AnalyseCar

; 1501 : 								{
; 1502 : 									cbCardEye=SwitchToCardData(i);

  00d16	0f b6 95 bc fa
	ff ff		 movzx	 edx, BYTE PTR _i$18[ebp]
  00d1d	52		 push	 edx
  00d1e	8b 8d c4 fa ff
	ff		 mov	 ecx, DWORD PTR _this$[ebp]
  00d24	e8 00 00 00 00	 call	 ?SwitchToCardData@CGameLogic@@QAEEE@Z ; CGameLogic::SwitchToCardData
  00d29	88 85 b5 fa ff
	ff		 mov	 BYTE PTR _cbCardEye$13[ebp], al

; 1503 : 									if(m_cbMagicIndex != MAX_INDEX && i == m_cbMagicIndex) 

  00d2f	8b 85 c4 fa ff
	ff		 mov	 eax, DWORD PTR _this$[ebp]
  00d35	0f b6 48 04	 movzx	 ecx, BYTE PTR [eax+4]
  00d39	83 f9 22	 cmp	 ecx, 34			; 00000022H
  00d3c	74 1c		 je	 SHORT $LN88@AnalyseCar
  00d3e	0f b6 95 bc fa
	ff ff		 movzx	 edx, BYTE PTR _i$18[ebp]
  00d45	8b 85 c4 fa ff
	ff		 mov	 eax, DWORD PTR _this$[ebp]
  00d4b	0f b6 48 04	 movzx	 ecx, BYTE PTR [eax+4]
  00d4f	3b d1		 cmp	 edx, ecx
  00d51	75 07		 jne	 SHORT $LN88@AnalyseCar

; 1504 : 									{
; 1505 : 										bMagicEye = true;

  00d53	c6 85 b3 fa ff
	ff 01		 mov	 BYTE PTR _bMagicEye$11[ebp], 1
$LN88@AnalyseCar:

; 1506 : 									}
; 1507 : 									break;

  00d5a	eb 6f		 jmp	 SHORT $LN83@AnalyseCar
  00d5c	eb 68		 jmp	 SHORT $LN87@AnalyseCar
$LN86@AnalyseCar:

; 1508 : 								}
; 1509 : 								else if(i!=m_cbMagicIndex && m_cbMagicIndex != MAX_INDEX && cbCardIndexTemp[i]+cbCardIndexTemp[m_cbMagicIndex]==2)

  00d5e	0f b6 95 bc fa
	ff ff		 movzx	 edx, BYTE PTR _i$18[ebp]
  00d65	8b 85 c4 fa ff
	ff		 mov	 eax, DWORD PTR _this$[ebp]
  00d6b	0f b6 48 04	 movzx	 ecx, BYTE PTR [eax+4]
  00d6f	3b d1		 cmp	 edx, ecx
  00d71	74 53		 je	 SHORT $LN87@AnalyseCar
  00d73	8b 95 c4 fa ff
	ff		 mov	 edx, DWORD PTR _this$[ebp]
  00d79	0f b6 42 04	 movzx	 eax, BYTE PTR [edx+4]
  00d7d	83 f8 22	 cmp	 eax, 34			; 00000022H
  00d80	74 44		 je	 SHORT $LN87@AnalyseCar
  00d82	0f b6 8d bc fa
	ff ff		 movzx	 ecx, BYTE PTR _i$18[ebp]
  00d89	0f b6 54 0d b4	 movzx	 edx, BYTE PTR _cbCardIndexTemp$30[ebp+ecx]
  00d8e	8b 85 c4 fa ff
	ff		 mov	 eax, DWORD PTR _this$[ebp]
  00d94	0f b6 48 04	 movzx	 ecx, BYTE PTR [eax+4]
  00d98	0f b6 44 0d b4	 movzx	 eax, BYTE PTR _cbCardIndexTemp$30[ebp+ecx]
  00d9d	03 d0		 add	 edx, eax
  00d9f	83 fa 02	 cmp	 edx, 2
  00da2	75 22		 jne	 SHORT $LN87@AnalyseCar

; 1510 : 								{
; 1511 : 									cbCardEye = SwitchToCardData(i);

  00da4	0f b6 8d bc fa
	ff ff		 movzx	 ecx, BYTE PTR _i$18[ebp]
  00dab	51		 push	 ecx
  00dac	8b 8d c4 fa ff
	ff		 mov	 ecx, DWORD PTR _this$[ebp]
  00db2	e8 00 00 00 00	 call	 ?SwitchToCardData@CGameLogic@@QAEEE@Z ; CGameLogic::SwitchToCardData
  00db7	88 85 b5 fa ff
	ff		 mov	 BYTE PTR _cbCardEye$13[ebp], al

; 1512 : 									bMagicEye = true;

  00dbd	c6 85 b3 fa ff
	ff 01		 mov	 BYTE PTR _bMagicEye$11[ebp], 1

; 1513 : 									break;

  00dc4	eb 05		 jmp	 SHORT $LN83@AnalyseCar
$LN87@AnalyseCar:

; 1514 : 								}
; 1515 : 							}

  00dc6	e9 1b ff ff ff	 jmp	 $LN34@AnalyseCar
$LN83@AnalyseCar:

; 1516 : 						}
; 1517 : 					}
; 1518 : 
; 1519 : 					//组合类型
; 1520 : 					if (cbCardEye!=0)

  00dcb	0f b6 95 b5 fa
	ff ff		 movzx	 edx, BYTE PTR _cbCardEye$13[ebp]
  00dd2	85 d2		 test	 edx, edx
  00dd4	0f 84 24 02 00
	00		 je	 $LN77@AnalyseCar

; 1521 : 					{
; 1522 : 						//变量定义
; 1523 : 						tagAnalyseItem AnalyseItem;
; 1524 : 						ZeroMemory(&AnalyseItem,sizeof(AnalyseItem));

  00dda	6a 1a		 push	 26			; 0000001aH
  00ddc	6a 00		 push	 0
  00dde	8d 85 e8 fa ff
	ff		 lea	 eax, DWORD PTR _AnalyseItem$27[ebp]
  00de4	50		 push	 eax
  00de5	e8 00 00 00 00	 call	 _memset
  00dea	83 c4 0c	 add	 esp, 12			; 0000000cH

; 1525 : 
; 1526 : 						//设置组合
; 1527 : 						for (BYTE i=0;i<cbWeaveCount;i++)

  00ded	c6 85 bf fa ff
	ff 00		 mov	 BYTE PTR _i$20[ebp], 0
  00df4	eb 0f		 jmp	 SHORT $LN39@AnalyseCar
$LN37@AnalyseCar:
  00df6	8a 8d bf fa ff
	ff		 mov	 cl, BYTE PTR _i$20[ebp]
  00dfc	80 c1 01	 add	 cl, 1
  00dff	88 8d bf fa ff
	ff		 mov	 BYTE PTR _i$20[ebp], cl
$LN39@AnalyseCar:
  00e05	0f b6 95 bf fa
	ff ff		 movzx	 edx, BYTE PTR _i$20[ebp]
  00e0c	0f b6 45 10	 movzx	 eax, BYTE PTR _cbWeaveCount$[ebp]
  00e10	3b d0		 cmp	 edx, eax
  00e12	0f 8d 81 00 00
	00		 jge	 $LN38@AnalyseCar

; 1528 : 						{
; 1529 : 							AnalyseItem.cbWeaveKind[i]=WeaveItem[i].cbWeaveKind;

  00e18	0f b6 8d bf fa
	ff ff		 movzx	 ecx, BYTE PTR _i$20[ebp]
  00e1f	6b d1 09	 imul	 edx, ecx, 9
  00e22	0f b6 85 bf fa
	ff ff		 movzx	 eax, BYTE PTR _i$20[ebp]
  00e29	8b 4d 0c	 mov	 ecx, DWORD PTR _WeaveItem$[ebp]
  00e2c	8a 14 11	 mov	 dl, BYTE PTR [ecx+edx]
  00e2f	88 94 05 ea fa
	ff ff		 mov	 BYTE PTR _AnalyseItem$27[ebp+eax+2], dl

; 1530 : 							AnalyseItem.cbCenterCard[i]=WeaveItem[i].cbCenterCard;

  00e36	0f b6 85 bf fa
	ff ff		 movzx	 eax, BYTE PTR _i$20[ebp]
  00e3d	6b c8 09	 imul	 ecx, eax, 9
  00e40	0f b6 95 bf fa
	ff ff		 movzx	 edx, BYTE PTR _i$20[ebp]
  00e47	8b 45 0c	 mov	 eax, DWORD PTR _WeaveItem$[ebp]
  00e4a	8a 4c 08 01	 mov	 cl, BYTE PTR [eax+ecx+1]
  00e4e	88 8c 15 ee fa
	ff ff		 mov	 BYTE PTR _AnalyseItem$27[ebp+edx+6], cl

; 1531 : 							GetWeaveCard(WeaveItem[i].cbWeaveKind,WeaveItem[i].cbCenterCard,AnalyseItem.cbCardData[i]);

  00e55	0f b6 95 bf fa
	ff ff		 movzx	 edx, BYTE PTR _i$20[ebp]
  00e5c	8d 84 95 f2 fa
	ff ff		 lea	 eax, DWORD PTR _AnalyseItem$27[ebp+edx*4+10]
  00e63	50		 push	 eax
  00e64	0f b6 8d bf fa
	ff ff		 movzx	 ecx, BYTE PTR _i$20[ebp]
  00e6b	6b d1 09	 imul	 edx, ecx, 9
  00e6e	8b 45 0c	 mov	 eax, DWORD PTR _WeaveItem$[ebp]
  00e71	0f b6 4c 10 01	 movzx	 ecx, BYTE PTR [eax+edx+1]
  00e76	51		 push	 ecx
  00e77	0f b6 95 bf fa
	ff ff		 movzx	 edx, BYTE PTR _i$20[ebp]
  00e7e	6b c2 09	 imul	 eax, edx, 9
  00e81	8b 4d 0c	 mov	 ecx, DWORD PTR _WeaveItem$[ebp]
  00e84	0f b6 14 01	 movzx	 edx, BYTE PTR [ecx+eax]
  00e88	52		 push	 edx
  00e89	8b 8d c4 fa ff
	ff		 mov	 ecx, DWORD PTR _this$[ebp]
  00e8f	e8 00 00 00 00	 call	 ?GetWeaveCard@CGameLogic@@QAEEEEQAE@Z ; CGameLogic::GetWeaveCard

; 1532 : 						}

  00e94	e9 5d ff ff ff	 jmp	 $LN37@AnalyseCar
$LN38@AnalyseCar:

; 1533 : 
; 1534 : 						//设置牌型
; 1535 : 						for (BYTE i=0;i<cbLessKindItem;i++) 

  00e99	c6 85 ca fa ff
	ff 00		 mov	 BYTE PTR _i$24[ebp], 0
  00ea0	eb 0e		 jmp	 SHORT $LN42@AnalyseCar
$LN40@AnalyseCar:
  00ea2	8a 85 ca fa ff
	ff		 mov	 al, BYTE PTR _i$24[ebp]
  00ea8	04 01		 add	 al, 1
  00eaa	88 85 ca fa ff
	ff		 mov	 BYTE PTR _i$24[ebp], al
$LN42@AnalyseCar:
  00eb0	0f b6 8d ca fa
	ff ff		 movzx	 ecx, BYTE PTR _i$24[ebp]
  00eb7	0f b6 95 c3 fa
	ff ff		 movzx	 edx, BYTE PTR _cbLessKindItem$[ebp]
  00ebe	3b ca		 cmp	 ecx, edx
  00ec0	0f 8d 11 01 00
	00		 jge	 $LN41@AnalyseCar

; 1536 : 						{
; 1537 : 							AnalyseItem.cbWeaveKind[i+cbWeaveCount]=pKindItem[i]->cbWeaveKind;

  00ec6	0f b6 85 ca fa
	ff ff		 movzx	 eax, BYTE PTR _i$24[ebp]
  00ecd	8b 4c 85 a4	 mov	 ecx, DWORD PTR _pKindItem$29[ebp+eax*4]
  00ed1	0f b6 95 ca fa
	ff ff		 movzx	 edx, BYTE PTR _i$24[ebp]
  00ed8	0f b6 45 10	 movzx	 eax, BYTE PTR _cbWeaveCount$[ebp]
  00edc	8d 84 05 ea fa
	ff ff		 lea	 eax, DWORD PTR _AnalyseItem$27[ebp+eax+2]
  00ee3	8a 09		 mov	 cl, BYTE PTR [ecx]
  00ee5	88 0c 10	 mov	 BYTE PTR [eax+edx], cl

; 1538 : 							AnalyseItem.cbCenterCard[i+cbWeaveCount]=pKindItem[i]->cbCenterCard;

  00ee8	0f b6 95 ca fa
	ff ff		 movzx	 edx, BYTE PTR _i$24[ebp]
  00eef	8b 44 95 a4	 mov	 eax, DWORD PTR _pKindItem$29[ebp+edx*4]
  00ef3	0f b6 8d ca fa
	ff ff		 movzx	 ecx, BYTE PTR _i$24[ebp]
  00efa	0f b6 55 10	 movzx	 edx, BYTE PTR _cbWeaveCount$[ebp]
  00efe	8d 94 15 ee fa
	ff ff		 lea	 edx, DWORD PTR _AnalyseItem$27[ebp+edx+6]
  00f05	8a 40 01	 mov	 al, BYTE PTR [eax+1]
  00f08	88 04 0a	 mov	 BYTE PTR [edx+ecx], al

; 1539 : 							AnalyseItem.cbCardData[cbWeaveCount+i][0] = SwitchToCardData(pKindItem[i]->cbValidIndex[0]);

  00f0b	0f b6 8d ca fa
	ff ff		 movzx	 ecx, BYTE PTR _i$24[ebp]
  00f12	8b 54 8d a4	 mov	 edx, DWORD PTR _pKindItem$29[ebp+ecx*4]
  00f16	b8 01 00 00 00	 mov	 eax, 1
  00f1b	6b c8 00	 imul	 ecx, eax, 0
  00f1e	0f b6 54 0a 02	 movzx	 edx, BYTE PTR [edx+ecx+2]
  00f23	52		 push	 edx
  00f24	8b 8d c4 fa ff
	ff		 mov	 ecx, DWORD PTR _this$[ebp]
  00f2a	e8 00 00 00 00	 call	 ?SwitchToCardData@CGameLogic@@QAEEE@Z ; CGameLogic::SwitchToCardData
  00f2f	0f b6 4d 10	 movzx	 ecx, BYTE PTR _cbWeaveCount$[ebp]
  00f33	0f b6 95 ca fa
	ff ff		 movzx	 edx, BYTE PTR _i$24[ebp]
  00f3a	03 ca		 add	 ecx, edx
  00f3c	8d 8c 8d f2 fa
	ff ff		 lea	 ecx, DWORD PTR _AnalyseItem$27[ebp+ecx*4+10]
  00f43	ba 01 00 00 00	 mov	 edx, 1
  00f48	6b d2 00	 imul	 edx, edx, 0
  00f4b	88 04 11	 mov	 BYTE PTR [ecx+edx], al

; 1540 : 							AnalyseItem.cbCardData[cbWeaveCount+i][1] = SwitchToCardData(pKindItem[i]->cbValidIndex[1]);

  00f4e	0f b6 85 ca fa
	ff ff		 movzx	 eax, BYTE PTR _i$24[ebp]
  00f55	8b 4c 85 a4	 mov	 ecx, DWORD PTR _pKindItem$29[ebp+eax*4]
  00f59	ba 01 00 00 00	 mov	 edx, 1
  00f5e	c1 e2 00	 shl	 edx, 0
  00f61	0f b6 44 11 02	 movzx	 eax, BYTE PTR [ecx+edx+2]
  00f66	50		 push	 eax
  00f67	8b 8d c4 fa ff
	ff		 mov	 ecx, DWORD PTR _this$[ebp]
  00f6d	e8 00 00 00 00	 call	 ?SwitchToCardData@CGameLogic@@QAEEE@Z ; CGameLogic::SwitchToCardData
  00f72	0f b6 4d 10	 movzx	 ecx, BYTE PTR _cbWeaveCount$[ebp]
  00f76	0f b6 95 ca fa
	ff ff		 movzx	 edx, BYTE PTR _i$24[ebp]
  00f7d	03 ca		 add	 ecx, edx
  00f7f	8d 8c 8d f2 fa
	ff ff		 lea	 ecx, DWORD PTR _AnalyseItem$27[ebp+ecx*4+10]
  00f86	ba 01 00 00 00	 mov	 edx, 1
  00f8b	c1 e2 00	 shl	 edx, 0
  00f8e	88 04 11	 mov	 BYTE PTR [ecx+edx], al

; 1541 : 							AnalyseItem.cbCardData[cbWeaveCount+i][2] = SwitchToCardData(pKindItem[i]->cbValidIndex[2]);

  00f91	0f b6 85 ca fa
	ff ff		 movzx	 eax, BYTE PTR _i$24[ebp]
  00f98	8b 4c 85 a4	 mov	 ecx, DWORD PTR _pKindItem$29[ebp+eax*4]
  00f9c	ba 01 00 00 00	 mov	 edx, 1
  00fa1	d1 e2		 shl	 edx, 1
  00fa3	0f b6 44 11 02	 movzx	 eax, BYTE PTR [ecx+edx+2]
  00fa8	50		 push	 eax
  00fa9	8b 8d c4 fa ff
	ff		 mov	 ecx, DWORD PTR _this$[ebp]
  00faf	e8 00 00 00 00	 call	 ?SwitchToCardData@CGameLogic@@QAEEE@Z ; CGameLogic::SwitchToCardData
  00fb4	0f b6 4d 10	 movzx	 ecx, BYTE PTR _cbWeaveCount$[ebp]
  00fb8	0f b6 95 ca fa
	ff ff		 movzx	 edx, BYTE PTR _i$24[ebp]
  00fbf	03 ca		 add	 ecx, edx
  00fc1	8d 8c 8d f2 fa
	ff ff		 lea	 ecx, DWORD PTR _AnalyseItem$27[ebp+ecx*4+10]
  00fc8	ba 01 00 00 00	 mov	 edx, 1
  00fcd	d1 e2		 shl	 edx, 1
  00fcf	88 04 11	 mov	 BYTE PTR [ecx+edx], al

; 1542 : 						}

  00fd2	e9 cb fe ff ff	 jmp	 $LN40@AnalyseCar
$LN41@AnalyseCar:

; 1543 : 
; 1544 : 						//设置牌眼
; 1545 : 						AnalyseItem.cbCardEye=cbCardEye;

  00fd7	8a 85 b5 fa ff
	ff		 mov	 al, BYTE PTR _cbCardEye$13[ebp]
  00fdd	88 85 e8 fa ff
	ff		 mov	 BYTE PTR _AnalyseItem$27[ebp], al

; 1546 : 						AnalyseItem.bMagicEye = bMagicEye;

  00fe3	8a 8d b3 fa ff
	ff		 mov	 cl, BYTE PTR _bMagicEye$11[ebp]
  00fe9	88 8d e9 fa ff
	ff		 mov	 BYTE PTR _AnalyseItem$27[ebp+1], cl

; 1547 : 
; 1548 : 						//插入结果
; 1549 : 						AnalyseItemArray.Add(AnalyseItem);

  00fef	8d 95 e8 fa ff
	ff		 lea	 edx, DWORD PTR _AnalyseItem$27[ebp]
  00ff5	52		 push	 edx
  00ff6	8b 4d 14	 mov	 ecx, DWORD PTR _AnalyseItemArray$[ebp]
  00ff9	e8 00 00 00 00	 call	 ?Add@?$CWHArray@UtagAnalyseItem@@AAU1@@@QAEHAAUtagAnalyseItem@@@Z ; CWHArray<tagAnalyseItem,tagAnalyseItem &>::Add
$LN77@AnalyseCar:

; 1550 : 					}
; 1551 : 				}
; 1552 : 			}
; 1553 : 
; 1554 : 			//设置索引
; 1555 : 			if (cbIndex[cbLessKindItem-1]==(cbKindItemCount-1))

  00ffe	0f b6 85 c3 fa
	ff ff		 movzx	 eax, BYTE PTR _cbLessKindItem$[ebp]
  01005	0f b6 8c 05 97
	fa ff ff	 movzx	 ecx, BYTE PTR _cbIndex$5[ebp+eax-1]
  0100d	0f b6 95 b9 fa
	ff ff		 movzx	 edx, BYTE PTR _cbKindItemCount$[ebp]
  01014	83 ea 01	 sub	 edx, 1
  01017	3b ca		 cmp	 ecx, edx
  01019	0f 85 de 00 00
	00		 jne	 $LN91@AnalyseCar

; 1556 : 			{
; 1557 : 				BYTE i = cbLessKindItem - 1;

  0101f	0f b6 85 c3 fa
	ff ff		 movzx	 eax, BYTE PTR _cbLessKindItem$[ebp]
  01026	83 e8 01	 sub	 eax, 1
  01029	88 85 bb fa ff
	ff		 mov	 BYTE PTR _i$17[ebp], al

; 1558 : 				for (;i>0;i--)

  0102f	eb 0f		 jmp	 SHORT $LN45@AnalyseCar
$LN43@AnalyseCar:
  01031	8a 8d bb fa ff
	ff		 mov	 cl, BYTE PTR _i$17[ebp]
  01037	80 e9 01	 sub	 cl, 1
  0103a	88 8d bb fa ff
	ff		 mov	 BYTE PTR _i$17[ebp], cl
$LN45@AnalyseCar:
  01040	0f b6 95 bb fa
	ff ff		 movzx	 edx, BYTE PTR _i$17[ebp]
  01047	85 d2		 test	 edx, edx
  01049	0f 8e 9f 00 00
	00		 jle	 $LN44@AnalyseCar

; 1559 : 				{
; 1560 : 					if ((cbIndex[i-1]+1)!=cbIndex[i])

  0104f	0f b6 85 bb fa
	ff ff		 movzx	 eax, BYTE PTR _i$17[ebp]
  01056	0f b6 8c 05 97
	fa ff ff	 movzx	 ecx, BYTE PTR _cbIndex$5[ebp+eax-1]
  0105e	83 c1 01	 add	 ecx, 1
  01061	0f b6 95 bb fa
	ff ff		 movzx	 edx, BYTE PTR _i$17[ebp]
  01068	0f b6 84 15 98
	fa ff ff	 movzx	 eax, BYTE PTR _cbIndex$5[ebp+edx]
  01070	3b c8		 cmp	 ecx, eax
  01072	74 75		 je	 SHORT $LN93@AnalyseCar

; 1561 : 					{
; 1562 : 						BYTE cbNewIndex=cbIndex[i-1];

  01074	0f b6 8d bb fa
	ff ff		 movzx	 ecx, BYTE PTR _i$17[ebp]
  0107b	8a 94 0d 97 fa
	ff ff		 mov	 dl, BYTE PTR _cbIndex$5[ebp+ecx-1]
  01082	88 95 97 fa ff
	ff		 mov	 BYTE PTR _cbNewIndex$4[ebp], dl

; 1563 : 						for (BYTE j=(i-1);j<cbLessKindItem;j++) 

  01088	0f b6 85 bb fa
	ff ff		 movzx	 eax, BYTE PTR _i$17[ebp]
  0108f	83 e8 01	 sub	 eax, 1
  01092	88 85 b4 fa ff
	ff		 mov	 BYTE PTR _j$12[ebp], al
  01098	eb 0f		 jmp	 SHORT $LN48@AnalyseCar
$LN46@AnalyseCar:
  0109a	8a 8d b4 fa ff
	ff		 mov	 cl, BYTE PTR _j$12[ebp]
  010a0	80 c1 01	 add	 cl, 1
  010a3	88 8d b4 fa ff
	ff		 mov	 BYTE PTR _j$12[ebp], cl
$LN48@AnalyseCar:
  010a9	0f b6 95 b4 fa
	ff ff		 movzx	 edx, BYTE PTR _j$12[ebp]
  010b0	0f b6 85 c3 fa
	ff ff		 movzx	 eax, BYTE PTR _cbLessKindItem$[ebp]
  010b7	3b d0		 cmp	 edx, eax
  010b9	7d 2c		 jge	 SHORT $LN47@AnalyseCar

; 1564 : 							cbIndex[j]=cbNewIndex+j-i+2;

  010bb	0f b6 8d 97 fa
	ff ff		 movzx	 ecx, BYTE PTR _cbNewIndex$4[ebp]
  010c2	0f b6 95 b4 fa
	ff ff		 movzx	 edx, BYTE PTR _j$12[ebp]
  010c9	03 ca		 add	 ecx, edx
  010cb	0f b6 85 bb fa
	ff ff		 movzx	 eax, BYTE PTR _i$17[ebp]
  010d2	2b c8		 sub	 ecx, eax
  010d4	83 c1 02	 add	 ecx, 2
  010d7	0f b6 95 b4 fa
	ff ff		 movzx	 edx, BYTE PTR _j$12[ebp]
  010de	88 8c 15 98 fa
	ff ff		 mov	 BYTE PTR _cbIndex$5[ebp+edx], cl
  010e5	eb b3		 jmp	 SHORT $LN46@AnalyseCar
$LN47@AnalyseCar:

; 1565 : 						break;

  010e7	eb 05		 jmp	 SHORT $LN44@AnalyseCar
$LN93@AnalyseCar:

; 1566 : 					}
; 1567 : 				}

  010e9	e9 43 ff ff ff	 jmp	 $LN43@AnalyseCar
$LN44@AnalyseCar:

; 1568 : 				if (i==0)

  010ee	0f b6 85 bb fa
	ff ff		 movzx	 eax, BYTE PTR _i$17[ebp]
  010f5	85 c0		 test	 eax, eax
  010f7	75 02		 jne	 SHORT $LN94@AnalyseCar

; 1569 : 					break;

  010f9	eb 2e		 jmp	 SHORT $LN76@AnalyseCar
$LN94@AnalyseCar:

; 1570 : 			}
; 1571 : 			else

  010fb	eb 1f		 jmp	 SHORT $LN22@AnalyseCar
$LN91@AnalyseCar:

; 1572 : 				cbIndex[cbLessKindItem-1]++;

  010fd	0f b6 8d c3 fa
	ff ff		 movzx	 ecx, BYTE PTR _cbLessKindItem$[ebp]
  01104	8a 94 0d 97 fa
	ff ff		 mov	 dl, BYTE PTR _cbIndex$5[ebp+ecx-1]
  0110b	80 c2 01	 add	 dl, 1
  0110e	0f b6 85 c3 fa
	ff ff		 movzx	 eax, BYTE PTR _cbLessKindItem$[ebp]
  01115	88 94 05 97 fa
	ff ff		 mov	 BYTE PTR _cbIndex$5[ebp+eax-1], dl
$LN22@AnalyseCar:

; 1573 : 
; 1574 : 		} while (true);

  0111c	b9 01 00 00 00	 mov	 ecx, 1
  01121	85 c9		 test	 ecx, ecx
  01123	0f 85 34 f9 ff
	ff		 jne	 $LN24@AnalyseCar
$LN76@AnalyseCar:

; 1575 : 	}
; 1576 : 
; 1577 : 	return (AnalyseItemArray.GetCount()>0);

  01129	8b 4d 14	 mov	 ecx, DWORD PTR _AnalyseItemArray$[ebp]
  0112c	e8 00 00 00 00	 call	 ?GetCount@?$CWHArray@UtagAnalyseItem@@AAU1@@@QBEHXZ ; CWHArray<tagAnalyseItem,tagAnalyseItem &>::GetCount
  01131	85 c0		 test	 eax, eax
  01133	7e 0c		 jle	 SHORT $LN118@AnalyseCar
  01135	c7 85 80 fa ff
	ff 01 00 00 00	 mov	 DWORD PTR tv869[ebp], 1
  0113f	eb 0a		 jmp	 SHORT $LN119@AnalyseCar
$LN118@AnalyseCar:
  01141	c7 85 80 fa ff
	ff 00 00 00 00	 mov	 DWORD PTR tv869[ebp], 0
$LN119@AnalyseCar:
  0114b	8a 85 80 fa ff
	ff		 mov	 al, BYTE PTR tv869[ebp]
$LN1@AnalyseCar:

; 1578 : }

  01151	5e		 pop	 esi
  01152	8b 4d fc	 mov	 ecx, DWORD PTR __$ArrayPad$[ebp]
  01155	33 cd		 xor	 ecx, ebp
  01157	e8 00 00 00 00	 call	 @__security_check_cookie@4
  0115c	8b e5		 mov	 esp, ebp
  0115e	5d		 pop	 ebp
  0115f	c2 10 00	 ret	 16			; 00000010H
?AnalyseCard@CGameLogic@@AAE_NQBEQBUtagWeaveItem@@EAAV?$CWHArray@UtagAnalyseItem@@AAU1@@@@Z ENDP ; CGameLogic::AnalyseCard
_TEXT	ENDS
; Function compile flags: /Odtp
; File d:\qijianban\laok\服务端\游戏组件\老k子游戏\红中麻将\服务器组件\gamelogic.cpp
_TEXT	SEGMENT
tv268 = -68						; size = 4
tv260 = -64						; size = 4
tv185 = -60						; size = 4
tv136 = -56						; size = 4
tv89 = -52						; size = 4
tv80 = -48						; size = 4
tv72 = -44						; size = 4
_i$1 = -40						; size = 4
_i$2 = -36						; size = 4
_i$3 = -32						; size = 4
_j$4 = -28						; size = 4
_i$5 = -24						; size = 4
_j$6 = -20						; size = 4
_this$ = -16						; size = 4
_cbCardIndex$7 = -12					; size = 2
_cbTempCardIndex$8 = -8					; size = 2
_bFind$9 = -4						; size = 1
_cbNoTempMagicIndex$10 = -3				; size = 1
_cbNoMagicIndex$11 = -2					; size = 1
_cbCardCount$12 = -1					; size = 1
_TempKindItem$ = 8					; size = 4
_KindItem$ = 12						; size = 4
_cbKindItemCount$ = 16					; size = 4
_bMagicThree$ = 20					; size = 4
?AddKindItem@CGameLogic@@AAE_NAAUtagKindItem@@QAU2@AAEAA_N@Z PROC ; CGameLogic::AddKindItem
; _this$ = ecx

; 1136 : {

  00000	55		 push	 ebp
  00001	8b ec		 mov	 ebp, esp
  00003	83 ec 44	 sub	 esp, 68			; 00000044H
  00006	89 4d f0	 mov	 DWORD PTR _this$[ebp], ecx

; 1137 : 	TempKindItem.cbMagicCount =  

  00009	8b 45 f0	 mov	 eax, DWORD PTR _this$[ebp]
  0000c	0f b6 48 04	 movzx	 ecx, BYTE PTR [eax+4]
  00010	ba 01 00 00 00	 mov	 edx, 1
  00015	6b c2 00	 imul	 eax, edx, 0
  00018	8b 55 08	 mov	 edx, DWORD PTR _TempKindItem$[ebp]
  0001b	0f b6 44 02 02	 movzx	 eax, BYTE PTR [edx+eax+2]
  00020	3b c8		 cmp	 ecx, eax
  00022	75 09		 jne	 SHORT $LN36@AddKindIte
  00024	c7 45 d4 01 00
	00 00		 mov	 DWORD PTR tv72[ebp], 1
  0002b	eb 07		 jmp	 SHORT $LN37@AddKindIte
$LN36@AddKindIte:
  0002d	c7 45 d4 00 00
	00 00		 mov	 DWORD PTR tv72[ebp], 0
$LN37@AddKindIte:
  00034	8b 4d f0	 mov	 ecx, DWORD PTR _this$[ebp]
  00037	0f b6 51 04	 movzx	 edx, BYTE PTR [ecx+4]
  0003b	b8 01 00 00 00	 mov	 eax, 1
  00040	c1 e0 00	 shl	 eax, 0
  00043	8b 4d 08	 mov	 ecx, DWORD PTR _TempKindItem$[ebp]
  00046	0f b6 44 01 02	 movzx	 eax, BYTE PTR [ecx+eax+2]
  0004b	3b d0		 cmp	 edx, eax
  0004d	75 09		 jne	 SHORT $LN38@AddKindIte
  0004f	c7 45 d0 01 00
	00 00		 mov	 DWORD PTR tv80[ebp], 1
  00056	eb 07		 jmp	 SHORT $LN39@AddKindIte
$LN38@AddKindIte:
  00058	c7 45 d0 00 00
	00 00		 mov	 DWORD PTR tv80[ebp], 0
$LN39@AddKindIte:
  0005f	8b 4d f0	 mov	 ecx, DWORD PTR _this$[ebp]
  00062	0f b6 51 04	 movzx	 edx, BYTE PTR [ecx+4]
  00066	b8 01 00 00 00	 mov	 eax, 1
  0006b	d1 e0		 shl	 eax, 1
  0006d	8b 4d 08	 mov	 ecx, DWORD PTR _TempKindItem$[ebp]
  00070	0f b6 44 01 02	 movzx	 eax, BYTE PTR [ecx+eax+2]
  00075	3b d0		 cmp	 edx, eax
  00077	75 09		 jne	 SHORT $LN40@AddKindIte
  00079	c7 45 cc 01 00
	00 00		 mov	 DWORD PTR tv89[ebp], 1
  00080	eb 07		 jmp	 SHORT $LN41@AddKindIte
$LN40@AddKindIte:
  00082	c7 45 cc 00 00
	00 00		 mov	 DWORD PTR tv89[ebp], 0
$LN41@AddKindIte:
  00089	8b 4d d4	 mov	 ecx, DWORD PTR tv72[ebp]
  0008c	03 4d d0	 add	 ecx, DWORD PTR tv80[ebp]
  0008f	03 4d cc	 add	 ecx, DWORD PTR tv89[ebp]
  00092	8b 55 08	 mov	 edx, DWORD PTR _TempKindItem$[ebp]
  00095	88 4a 05	 mov	 BYTE PTR [edx+5], cl

; 1138 : 		(m_cbMagicIndex == TempKindItem.cbValidIndex[0] ? 1 : 0) + 
; 1139 : 		(m_cbMagicIndex == TempKindItem.cbValidIndex[1] ? 1 : 0) +
; 1140 : 		(m_cbMagicIndex == TempKindItem.cbValidIndex[2] ? 1 : 0) ;
; 1141 : 
; 1142 : 	if(TempKindItem.cbMagicCount>=3) 

  00098	8b 45 08	 mov	 eax, DWORD PTR _TempKindItem$[ebp]
  0009b	0f b6 48 05	 movzx	 ecx, BYTE PTR [eax+5]
  0009f	83 f9 03	 cmp	 ecx, 3
  000a2	7c 50		 jl	 SHORT $LN20@AddKindIte

; 1143 : 	{
; 1144 : 		if(!bMagicThree)

  000a4	8b 55 14	 mov	 edx, DWORD PTR _bMagicThree$[ebp]
  000a7	0f b6 02	 movzx	 eax, BYTE PTR [edx]
  000aa	85 c0		 test	 eax, eax
  000ac	75 3a		 jne	 SHORT $LN22@AddKindIte

; 1145 : 		{
; 1146 : 			bMagicThree = true;

  000ae	8b 4d 14	 mov	 ecx, DWORD PTR _bMagicThree$[ebp]
  000b1	c6 01 01	 mov	 BYTE PTR [ecx], 1

; 1147 : 			CopyMemory(&KindItem[cbKindItemCount++],&TempKindItem,sizeof(TempKindItem));

  000b4	8b 55 10	 mov	 edx, DWORD PTR _cbKindItemCount$[ebp]
  000b7	0f b6 02	 movzx	 eax, BYTE PTR [edx]
  000ba	6b c8 06	 imul	 ecx, eax, 6
  000bd	03 4d 0c	 add	 ecx, DWORD PTR _KindItem$[ebp]
  000c0	89 4d c8	 mov	 DWORD PTR tv136[ebp], ecx
  000c3	8b 55 10	 mov	 edx, DWORD PTR _cbKindItemCount$[ebp]
  000c6	8a 02		 mov	 al, BYTE PTR [edx]
  000c8	04 01		 add	 al, 1
  000ca	8b 4d 10	 mov	 ecx, DWORD PTR _cbKindItemCount$[ebp]
  000cd	88 01		 mov	 BYTE PTR [ecx], al
  000cf	6a 06		 push	 6
  000d1	8b 55 08	 mov	 edx, DWORD PTR _TempKindItem$[ebp]
  000d4	52		 push	 edx
  000d5	8b 45 c8	 mov	 eax, DWORD PTR tv136[ebp]
  000d8	50		 push	 eax
  000d9	e8 00 00 00 00	 call	 _memcpy
  000de	83 c4 0c	 add	 esp, 12			; 0000000cH

; 1148 : 			return true;

  000e1	b0 01		 mov	 al, 1
  000e3	e9 ce 02 00 00	 jmp	 $LN1@AddKindIte
$LN22@AddKindIte:

; 1149 : 		}
; 1150 : 		return false;

  000e8	32 c0		 xor	 al, al
  000ea	e9 c7 02 00 00	 jmp	 $LN1@AddKindIte
  000ef	e9 c2 02 00 00	 jmp	 $LN1@AddKindIte
$LN20@AddKindIte:

; 1151 : 	}
; 1152 : 	else if(TempKindItem.cbMagicCount == 2)

  000f4	8b 4d 08	 mov	 ecx, DWORD PTR _TempKindItem$[ebp]
  000f7	0f b6 51 05	 movzx	 edx, BYTE PTR [ecx+5]
  000fb	83 fa 02	 cmp	 edx, 2
  000fe	0f 85 0f 01 00
	00		 jne	 $LN23@AddKindIte

; 1153 : 	{
; 1154 : 		BYTE cbNoMagicIndex = 0;

  00104	c6 45 fe 00	 mov	 BYTE PTR _cbNoMagicIndex$11[ebp], 0

; 1155 : 		BYTE cbNoTempMagicIndex = 0;

  00108	c6 45 fd 00	 mov	 BYTE PTR _cbNoTempMagicIndex$10[ebp], 0

; 1156 : 		for(int i = 0; i < 3; i++)

  0010c	c7 45 e8 00 00
	00 00		 mov	 DWORD PTR _i$5[ebp], 0
  00113	eb 09		 jmp	 SHORT $LN4@AddKindIte
$LN2@AddKindIte:
  00115	8b 45 e8	 mov	 eax, DWORD PTR _i$5[ebp]
  00118	83 c0 01	 add	 eax, 1
  0011b	89 45 e8	 mov	 DWORD PTR _i$5[ebp], eax
$LN4@AddKindIte:
  0011e	83 7d e8 03	 cmp	 DWORD PTR _i$5[ebp], 3
  00122	7d 25		 jge	 SHORT $LN3@AddKindIte

; 1157 : 		{
; 1158 : 			if(TempKindItem.cbValidIndex[i] != m_cbMagicIndex)

  00124	8b 4d 08	 mov	 ecx, DWORD PTR _TempKindItem$[ebp]
  00127	03 4d e8	 add	 ecx, DWORD PTR _i$5[ebp]
  0012a	0f b6 51 02	 movzx	 edx, BYTE PTR [ecx+2]
  0012e	8b 45 f0	 mov	 eax, DWORD PTR _this$[ebp]
  00131	0f b6 48 04	 movzx	 ecx, BYTE PTR [eax+4]
  00135	3b d1		 cmp	 edx, ecx
  00137	74 0e		 je	 SHORT $LN25@AddKindIte

; 1159 : 			{
; 1160 : 				cbNoTempMagicIndex = TempKindItem.cbValidIndex[i];

  00139	8b 55 08	 mov	 edx, DWORD PTR _TempKindItem$[ebp]
  0013c	03 55 e8	 add	 edx, DWORD PTR _i$5[ebp]
  0013f	8a 42 02	 mov	 al, BYTE PTR [edx+2]
  00142	88 45 fd	 mov	 BYTE PTR _cbNoTempMagicIndex$10[ebp], al

; 1161 : 				break;

  00145	eb 02		 jmp	 SHORT $LN3@AddKindIte
$LN25@AddKindIte:

; 1162 : 			}
; 1163 : 		}

  00147	eb cc		 jmp	 SHORT $LN2@AddKindIte
$LN3@AddKindIte:

; 1164 : 		bool bFind = false;

  00149	c6 45 fc 00	 mov	 BYTE PTR _bFind$9[ebp], 0

; 1165 : 		for(int j = 0; j < cbKindItemCount; j++)

  0014d	c7 45 e4 00 00
	00 00		 mov	 DWORD PTR _j$4[ebp], 0
  00154	eb 09		 jmp	 SHORT $LN7@AddKindIte
$LN5@AddKindIte:
  00156	8b 4d e4	 mov	 ecx, DWORD PTR _j$4[ebp]
  00159	83 c1 01	 add	 ecx, 1
  0015c	89 4d e4	 mov	 DWORD PTR _j$4[ebp], ecx
$LN7@AddKindIte:
  0015f	8b 55 10	 mov	 edx, DWORD PTR _cbKindItemCount$[ebp]
  00162	0f b6 02	 movzx	 eax, BYTE PTR [edx]
  00165	39 45 e4	 cmp	 DWORD PTR _j$4[ebp], eax
  00168	7d 61		 jge	 SHORT $LN6@AddKindIte

; 1166 : 		{
; 1167 : 			for(int i = 0; i < 3; i++)

  0016a	c7 45 e0 00 00
	00 00		 mov	 DWORD PTR _i$3[ebp], 0
  00171	eb 09		 jmp	 SHORT $LN10@AddKindIte
$LN8@AddKindIte:
  00173	8b 4d e0	 mov	 ecx, DWORD PTR _i$3[ebp]
  00176	83 c1 01	 add	 ecx, 1
  00179	89 4d e0	 mov	 DWORD PTR _i$3[ebp], ecx
$LN10@AddKindIte:
  0017c	83 7d e0 03	 cmp	 DWORD PTR _i$3[ebp], 3
  00180	7d 2f		 jge	 SHORT $LN9@AddKindIte

; 1168 : 			{
; 1169 : 				if(KindItem[j].cbValidIndex[i] != m_cbMagicIndex)

  00182	6b 55 e4 06	 imul	 edx, DWORD PTR _j$4[ebp], 6
  00186	03 55 0c	 add	 edx, DWORD PTR _KindItem$[ebp]
  00189	8b 45 e0	 mov	 eax, DWORD PTR _i$3[ebp]
  0018c	0f b6 4c 02 02	 movzx	 ecx, BYTE PTR [edx+eax+2]
  00191	8b 55 f0	 mov	 edx, DWORD PTR _this$[ebp]
  00194	0f b6 42 04	 movzx	 eax, BYTE PTR [edx+4]
  00198	3b c8		 cmp	 ecx, eax
  0019a	74 13		 je	 SHORT $LN26@AddKindIte

; 1170 : 				{
; 1171 : 					cbNoMagicIndex = KindItem[j].cbValidIndex[i];

  0019c	6b 4d e4 06	 imul	 ecx, DWORD PTR _j$4[ebp], 6
  001a0	03 4d 0c	 add	 ecx, DWORD PTR _KindItem$[ebp]
  001a3	8b 55 e0	 mov	 edx, DWORD PTR _i$3[ebp]
  001a6	8a 44 11 02	 mov	 al, BYTE PTR [ecx+edx+2]
  001aa	88 45 fe	 mov	 BYTE PTR _cbNoMagicIndex$11[ebp], al

; 1172 : 					break;

  001ad	eb 02		 jmp	 SHORT $LN9@AddKindIte
$LN26@AddKindIte:

; 1173 : 				}
; 1174 : 			}

  001af	eb c2		 jmp	 SHORT $LN8@AddKindIte
$LN9@AddKindIte:

; 1175 : 			if(cbNoMagicIndex == cbNoTempMagicIndex && cbNoMagicIndex != 0)

  001b1	0f b6 4d fe	 movzx	 ecx, BYTE PTR _cbNoMagicIndex$11[ebp]
  001b5	0f b6 55 fd	 movzx	 edx, BYTE PTR _cbNoTempMagicIndex$10[ebp]
  001b9	3b ca		 cmp	 ecx, edx
  001bb	75 0c		 jne	 SHORT $LN27@AddKindIte
  001bd	0f b6 45 fe	 movzx	 eax, BYTE PTR _cbNoMagicIndex$11[ebp]
  001c1	85 c0		 test	 eax, eax
  001c3	74 04		 je	 SHORT $LN27@AddKindIte

; 1176 : 			{
; 1177 : 				bFind = true;

  001c5	c6 45 fc 01	 mov	 BYTE PTR _bFind$9[ebp], 1
$LN27@AddKindIte:

; 1178 : 			}
; 1179 : 		}

  001c9	eb 8b		 jmp	 SHORT $LN5@AddKindIte
$LN6@AddKindIte:

; 1180 : 
; 1181 : 		if(!bFind)

  001cb	0f b6 4d fc	 movzx	 ecx, BYTE PTR _bFind$9[ebp]
  001cf	85 c9		 test	 ecx, ecx
  001d1	75 34		 jne	 SHORT $LN28@AddKindIte

; 1182 : 		{
; 1183 : 			CopyMemory(&KindItem[cbKindItemCount++],&TempKindItem,sizeof(TempKindItem));

  001d3	8b 55 10	 mov	 edx, DWORD PTR _cbKindItemCount$[ebp]
  001d6	0f b6 02	 movzx	 eax, BYTE PTR [edx]
  001d9	6b c8 06	 imul	 ecx, eax, 6
  001dc	03 4d 0c	 add	 ecx, DWORD PTR _KindItem$[ebp]
  001df	89 4d c4	 mov	 DWORD PTR tv185[ebp], ecx
  001e2	8b 55 10	 mov	 edx, DWORD PTR _cbKindItemCount$[ebp]
  001e5	8a 02		 mov	 al, BYTE PTR [edx]
  001e7	04 01		 add	 al, 1
  001e9	8b 4d 10	 mov	 ecx, DWORD PTR _cbKindItemCount$[ebp]
  001ec	88 01		 mov	 BYTE PTR [ecx], al
  001ee	6a 06		 push	 6
  001f0	8b 55 08	 mov	 edx, DWORD PTR _TempKindItem$[ebp]
  001f3	52		 push	 edx
  001f4	8b 45 c4	 mov	 eax, DWORD PTR tv185[ebp]
  001f7	50		 push	 eax
  001f8	e8 00 00 00 00	 call	 _memcpy
  001fd	83 c4 0c	 add	 esp, 12			; 0000000cH

; 1184 : 			return true;

  00200	b0 01		 mov	 al, 1
  00202	e9 af 01 00 00	 jmp	 $LN1@AddKindIte
$LN28@AddKindIte:

; 1185 : 		}
; 1186 : 		return false;

  00207	32 c0		 xor	 al, al
  00209	e9 a8 01 00 00	 jmp	 $LN1@AddKindIte
  0020e	e9 a3 01 00 00	 jmp	 $LN1@AddKindIte
$LN23@AddKindIte:

; 1187 : 	}
; 1188 : 	else if(TempKindItem.cbMagicCount == 1)

  00213	8b 4d 08	 mov	 ecx, DWORD PTR _TempKindItem$[ebp]
  00216	0f b6 51 05	 movzx	 edx, BYTE PTR [ecx+5]
  0021a	83 fa 01	 cmp	 edx, 1
  0021d	0f 85 64 01 00
	00		 jne	 $LN29@AddKindIte

; 1189 : 	{
; 1190 : 		BYTE cbTempCardIndex[2] = {0};

  00223	c6 45 f8 00	 mov	 BYTE PTR _cbTempCardIndex$8[ebp], 0
  00227	33 c0		 xor	 eax, eax
  00229	88 45 f9	 mov	 BYTE PTR _cbTempCardIndex$8[ebp+1], al

; 1191 : 		BYTE cbCardIndex[2] = {0};

  0022c	c6 45 f4 00	 mov	 BYTE PTR _cbCardIndex$7[ebp], 0
  00230	33 c9		 xor	 ecx, ecx
  00232	88 4d f5	 mov	 BYTE PTR _cbCardIndex$7[ebp+1], cl

; 1192 : 		BYTE cbCardCount = 0;

  00235	c6 45 ff 00	 mov	 BYTE PTR _cbCardCount$12[ebp], 0

; 1193 : 		for(int i = 0; i < 3; i++)

  00239	c7 45 dc 00 00
	00 00		 mov	 DWORD PTR _i$2[ebp], 0
  00240	eb 09		 jmp	 SHORT $LN13@AddKindIte
$LN11@AddKindIte:
  00242	8b 55 dc	 mov	 edx, DWORD PTR _i$2[ebp]
  00245	83 c2 01	 add	 edx, 1
  00248	89 55 dc	 mov	 DWORD PTR _i$2[ebp], edx
$LN13@AddKindIte:
  0024b	83 7d dc 03	 cmp	 DWORD PTR _i$2[ebp], 3
  0024f	7d 31		 jge	 SHORT $LN12@AddKindIte

; 1194 : 		{
; 1195 : 			if(TempKindItem.cbValidIndex[i] != m_cbMagicIndex)

  00251	8b 45 08	 mov	 eax, DWORD PTR _TempKindItem$[ebp]
  00254	03 45 dc	 add	 eax, DWORD PTR _i$2[ebp]
  00257	0f b6 48 02	 movzx	 ecx, BYTE PTR [eax+2]
  0025b	8b 55 f0	 mov	 edx, DWORD PTR _this$[ebp]
  0025e	0f b6 42 04	 movzx	 eax, BYTE PTR [edx+4]
  00262	3b c8		 cmp	 ecx, eax
  00264	74 1a		 je	 SHORT $LN31@AddKindIte

; 1196 : 			{
; 1197 : 				cbTempCardIndex[cbCardCount++] = TempKindItem.cbValidIndex[i];

  00266	0f b6 4d ff	 movzx	 ecx, BYTE PTR _cbCardCount$12[ebp]
  0026a	8b 55 08	 mov	 edx, DWORD PTR _TempKindItem$[ebp]
  0026d	03 55 dc	 add	 edx, DWORD PTR _i$2[ebp]
  00270	8a 42 02	 mov	 al, BYTE PTR [edx+2]
  00273	88 44 0d f8	 mov	 BYTE PTR _cbTempCardIndex$8[ebp+ecx], al
  00277	8a 4d ff	 mov	 cl, BYTE PTR _cbCardCount$12[ebp]
  0027a	80 c1 01	 add	 cl, 1
  0027d	88 4d ff	 mov	 BYTE PTR _cbCardCount$12[ebp], cl
$LN31@AddKindIte:

; 1198 : 			}
; 1199 : 		}

  00280	eb c0		 jmp	 SHORT $LN11@AddKindIte
$LN12@AddKindIte:

; 1200 : 		ASSERT(cbCardCount == 2);
; 1201 : 
; 1202 : 		for(int j = 0; j < cbKindItemCount; j++)

  00282	c7 45 ec 00 00
	00 00		 mov	 DWORD PTR _j$6[ebp], 0
  00289	eb 09		 jmp	 SHORT $LN16@AddKindIte
$LN14@AddKindIte:
  0028b	8b 55 ec	 mov	 edx, DWORD PTR _j$6[ebp]
  0028e	83 c2 01	 add	 edx, 1
  00291	89 55 ec	 mov	 DWORD PTR _j$6[ebp], edx
$LN16@AddKindIte:
  00294	8b 45 10	 mov	 eax, DWORD PTR _cbKindItemCount$[ebp]
  00297	0f b6 08	 movzx	 ecx, BYTE PTR [eax]
  0029a	39 4d ec	 cmp	 DWORD PTR _j$6[ebp], ecx
  0029d	0f 8d b0 00 00
	00		 jge	 $LN15@AddKindIte

; 1203 : 		{
; 1204 : 			if(1 == KindItem[j].cbMagicCount)

  002a3	6b 55 ec 06	 imul	 edx, DWORD PTR _j$6[ebp], 6
  002a7	8b 45 0c	 mov	 eax, DWORD PTR _KindItem$[ebp]
  002aa	0f b6 4c 10 05	 movzx	 ecx, BYTE PTR [eax+edx+5]
  002af	83 f9 01	 cmp	 ecx, 1
  002b2	0f 85 96 00 00
	00		 jne	 $LN32@AddKindIte

; 1205 : 			{
; 1206 : 				cbCardCount = 0;

  002b8	c6 45 ff 00	 mov	 BYTE PTR _cbCardCount$12[ebp], 0

; 1207 : 				for(int i = 0; i < 3; i++)

  002bc	c7 45 d8 00 00
	00 00		 mov	 DWORD PTR _i$1[ebp], 0
  002c3	eb 09		 jmp	 SHORT $LN19@AddKindIte
$LN17@AddKindIte:
  002c5	8b 55 d8	 mov	 edx, DWORD PTR _i$1[ebp]
  002c8	83 c2 01	 add	 edx, 1
  002cb	89 55 d8	 mov	 DWORD PTR _i$1[ebp], edx
$LN19@AddKindIte:
  002ce	83 7d d8 03	 cmp	 DWORD PTR _i$1[ebp], 3
  002d2	7d 3a		 jge	 SHORT $LN18@AddKindIte

; 1208 : 				{
; 1209 : 					if(KindItem[j].cbValidIndex[i] != m_cbMagicIndex)

  002d4	6b 45 ec 06	 imul	 eax, DWORD PTR _j$6[ebp], 6
  002d8	03 45 0c	 add	 eax, DWORD PTR _KindItem$[ebp]
  002db	8b 4d d8	 mov	 ecx, DWORD PTR _i$1[ebp]
  002de	0f b6 54 08 02	 movzx	 edx, BYTE PTR [eax+ecx+2]
  002e3	8b 45 f0	 mov	 eax, DWORD PTR _this$[ebp]
  002e6	0f b6 48 04	 movzx	 ecx, BYTE PTR [eax+4]
  002ea	3b d1		 cmp	 edx, ecx
  002ec	74 1e		 je	 SHORT $LN33@AddKindIte

; 1210 : 					{
; 1211 : 						cbCardIndex[cbCardCount++] = KindItem[j].cbValidIndex[i];

  002ee	6b 55 ec 06	 imul	 edx, DWORD PTR _j$6[ebp], 6
  002f2	03 55 0c	 add	 edx, DWORD PTR _KindItem$[ebp]
  002f5	0f b6 45 ff	 movzx	 eax, BYTE PTR _cbCardCount$12[ebp]
  002f9	8b 4d d8	 mov	 ecx, DWORD PTR _i$1[ebp]
  002fc	8a 54 0a 02	 mov	 dl, BYTE PTR [edx+ecx+2]
  00300	88 54 05 f4	 mov	 BYTE PTR _cbCardIndex$7[ebp+eax], dl
  00304	8a 45 ff	 mov	 al, BYTE PTR _cbCardCount$12[ebp]
  00307	04 01		 add	 al, 1
  00309	88 45 ff	 mov	 BYTE PTR _cbCardCount$12[ebp], al
$LN33@AddKindIte:

; 1212 : 					}
; 1213 : 				}

  0030c	eb b7		 jmp	 SHORT $LN17@AddKindIte
$LN18@AddKindIte:

; 1214 : 				ASSERT(cbCardCount == 2);
; 1215 : 
; 1216 : 				if(cbTempCardIndex[0] == cbCardIndex[0] && cbTempCardIndex[1] == cbCardIndex[1])

  0030e	b9 01 00 00 00	 mov	 ecx, 1
  00313	6b d1 00	 imul	 edx, ecx, 0
  00316	0f b6 44 15 f8	 movzx	 eax, BYTE PTR _cbTempCardIndex$8[ebp+edx]
  0031b	b9 01 00 00 00	 mov	 ecx, 1
  00320	6b d1 00	 imul	 edx, ecx, 0
  00323	0f b6 4c 15 f4	 movzx	 ecx, BYTE PTR _cbCardIndex$7[ebp+edx]
  00328	3b c1		 cmp	 eax, ecx
  0032a	75 22		 jne	 SHORT $LN32@AddKindIte
  0032c	ba 01 00 00 00	 mov	 edx, 1
  00331	c1 e2 00	 shl	 edx, 0
  00334	0f b6 44 15 f8	 movzx	 eax, BYTE PTR _cbTempCardIndex$8[ebp+edx]
  00339	b9 01 00 00 00	 mov	 ecx, 1
  0033e	c1 e1 00	 shl	 ecx, 0
  00341	0f b6 54 0d f4	 movzx	 edx, BYTE PTR _cbCardIndex$7[ebp+ecx]
  00346	3b c2		 cmp	 eax, edx
  00348	75 04		 jne	 SHORT $LN32@AddKindIte

; 1217 : 				{
; 1218 : 					return false;

  0034a	32 c0		 xor	 al, al
  0034c	eb 68		 jmp	 SHORT $LN1@AddKindIte
$LN32@AddKindIte:

; 1219 : 				}
; 1220 : 			}
; 1221 : 		}

  0034e	e9 38 ff ff ff	 jmp	 $LN14@AddKindIte
$LN15@AddKindIte:

; 1222 : 
; 1223 : 
; 1224 : 		CopyMemory(&KindItem[cbKindItemCount++],&TempKindItem,sizeof(TempKindItem));

  00353	8b 45 10	 mov	 eax, DWORD PTR _cbKindItemCount$[ebp]
  00356	0f b6 08	 movzx	 ecx, BYTE PTR [eax]
  00359	6b d1 06	 imul	 edx, ecx, 6
  0035c	03 55 0c	 add	 edx, DWORD PTR _KindItem$[ebp]
  0035f	89 55 c0	 mov	 DWORD PTR tv260[ebp], edx
  00362	8b 45 10	 mov	 eax, DWORD PTR _cbKindItemCount$[ebp]
  00365	8a 08		 mov	 cl, BYTE PTR [eax]
  00367	80 c1 01	 add	 cl, 1
  0036a	8b 55 10	 mov	 edx, DWORD PTR _cbKindItemCount$[ebp]
  0036d	88 0a		 mov	 BYTE PTR [edx], cl
  0036f	6a 06		 push	 6
  00371	8b 45 08	 mov	 eax, DWORD PTR _TempKindItem$[ebp]
  00374	50		 push	 eax
  00375	8b 4d c0	 mov	 ecx, DWORD PTR tv260[ebp]
  00378	51		 push	 ecx
  00379	e8 00 00 00 00	 call	 _memcpy
  0037e	83 c4 0c	 add	 esp, 12			; 0000000cH

; 1225 : 		return true;

  00381	b0 01		 mov	 al, 1
  00383	eb 31		 jmp	 SHORT $LN1@AddKindIte

; 1226 : 	}
; 1227 : 	else

  00385	eb 2f		 jmp	 SHORT $LN1@AddKindIte
$LN29@AddKindIte:

; 1228 : 	{
; 1229 : 		CopyMemory(&KindItem[cbKindItemCount++],&TempKindItem,sizeof(TempKindItem));

  00387	8b 55 10	 mov	 edx, DWORD PTR _cbKindItemCount$[ebp]
  0038a	0f b6 02	 movzx	 eax, BYTE PTR [edx]
  0038d	6b c8 06	 imul	 ecx, eax, 6
  00390	03 4d 0c	 add	 ecx, DWORD PTR _KindItem$[ebp]
  00393	89 4d bc	 mov	 DWORD PTR tv268[ebp], ecx
  00396	8b 55 10	 mov	 edx, DWORD PTR _cbKindItemCount$[ebp]
  00399	8a 02		 mov	 al, BYTE PTR [edx]
  0039b	04 01		 add	 al, 1
  0039d	8b 4d 10	 mov	 ecx, DWORD PTR _cbKindItemCount$[ebp]
  003a0	88 01		 mov	 BYTE PTR [ecx], al
  003a2	6a 06		 push	 6
  003a4	8b 55 08	 mov	 edx, DWORD PTR _TempKindItem$[ebp]
  003a7	52		 push	 edx
  003a8	8b 45 bc	 mov	 eax, DWORD PTR tv268[ebp]
  003ab	50		 push	 eax
  003ac	e8 00 00 00 00	 call	 _memcpy
  003b1	83 c4 0c	 add	 esp, 12			; 0000000cH

; 1230 : 		return true;

  003b4	b0 01		 mov	 al, 1
$LN1@AddKindIte:

; 1231 : 	}
; 1232 : }

  003b6	8b e5		 mov	 esp, ebp
  003b8	5d		 pop	 ebp
  003b9	c2 10 00	 ret	 16			; 00000010H
?AddKindItem@CGameLogic@@AAE_NAAUtagKindItem@@QAU2@AAEAA_N@Z ENDP ; CGameLogic::AddKindItem
_TEXT	ENDS
; Function compile flags: /Odtp
; File d:\qijianban\laok\服务端\游戏组件\老k子游戏\红中麻将\服务器组件\gamelogic.cpp
_TEXT	SEGMENT
_this$ = -8						; size = 4
tv65 = -4						; size = 4
_cbWeaveKind$ = 8					; size = 1
_cbCenterCard$ = 12					; size = 1
_cbCardBuffer$ = 16					; size = 4
?GetWeaveCard@CGameLogic@@QAEEEEQAE@Z PROC		; CGameLogic::GetWeaveCard
; _this$ = ecx

; 1076 : {

  00000	55		 push	 ebp
  00001	8b ec		 mov	 ebp, esp
  00003	83 ec 08	 sub	 esp, 8
  00006	89 4d f8	 mov	 DWORD PTR _this$[ebp], ecx

; 1077 : 	//组合扑克
; 1078 : 	switch (cbWeaveKind)

  00009	0f b6 45 08	 movzx	 eax, BYTE PTR _cbWeaveKind$[ebp]
  0000d	89 45 fc	 mov	 DWORD PTR tv65[ebp], eax
  00010	8b 4d fc	 mov	 ecx, DWORD PTR tv65[ebp]
  00013	83 e9 01	 sub	 ecx, 1
  00016	89 4d fc	 mov	 DWORD PTR tv65[ebp], ecx
  00019	83 7d fc 0f	 cmp	 DWORD PTR tv65[ebp], 15	; 0000000fH
  0001d	0f 87 4e 01 00
	00		 ja	 $LN2@GetWeaveCa
  00023	8b 55 fc	 mov	 edx, DWORD PTR tv65[ebp]
  00026	0f b6 82 00 00
	00 00		 movzx	 eax, BYTE PTR $LN11@GetWeaveCa[edx]
  0002d	ff 24 85 00 00
	00 00		 jmp	 DWORD PTR $LN12@GetWeaveCa[eax*4]
$LN4@GetWeaveCa:

; 1079 : 	{
; 1080 : 	case WIK_LEFT:		//上牌操作
; 1081 : 		{
; 1082 : 			//设置变量
; 1083 : 			cbCardBuffer[0]=cbCenterCard;

  00034	b9 01 00 00 00	 mov	 ecx, 1
  00039	6b d1 00	 imul	 edx, ecx, 0
  0003c	8b 45 10	 mov	 eax, DWORD PTR _cbCardBuffer$[ebp]
  0003f	8a 4d 0c	 mov	 cl, BYTE PTR _cbCenterCard$[ebp]
  00042	88 0c 10	 mov	 BYTE PTR [eax+edx], cl

; 1084 : 			cbCardBuffer[1]=cbCenterCard+1;

  00045	0f b6 55 0c	 movzx	 edx, BYTE PTR _cbCenterCard$[ebp]
  00049	83 c2 01	 add	 edx, 1
  0004c	b8 01 00 00 00	 mov	 eax, 1
  00051	c1 e0 00	 shl	 eax, 0
  00054	8b 4d 10	 mov	 ecx, DWORD PTR _cbCardBuffer$[ebp]
  00057	88 14 01	 mov	 BYTE PTR [ecx+eax], dl

; 1085 : 			cbCardBuffer[2]=cbCenterCard+2;

  0005a	0f b6 55 0c	 movzx	 edx, BYTE PTR _cbCenterCard$[ebp]
  0005e	83 c2 02	 add	 edx, 2
  00061	b8 01 00 00 00	 mov	 eax, 1
  00066	d1 e0		 shl	 eax, 1
  00068	8b 4d 10	 mov	 ecx, DWORD PTR _cbCardBuffer$[ebp]
  0006b	88 14 01	 mov	 BYTE PTR [ecx+eax], dl

; 1086 : 
; 1087 : 			return 3;

  0006e	b0 03		 mov	 al, 3
  00070	e9 fe 00 00 00	 jmp	 $LN1@GetWeaveCa
$LN5@GetWeaveCa:

; 1088 : 		}
; 1089 : 	case WIK_RIGHT:		//上牌操作
; 1090 : 		{
; 1091 : 			//设置变量
; 1092 : 			cbCardBuffer[0]=cbCenterCard-2;

  00075	0f b6 55 0c	 movzx	 edx, BYTE PTR _cbCenterCard$[ebp]
  00079	83 ea 02	 sub	 edx, 2
  0007c	b8 01 00 00 00	 mov	 eax, 1
  00081	6b c8 00	 imul	 ecx, eax, 0
  00084	8b 45 10	 mov	 eax, DWORD PTR _cbCardBuffer$[ebp]
  00087	88 14 08	 mov	 BYTE PTR [eax+ecx], dl

; 1093 : 			cbCardBuffer[1]=cbCenterCard-1;

  0008a	0f b6 4d 0c	 movzx	 ecx, BYTE PTR _cbCenterCard$[ebp]
  0008e	83 e9 01	 sub	 ecx, 1
  00091	ba 01 00 00 00	 mov	 edx, 1
  00096	c1 e2 00	 shl	 edx, 0
  00099	8b 45 10	 mov	 eax, DWORD PTR _cbCardBuffer$[ebp]
  0009c	88 0c 10	 mov	 BYTE PTR [eax+edx], cl

; 1094 : 			cbCardBuffer[2]=cbCenterCard;

  0009f	b9 01 00 00 00	 mov	 ecx, 1
  000a4	d1 e1		 shl	 ecx, 1
  000a6	8b 55 10	 mov	 edx, DWORD PTR _cbCardBuffer$[ebp]
  000a9	8a 45 0c	 mov	 al, BYTE PTR _cbCenterCard$[ebp]
  000ac	88 04 0a	 mov	 BYTE PTR [edx+ecx], al

; 1095 : 
; 1096 : 			return 3;

  000af	b0 03		 mov	 al, 3
  000b1	e9 bd 00 00 00	 jmp	 $LN1@GetWeaveCa
$LN6@GetWeaveCa:

; 1097 : 		}
; 1098 : 	case WIK_CENTER:	//上牌操作
; 1099 : 		{
; 1100 : 			//设置变量
; 1101 : 			cbCardBuffer[0]=cbCenterCard-1;

  000b6	0f b6 4d 0c	 movzx	 ecx, BYTE PTR _cbCenterCard$[ebp]
  000ba	83 e9 01	 sub	 ecx, 1
  000bd	ba 01 00 00 00	 mov	 edx, 1
  000c2	6b c2 00	 imul	 eax, edx, 0
  000c5	8b 55 10	 mov	 edx, DWORD PTR _cbCardBuffer$[ebp]
  000c8	88 0c 02	 mov	 BYTE PTR [edx+eax], cl

; 1102 : 			cbCardBuffer[1]=cbCenterCard;

  000cb	b8 01 00 00 00	 mov	 eax, 1
  000d0	c1 e0 00	 shl	 eax, 0
  000d3	8b 4d 10	 mov	 ecx, DWORD PTR _cbCardBuffer$[ebp]
  000d6	8a 55 0c	 mov	 dl, BYTE PTR _cbCenterCard$[ebp]
  000d9	88 14 01	 mov	 BYTE PTR [ecx+eax], dl

; 1103 : 			cbCardBuffer[2]=cbCenterCard+1;

  000dc	0f b6 45 0c	 movzx	 eax, BYTE PTR _cbCenterCard$[ebp]
