; Listing generated by Microsoft (R) Optimizing Compiler Version 19.00.24215.1 

	TITLE	D:\qijianban\laok\服务端\游戏组件\老K子游戏\红中麻将\服务器组件\TableFrameSink.cpp
	.686P
	.XMM
	include listing.inc
	.model	flat

INCLUDELIB MSVCRT
INCLUDELIB OLDNAMES

PUBLIC	?chDirSep@ATL@@3_WB				; ATL::chDirSep
PUBLIC	?chRightBracket@ATL@@3_WB			; ATL::chRightBracket
PUBLIC	?chLeftBracket@ATL@@3_WB			; ATL::chLeftBracket
PUBLIC	?chQuote@ATL@@3_WB				; ATL::chQuote
PUBLIC	?chEquals@ATL@@3_WB				; ATL::chEquals
PUBLIC	?szStringVal@ATL@@3QB_WB			; ATL::szStringVal
PUBLIC	?multiszStringVal@ATL@@3QB_WB			; ATL::multiszStringVal
PUBLIC	?szDwordVal@ATL@@3QB_WB				; ATL::szDwordVal
PUBLIC	?szBinaryVal@ATL@@3QB_WB			; ATL::szBinaryVal
PUBLIC	?szValToken@ATL@@3QB_WB				; ATL::szValToken
PUBLIC	?szForceRemove@ATL@@3QB_WB			; ATL::szForceRemove
PUBLIC	?szNoRemove@ATL@@3QB_WB				; ATL::szNoRemove
PUBLIC	__pAtlLocaleNameToIndexTable
PUBLIC	?szDelete@ATL@@3QB_WB				; ATL::szDelete
PUBLIC	_IID_IAxWinHostWindow
PUBLIC	?CLSID_ImageOle@@3U_GUID@@A			; CLSID_ImageOle
PUBLIC	?IID_IImageOle@@3U_GUID@@A			; IID_IImageOle
PUBLIC	?IID_IRichEditOleCallback2@@3U_GUID@@A		; IID_IRichEditOleCallback2
PUBLIC	?CLSID_WinFormsControl@@3U_GUID@@B		; CLSID_WinFormsControl
PUBLIC	?_pAtlAutoThreadModule@ATL@@3PAUIAtlAutoThreadModule@1@A ; ATL::_pAtlAutoThreadModule
PUBLIC	_IID_IAxWinHostWindowLic
PUBLIC	_IID_IAxWinAmbientDispatch
PUBLIC	?_pAtlModule@ATL@@3PAVCAtlModule@1@A		; ATL::_pAtlModule
PUBLIC	__pIncludeInitManaged
PUBLIC	_IID_IAxWinAmbientDispatchEx
PUBLIC	_IID_IInternalConnection
PUBLIC	_LIBID_ShockwaveFlashObjects
PUBLIC	_IID_IShockwaveFlash
PUBLIC	_DIID__IShockwaveFlashEvents
PUBLIC	_CLSID_ShockwaveFlash
PUBLIC	?szInvalidDateTime@ATL@@3QB_WB			; ATL::szInvalidDateTime
PUBLIC	_IID_IFlashFactory
PUBLIC	_IID_IDispatchEx
PUBLIC	?szInvalidDateTimeSpan@ATL@@3QB_WB		; ATL::szInvalidDateTimeSpan
PUBLIC	_IID_IFlashObjectInterface
PUBLIC	_CLSID_FlashObjectInterface
PUBLIC	_LIBID_ATLLib
PUBLIC	_CLSID_Registrar
PUBLIC	?_pModule@ATL@@3PAVCComModule@1@A		; ATL::_pModule
PUBLIC	_IID_IRegistrar
PUBLIC	___pobjMapEntryFirst
PUBLIC	___pobjMapEntryLast
PUBLIC	__pAtlLcidToLocaleNameTable
PUBLIC	?_AfxInitManaged@@YAHXZ				; _AfxInitManaged
PUBLIC	?_pPerfRegFunc@ATL@@3P6AJPAUHINSTANCE__@@@ZA	; ATL::_pPerfRegFunc
PUBLIC	?_pPerfUnRegFunc@ATL@@3P6AJXZA			; ATL::_pPerfUnRegFunc
PUBLIC	?_AtlRegisterPerUser@ATL@@3_NA			; ATL::_AtlRegisterPerUser
PUBLIC	_IID_IDocHostUIHandlerDispatch
_BSS	SEGMENT
?GenericSansSerifFontFamily@Gdiplus@@3PAVFontFamily@1@A DD 01H DUP (?) ; Gdiplus::GenericSansSerifFontFamily
?GenericSerifFontFamily@Gdiplus@@3PAVFontFamily@1@A DD 01H DUP (?) ; Gdiplus::GenericSerifFontFamily
?GenericMonospaceFontFamily@Gdiplus@@3PAVFontFamily@1@A DD 01H DUP (?) ; Gdiplus::GenericMonospaceFontFamily
?GenericSansSerifFontFamilyBuffer@Gdiplus@@3PAEA DB 08H DUP (?) ; Gdiplus::GenericSansSerifFontFamilyBuffer
?GenericSerifFontFamilyBuffer@Gdiplus@@3PAEA DB 08H DUP (?) ; Gdiplus::GenericSerifFontFamilyBuffer
?GenericMonospaceFontFamilyBuffer@Gdiplus@@3PAEA DB 08H DUP (?) ; Gdiplus::GenericMonospaceFontFamilyBuffer
_BSS	ENDS
;	COMDAT ?_pAtlAutoThreadModule@ATL@@3PAUIAtlAutoThreadModule@1@A
_BSS	SEGMENT
?_pAtlAutoThreadModule@ATL@@3PAUIAtlAutoThreadModule@1@A DD 01H DUP (?) ; ATL::_pAtlAutoThreadModule
_BSS	ENDS
_BSS	SEGMENT
?GenericTypographicStringFormatBuffer@Gdiplus@@3PAEA DB 08H DUP (?) ; Gdiplus::GenericTypographicStringFormatBuffer
?GenericDefaultStringFormatBuffer@Gdiplus@@3PAEA DB 08H DUP (?) ; Gdiplus::GenericDefaultStringFormatBuffer
_BSS	ENDS
;	COMDAT ?_pAtlModule@ATL@@3PAVCAtlModule@1@A
_BSS	SEGMENT
?_pAtlModule@ATL@@3PAVCAtlModule@1@A DD 01H DUP (?)	; ATL::_pAtlModule
_BSS	ENDS
;	COMDAT ?_pModule@ATL@@3PAVCComModule@1@A
_BSS	SEGMENT
?_pModule@ATL@@3PAVCComModule@1@A DD 01H DUP (?)	; ATL::_pModule
_BSS	ENDS
;	COMDAT ?_pPerfRegFunc@ATL@@3P6AJPAUHINSTANCE__@@@ZA
_BSS	SEGMENT
?_pPerfRegFunc@ATL@@3P6AJPAUHINSTANCE__@@@ZA DD 01H DUP (?) ; ATL::_pPerfRegFunc
_BSS	ENDS
;	COMDAT ?_pPerfUnRegFunc@ATL@@3P6AJXZA
_BSS	SEGMENT
?_pPerfUnRegFunc@ATL@@3P6AJXZA DD 01H DUP (?)		; ATL::_pPerfUnRegFunc
_BSS	ENDS
;	COMDAT ?_AtlRegisterPerUser@ATL@@3_NA
_BSS	SEGMENT
?_AtlRegisterPerUser@ATL@@3_NA DB 01H DUP (?)		; ATL::_AtlRegisterPerUser
_BSS	ENDS
;	COMDAT _IID_IDocHostUIHandlerDispatch
CONST	SEGMENT
_IID_IDocHostUIHandlerDispatch DD 0425b5af0H
	DW	065f1H
	DW	011d1H
	DB	096H
	DB	011H
	DB	00H
	DB	00H
	DB	0f8H
	DB	01eH
	DB	0dH
	DB	0dH
CONST	ENDS
;	COMDAT __pAtlLcidToLocaleNameTable
CONST	SEGMENT
__pAtlLcidToLocaleNameTable DD 01H
	DD	FLAT:$SG61324
	DD	02H
	DD	FLAT:$SG61325
	DD	03H
	DD	FLAT:$SG61326
	DD	04H
	DD	FLAT:$SG61327
	DD	05H
	DD	FLAT:$SG61328
	DD	06H
	DD	FLAT:$SG61329
	DD	07H
	DD	FLAT:$SG61330
	DD	08H
	DD	FLAT:$SG61331
	DD	09H
	DD	FLAT:$SG61332
	DD	0aH
	DD	FLAT:$SG61333
	DD	0bH
	DD	FLAT:$SG61334
	DD	0cH
	DD	FLAT:$SG61335
	DD	0dH
	DD	FLAT:$SG61336
	DD	0eH
	DD	FLAT:$SG61337
	DD	0fH
	DD	FLAT:$SG61338
	DD	010H
	DD	FLAT:$SG61339
	DD	011H
	DD	FLAT:$SG61340
	DD	012H
	DD	FLAT:$SG61341
	DD	013H
	DD	FLAT:$SG61342
	DD	014H
	DD	FLAT:$SG61343
	DD	015H
	DD	FLAT:$SG61344
	DD	016H
	DD	FLAT:$SG61345
	DD	018H
	DD	FLAT:$SG61346
	DD	019H
	DD	FLAT:$SG61347
	DD	01aH
	DD	FLAT:$SG61348
	DD	01bH
	DD	FLAT:$SG61349
	DD	01cH
	DD	FLAT:$SG61350
	DD	01dH
	DD	FLAT:$SG61351
	DD	01eH
	DD	FLAT:$SG61352
	DD	01fH
	DD	FLAT:$SG61353
	DD	020H
	DD	FLAT:$SG61354
	DD	021H
	DD	FLAT:$SG61355
	DD	022H
	DD	FLAT:$SG61356
	DD	023H
	DD	FLAT:$SG61357
	DD	024H
	DD	FLAT:$SG61358
	DD	025H
	DD	FLAT:$SG61359
	DD	026H
	DD	FLAT:$SG61360
	DD	027H
	DD	FLAT:$SG61361
	DD	029H
	DD	FLAT:$SG61362
	DD	02aH
	DD	FLAT:$SG61363
	DD	02bH
	DD	FLAT:$SG61364
	DD	02cH
	DD	FLAT:$SG61365
	DD	02dH
	DD	FLAT:$SG61366
	DD	02fH
	DD	FLAT:$SG61367
	DD	036H
	DD	FLAT:$SG61368
	DD	037H
	DD	FLAT:$SG61369
	DD	038H
	DD	FLAT:$SG61370
	DD	039H
	DD	FLAT:$SG61371
	DD	03eH
	DD	FLAT:$SG61372
	DD	03fH
	DD	FLAT:$SG61373
	DD	040H
	DD	FLAT:$SG61374
	DD	041H
	DD	FLAT:$SG61375
	DD	043H
	DD	FLAT:$SG61376
	DD	044H
	DD	FLAT:$SG61377
	DD	046H
	DD	FLAT:$SG61378
	DD	047H
	DD	FLAT:$SG61379
	DD	049H
	DD	FLAT:$SG61380
	DD	04aH
	DD	FLAT:$SG61381
	DD	04bH
	DD	FLAT:$SG61382
	DD	04eH
	DD	FLAT:$SG61383
	DD	04fH
	DD	FLAT:$SG61384
	DD	050H
	DD	FLAT:$SG61385
	DD	056H
	DD	FLAT:$SG61386
	DD	057H
	DD	FLAT:$SG61387
	DD	05aH
	DD	FLAT:$SG61388
	DD	065H
	DD	FLAT:$SG61389
	DD	07fH
	DD	FLAT:$SG61390
	DD	0401H
	DD	FLAT:$SG61391
	DD	0402H
	DD	FLAT:$SG61392
	DD	0403H
	DD	FLAT:$SG61393
	DD	0404H
	DD	FLAT:$SG61394
	DD	0405H
	DD	FLAT:$SG61395
	DD	0406H
	DD	FLAT:$SG61396
	DD	0407H
	DD	FLAT:$SG61397
	DD	0408H
	DD	FLAT:$SG61398
	DD	0409H
	DD	FLAT:$SG61399
	DD	040bH
	DD	FLAT:$SG61400
	DD	040cH
	DD	FLAT:$SG61401
	DD	040dH
	DD	FLAT:$SG61402
	DD	040eH
	DD	FLAT:$SG61403
	DD	040fH
	DD	FLAT:$SG61404
	DD	0410H
	DD	FLAT:$SG61405
	DD	0411H
	DD	FLAT:$SG61406
	DD	0412H
	DD	FLAT:$SG61407
	DD	0413H
	DD	FLAT:$SG61408
	DD	0414H
	DD	FLAT:$SG61409
	DD	0415H
	DD	FLAT:$SG61410
	DD	0416H
	DD	FLAT:$SG61411
	DD	0418H
	DD	FLAT:$SG61412
	DD	0419H
	DD	FLAT:$SG61413
	DD	041aH
	DD	FLAT:$SG61414
	DD	041bH
	DD	FLAT:$SG61415
	DD	041cH
	DD	FLAT:$SG61416
	DD	041dH
	DD	FLAT:$SG61417
	DD	041eH
	DD	FLAT:$SG61418
	DD	041fH
	DD	FLAT:$SG61419
	DD	0420H
	DD	FLAT:$SG61420
	DD	0421H
	DD	FLAT:$SG61421
	DD	0422H
	DD	FLAT:$SG61422
	DD	0423H
	DD	FLAT:$SG61423
	DD	0424H
	DD	FLAT:$SG61424
	DD	0425H
	DD	FLAT:$SG61425
	DD	0426H
	DD	FLAT:$SG61426
	DD	0427H
	DD	FLAT:$SG61427
	DD	0429H
	DD	FLAT:$SG61428
	DD	042aH
	DD	FLAT:$SG61429
	DD	042bH
	DD	FLAT:$SG61430
	DD	042cH
	DD	FLAT:$SG61431
	DD	042dH
	DD	FLAT:$SG61432
	DD	042fH
	DD	FLAT:$SG61433
	DD	0432H
	DD	FLAT:$SG61434
	DD	0434H
	DD	FLAT:$SG61435
	DD	0435H
	DD	FLAT:$SG61436
	DD	0436H
	DD	FLAT:$SG61437
	DD	0437H
	DD	FLAT:$SG61438
	DD	0438H
	DD	FLAT:$SG61439
	DD	0439H
	DD	FLAT:$SG61440
	DD	043aH
	DD	FLAT:$SG61441
	DD	043bH
	DD	FLAT:$SG61442
	DD	043eH
	DD	FLAT:$SG61443
	DD	043fH
	DD	FLAT:$SG61444
	DD	0440H
	DD	FLAT:$SG61445
	DD	0441H
	DD	FLAT:$SG61446
	DD	0443H
	DD	FLAT:$SG61447
	DD	0444H
	DD	FLAT:$SG61448
	DD	0445H
	DD	FLAT:$SG61449
	DD	0446H
	DD	FLAT:$SG61450
	DD	0447H
	DD	FLAT:$SG61451
	DD	0449H
	DD	FLAT:$SG61452
	DD	044aH
	DD	FLAT:$SG61453
	DD	044bH
	DD	FLAT:$SG61454
	DD	044cH
	DD	FLAT:$SG61455
	DD	044eH
	DD	FLAT:$SG61456
	DD	044fH
	DD	FLAT:$SG61457
	DD	0450H
	DD	FLAT:$SG61458
	DD	0452H
	DD	FLAT:$SG61459
	DD	0456H
	DD	FLAT:$SG61460
	DD	0457H
	DD	FLAT:$SG61461
	DD	045aH
	DD	FLAT:$SG61462
	DD	0465H
	DD	FLAT:$SG61463
	DD	046bH
	DD	FLAT:$SG61464
	DD	046cH
	DD	FLAT:$SG61465
	DD	0481H
	DD	FLAT:$SG61466
	DD	0801H
	DD	FLAT:$SG61467
	DD	0804H
	DD	FLAT:$SG61468
	DD	0807H
	DD	FLAT:$SG61469
	DD	0809H
	DD	FLAT:$SG61470
	DD	080aH
	DD	FLAT:$SG61471
	DD	080cH
	DD	FLAT:$SG61472
	DD	0810H
	DD	FLAT:$SG61473
	DD	0813H
	DD	FLAT:$SG61474
	DD	0814H
	DD	FLAT:$SG61475
	DD	0816H
	DD	FLAT:$SG61476
	DD	081aH
	DD	FLAT:$SG61477
	DD	081dH
	DD	FLAT:$SG61478
	DD	082cH
	DD	FLAT:$SG61479
	DD	083bH
	DD	FLAT:$SG61480
	DD	083eH
	DD	FLAT:$SG61481
	DD	0843H
	DD	FLAT:$SG61482
	DD	086bH
	DD	FLAT:$SG61483
	DD	0c01H
	DD	FLAT:$SG61484
	DD	0c04H
	DD	FLAT:$SG61485
	DD	0c07H
	DD	FLAT:$SG61486
	DD	0c09H
	DD	FLAT:$SG61487
	DD	0c0aH
	DD	FLAT:$SG61488
	DD	0c0cH
	DD	FLAT:$SG61489
	DD	0c1aH
	DD	FLAT:$SG61490
	DD	0c3bH
	DD	FLAT:$SG61491
	DD	0c6bH
	DD	FLAT:$SG61492
	DD	01001H
	DD	FLAT:$SG61493
	DD	01004H
	DD	FLAT:$SG61494
	DD	01007H
	DD	FLAT:$SG61495
	DD	01009H
	DD	FLAT:$SG61496
	DD	0100aH
	DD	FLAT:$SG61497
	DD	0100cH
	DD	FLAT:$SG61498
	DD	0101aH
	DD	FLAT:$SG61499
	DD	0103bH
	DD	FLAT:$SG61500
	DD	01401H
	DD	FLAT:$SG61501
	DD	01404H
	DD	FLAT:$SG61502
	DD	01407H
	DD	FLAT:$SG61503
	DD	01409H
	DD	FLAT:$SG61504
	DD	0140aH
	DD	FLAT:$SG61505
	DD	0140cH
	DD	FLAT:$SG61506
	DD	0141aH
	DD	FLAT:$SG61507
	DD	0143bH
	DD	FLAT:$SG61508
	DD	01801H
	DD	FLAT:$SG61509
	DD	01809H
	DD	FLAT:$SG61510
	DD	0180aH
	DD	FLAT:$SG61511
	DD	0180cH
	DD	FLAT:$SG61512
	DD	0181aH
	DD	FLAT:$SG61513
	DD	0183bH
	DD	FLAT:$SG61514
	DD	01c01H
	DD	FLAT:$SG61515
	DD	01c09H
	DD	FLAT:$SG61516
	DD	01c0aH
	DD	FLAT:$SG61517
	DD	01c1aH
	DD	FLAT:$SG61518
	DD	01c3bH
	DD	FLAT:$SG61519
	DD	02001H
	DD	FLAT:$SG61520
	DD	02009H
	DD	FLAT:$SG61521
	DD	0200aH
	DD	FLAT:$SG61522
	DD	0203bH
	DD	FLAT:$SG61523
	DD	02401H
	DD	FLAT:$SG61524
	DD	02409H
	DD	FLAT:$SG61525
	DD	0240aH
	DD	FLAT:$SG61526
	DD	0243bH
	DD	FLAT:$SG61527
	DD	02801H
	DD	FLAT:$SG61528
	DD	02809H
	DD	FLAT:$SG61529
	DD	0280aH
	DD	FLAT:$SG61530
	DD	02c01H
	DD	FLAT:$SG61531
	DD	02c09H
	DD	FLAT:$SG61532
	DD	02c0aH
	DD	FLAT:$SG61533
	DD	03001H
	DD	FLAT:$SG61534
	DD	03009H
	DD	FLAT:$SG61535
	DD	0300aH
	DD	FLAT:$SG61536
	DD	03401H
	DD	FLAT:$SG61537
	DD	03409H
	DD	FLAT:$SG61538
	DD	0340aH
	DD	FLAT:$SG61539
	DD	03801H
	DD	FLAT:$SG61540
	DD	0380aH
	DD	FLAT:$SG61541
	DD	03c01H
	DD	FLAT:$SG61542
	DD	03c0aH
	DD	FLAT:$SG61543
	DD	04001H
	DD	FLAT:$SG61544
	DD	0400aH
	DD	FLAT:$SG61545
	DD	0440aH
	DD	FLAT:$SG61546
	DD	0480aH
	DD	FLAT:$SG61547
	DD	04c0aH
	DD	FLAT:$SG61548
	DD	0500aH
	DD	FLAT:$SG61549
	DD	07c04H
	DD	FLAT:$SG61550
	DD	07c1aH
	DD	FLAT:$SG61551
CONST	ENDS
;	COMDAT ___pobjMapEntryLast
ATL$__z	SEGMENT
___pobjMapEntryLast DD 00H
ATL$__z	ENDS
;	COMDAT ___pobjMapEntryFirst
ATL$__a	SEGMENT
___pobjMapEntryFirst DD 00H
ATL$__a	ENDS
;	COMDAT _IID_IRegistrar
CONST	SEGMENT
_IID_IRegistrar DD 044ec053bH
	DW	0400fH
	DW	011d0H
	DB	09dH
	DB	0cdH
	DB	00H
	DB	0a0H
	DB	0c9H
	DB	03H
	DB	091H
	DB	0d3H
CONST	ENDS
;	COMDAT _CLSID_Registrar
CONST	SEGMENT
_CLSID_Registrar DD 044ec053aH
	DW	0400fH
	DW	011d0H
	DB	09dH
	DB	0cdH
	DB	00H
	DB	0a0H
	DB	0c9H
	DB	03H
	DB	091H
	DB	0d3H
CONST	ENDS
;	COMDAT _LIBID_ATLLib
CONST	SEGMENT
_LIBID_ATLLib DD 044ec0535H
	DW	0400fH
	DW	011d0H
	DB	09dH
	DB	0cdH
	DB	00H
	DB	0a0H
	DB	0c9H
	DB	03H
	DB	091H
	DB	0d3H
CONST	ENDS
;	COMDAT _CLSID_FlashObjectInterface
CONST	SEGMENT
_CLSID_FlashObjectInterface DD 0d27cdb71H
	DW	0ae6dH
	DW	011cfH
	DB	096H
	DB	0b8H
	DB	044H
	DB	045H
	DB	053H
	DB	054H
	DB	00H
	DB	00H
CONST	ENDS
;	COMDAT _IID_IFlashObjectInterface
CONST	SEGMENT
_IID_IFlashObjectInterface DD 0d27cdb72H
	DW	0ae6dH
	DW	011cfH
	DB	096H
	DB	0b8H
	DB	044H
	DB	045H
	DB	053H
	DB	054H
	DB	00H
	DB	00H
CONST	ENDS
;	COMDAT ?szInvalidDateTimeSpan@ATL@@3QB_WB
CONST	SEGMENT
?szInvalidDateTimeSpan@ATL@@3QB_WB DD FLAT:$SG82626	; ATL::szInvalidDateTimeSpan
CONST	ENDS
;	COMDAT _IID_IDispatchEx
CONST	SEGMENT
_IID_IDispatchEx DD 0a6ef9860H
	DW	0c720H
	DW	011d0H
	DB	093H
	DB	037H
	DB	00H
	DB	0a0H
	DB	0c9H
	DB	0dH
	DB	0caH
	DB	0a9H
CONST	ENDS
;	COMDAT _IID_IFlashFactory
CONST	SEGMENT
_IID_IFlashFactory DD 0d27cdb70H
	DW	0ae6dH
	DW	011cfH
	DB	096H
	DB	0b8H
	DB	044H
	DB	045H
	DB	053H
	DB	054H
	DB	00H
	DB	00H
CONST	ENDS
;	COMDAT ?szInvalidDateTime@ATL@@3QB_WB
CONST	SEGMENT
?szInvalidDateTime@ATL@@3QB_WB DD FLAT:$SG82624		; ATL::szInvalidDateTime
CONST	ENDS
;	COMDAT _CLSID_ShockwaveFlash
CONST	SEGMENT
_CLSID_ShockwaveFlash DD 0d27cdb6eH
	DW	0ae6dH
	DW	011cfH
	DB	096H
	DB	0b8H
	DB	044H
	DB	045H
	DB	053H
	DB	054H
	DB	00H
	DB	00H
CONST	ENDS
;	COMDAT _DIID__IShockwaveFlashEvents
CONST	SEGMENT
_DIID__IShockwaveFlashEvents DD 0d27cdb6dH
	DW	0ae6dH
	DW	011cfH
	DB	096H
	DB	0b8H
	DB	044H
	DB	045H
	DB	053H
	DB	054H
	DB	00H
	DB	00H
CONST	ENDS
;	COMDAT _IID_IShockwaveFlash
CONST	SEGMENT
_IID_IShockwaveFlash DD 0d27cdb6cH
	DW	0ae6dH
	DW	011cfH
	DB	096H
	DB	0b8H
	DB	044H
	DB	045H
	DB	053H
	DB	054H
	DB	00H
	DB	00H
CONST	ENDS
;	COMDAT _LIBID_ShockwaveFlashObjects
CONST	SEGMENT
_LIBID_ShockwaveFlashObjects DD 0d27cdb6bH
	DW	0ae6dH
	DW	011cfH
	DB	096H
	DB	0b8H
	DB	044H
	DB	045H
	DB	053H
	DB	054H
	DB	00H
	DB	00H
CONST	ENDS
;	COMDAT _IID_IInternalConnection
CONST	SEGMENT
_IID_IInternalConnection DD 072ad0770H
	DW	06a9fH
	DW	011d1H
	DB	0bcH
	DB	0ecH
	DB	00H
	DB	060H
	DB	08H
	DB	08fH
	DB	044H
	DB	04eH
CONST	ENDS
;	COMDAT _IID_IAxWinAmbientDispatchEx
CONST	SEGMENT
_IID_IAxWinAmbientDispatchEx DD 0b2d0778bH
	DW	0ac99H
	DW	04c58H
	DB	0a5H
	DB	0c8H
	DB	0e7H
	DB	072H
	DB	04eH
	DB	053H
	DB	016H
	DB	0b5H
CONST	ENDS
;	COMDAT __pIncludeInitManaged
_DATA	SEGMENT
__pIncludeInitManaged DD FLAT:?_AfxInitManaged@@YAHXZ
_DATA	ENDS
;	COMDAT _IID_IAxWinAmbientDispatch
CONST	SEGMENT
_IID_IAxWinAmbientDispatch DD 0b6ea2051H
	DW	048aH
	DW	011d1H
	DB	082H
	DB	0b9H
	DB	00H
	DB	0c0H
	DB	04fH
	DB	0b9H
	DB	094H
	DB	02eH
CONST	ENDS
;	COMDAT _IID_IAxWinHostWindowLic
CONST	SEGMENT
_IID_IAxWinHostWindowLic DD 03935bda8H
	DW	04ed9H
	DW	0495cH
	DB	086H
	DB	050H
	DB	0e0H
	DB	01fH
	DB	0c1H
	DB	0e3H
	DB	08aH
	DB	04bH
CONST	ENDS
_DATA	SEGMENT
?PADDING@@3PAEA DB 080H					; PADDING
	DB	00H
	DB	00H
	DB	00H
	DB	00H
	DB	00H
	DB	00H
	DB	00H
	DB	00H
	DB	00H
	DB	00H
	DB	00H
	DB	00H
	DB	00H
	DB	00H
	DB	00H
	DB	00H
	DB	00H
	DB	00H
	DB	00H
	DB	00H
	DB	00H
	DB	00H
	DB	00H
	DB	00H
	DB	00H
	DB	00H
	DB	00H
	DB	00H
	DB	00H
	DB	00H
	DB	00H
	DB	00H
	DB	00H
	DB	00H
	DB	00H
	DB	00H
	DB	00H
	DB	00H
	DB	00H
	DB	00H
	DB	00H
	DB	00H
	DB	00H
	DB	00H
	DB	00H
	DB	00H
	DB	00H
	DB	00H
	DB	00H
	DB	00H
	DB	00H
	DB	00H
	DB	00H
	DB	00H
	DB	00H
	DB	00H
	DB	00H
	DB	00H
	DB	00H
	DB	00H
	DB	00H
	DB	00H
	DB	00H
_DATA	ENDS
;	COMDAT ?CLSID_WinFormsControl@@3U_GUID@@B
CONST	SEGMENT
?CLSID_WinFormsControl@@3U_GUID@@B DD 0b7e7a666H	; CLSID_WinFormsControl
	DW	0d623H
	DW	0457fH
	DB	0a3H
	DB	0aH
	DB	06aH
	DB	049H
	DB	0a3H
	DB	0e5H
	DB	0b4H
	DB	070H
CONST	ENDS
;	COMDAT ?IID_IRichEditOleCallback2@@3U_GUID@@A
_DATA	SEGMENT
?IID_IRichEditOleCallback2@@3U_GUID@@A DD 089fc1386H	; IID_IRichEditOleCallback2
	DW	091e5H
	DW	0415fH
	DB	0adH
	DB	08fH
	DB	04H
	DB	041H
	DB	05cH
	DB	015H
	DB	0f8H
	DB	0f5H
_DATA	ENDS
;	COMDAT ?IID_IImageOle@@3U_GUID@@A
_DATA	SEGMENT
?IID_IImageOle@@3U_GUID@@A DD 0e41fe3bbH		; IID_IImageOle
	DW	07218H
	DW	0423dH
	DB	095H
	DB	02eH
	DB	096H
	DB	0e5H
	DB	056H
	DB	0aeH
	DB	0e3H
	DB	0fH
_DATA	ENDS
;	COMDAT ?CLSID_ImageOle@@3U_GUID@@A
_DATA	SEGMENT
?CLSID_ImageOle@@3U_GUID@@A DD 0c5b3a481H		; CLSID_ImageOle
	DW	021e3H
	DW	04cabH
	DB	08aH
	DB	0bdH
	DB	03cH
	DB	06aH
	DB	085H
	DB	089H
	DB	02aH
	DB	0d2H
_DATA	ENDS
;	COMDAT _IID_IAxWinHostWindow
CONST	SEGMENT
_IID_IAxWinHostWindow DD 0b6ea2050H
	DW	048aH
	DW	011d1H
	DB	082H
	DB	0b9H
	DB	00H
	DB	0c0H
	DB	04fH
	DB	0b9H
	DB	094H
	DB	02eH
CONST	ENDS
;	COMDAT ?szDelete@ATL@@3QB_WB
CONST	SEGMENT
?szDelete@ATL@@3QB_WB DD FLAT:$SG109682			; ATL::szDelete
CONST	ENDS
;	COMDAT __pAtlLocaleNameToIndexTable
CONST	SEGMENT
__pAtlLocaleNameToIndexTable DD FLAT:$SG61553
	DD	042H
	DD	FLAT:$SG61554
	DD	02cH
	DD	FLAT:$SG61555
	DD	071H
	DD	FLAT:$SG61556
	DD	00H
	DD	FLAT:$SG61557
	DD	0d8H
	DD	FLAT:$SG61558
	DD	0daH
	DD	FLAT:$SG61559
	DD	0b1H
	DD	FLAT:$SG61560
	DD	0a0H
	DD	FLAT:$SG61561
	DD	08fH
	DD	FLAT:$SG61562
	DD	0cfH
	DD	FLAT:$SG61563
	DD	0d5H
	DD	FLAT:$SG61564
	DD	0d2H
	DD	FLAT:$SG61565
	DD	0a9H
	DD	FLAT:$SG61566
	DD	0b9H
	DD	FLAT:$SG61567
	DD	0c4H
	DD	FLAT:$SG61568
	DD	0dcH
	DD	FLAT:$SG61569
	DD	043H
	DD	FLAT:$SG61570
	DD	0ccH
	DD	FLAT:$SG61571
	DD	0bfH
	DD	FLAT:$SG61572
	DD	0c8H
	DD	FLAT:$SG61573
	DD	029H
	DD	FLAT:$SG61574
	DD	09bH
	DD	FLAT:$SG61575
	DD	06bH
	DD	FLAT:$SG61576
	DD	021H
	DD	FLAT:$SG61577
	DD	063H
	DD	FLAT:$SG61578
	DD	01H
	DD	FLAT:$SG61579
	DD	044H
	DD	FLAT:$SG61580
	DD	07dH
	DD	FLAT:$SG61581
	DD	0b7H
	DD	FLAT:$SG61582
	DD	02H
	DD	FLAT:$SG61583
	DD	045H
	DD	FLAT:$SG61584
	DD	04H
	DD	FLAT:$SG61585
	DD	047H
	DD	FLAT:$SG61586
	DD	087H
	DD	FLAT:$SG61587
	DD	05H
	DD	FLAT:$SG61588
	DD	048H
	DD	FLAT:$SG61589
	DD	06H
	DD	FLAT:$SG61590
	DD	0a2H
	DD	FLAT:$SG61591
	DD	091H
	DD	FLAT:$SG61592
	DD	049H
	DD	FLAT:$SG61593
	DD	0b3H
	DD	FLAT:$SG61594
	DD	0abH
	DD	FLAT:$SG61595
	DD	041H
	DD	FLAT:$SG61596
	DD	08bH
	DD	FLAT:$SG61597
	DD	07H
	DD	FLAT:$SG61598
	DD	04aH
	DD	FLAT:$SG61599
	DD	08H
	DD	FLAT:$SG61600
	DD	0a3H
	DD	FLAT:$SG61601
	DD	0cdH
	DD	FLAT:$SG61602
	DD	0acH
	DD	FLAT:$SG61603
	DD	0c9H
	DD	FLAT:$SG61604
	DD	092H
	DD	FLAT:$SG61605
	DD	0baH
	DD	FLAT:$SG61606
	DD	0c5H
	DD	FLAT:$SG61607
	DD	0b4H
	DD	FLAT:$SG61608
	DD	0d6H
	DD	FLAT:$SG61609
	DD	0d0H
	DD	FLAT:$SG61610
	DD	04bH
	DD	FLAT:$SG61611
	DD	0c0H
	DD	FLAT:$SG61612
	DD	0d3H
	DD	FLAT:$SG61613
	DD	09H
	DD	FLAT:$SG61614
	DD	0d1H
	DD	FLAT:$SG61615
	DD	0ddH
	DD	FLAT:$SG61616
	DD	0d7H
	DD	FLAT:$SG61617
	DD	0caH
	DD	FLAT:$SG61618
	DD	0b5H
	DD	FLAT:$SG61619
	DD	0c1H
	DD	FLAT:$SG61620
	DD	0d4H
	DD	FLAT:$SG61621
	DD	0a4H
	DD	FLAT:$SG61622
	DD	0adH
	DD	FLAT:$SG61623
	DD	0dfH
	DD	FLAT:$SG61624
	DD	093H
	DD	FLAT:$SG61625
	DD	0e0H
	DD	FLAT:$SG61626
	DD	0bbH
	DD	FLAT:$SG61627
	DD	0ceH
	DD	FLAT:$SG61628
	DD	0e1H
	DD	FLAT:$SG61629
	DD	0dbH
	DD	FLAT:$SG61630
	DD	0deH
	DD	FLAT:$SG61631
	DD	0d9H
	DD	FLAT:$SG61632
	DD	0c6H
	DD	FLAT:$SG61633
	DD	023H
	DD	FLAT:$SG61634
	DD	065H
	DD	FLAT:$SG61635
	DD	02aH
	DD	FLAT:$SG61636
	DD	06cH
	DD	FLAT:$SG61637
	DD	026H
	DD	FLAT:$SG61638
	DD	068H
	DD	FLAT:$SG61639
	DD	0aH
	DD	FLAT:$SG61640
	DD	04cH
	DD	FLAT:$SG61641
	DD	02eH
	DD	FLAT:$SG61642
	DD	073H
	DD	FLAT:$SG61643
	DD	0bH
	DD	FLAT:$SG61644
	DD	094H
	DD	FLAT:$SG61645
	DD	0a5H
	DD	FLAT:$SG61646
	DD	0aeH
	DD	FLAT:$SG61647
	DD	04dH
	DD	FLAT:$SG61648
	DD	0b6H
	DD	FLAT:$SG61649
	DD	0bcH
	DD	FLAT:$SG61650
	DD	03eH
	DD	FLAT:$SG61651
	DD	088H
	DD	FLAT:$SG61652
	DD	037H
	DD	FLAT:$SG61653
	DD	07fH
	DD	FLAT:$SG61654
	DD	0cH
	DD	FLAT:$SG61655
	DD	04eH
	DD	FLAT:$SG61656
	DD	02fH
	DD	FLAT:$SG61657
	DD	074H
	DD	FLAT:$SG61658
	DD	018H
	DD	FLAT:$SG61659
	DD	0afH
	DD	FLAT:$SG61660
	DD	05aH
	DD	FLAT:$SG61661
	DD	0dH
	DD	FLAT:$SG61662
	DD	04fH
	DD	FLAT:$SG61663
	DD	028H
	DD	FLAT:$SG61664
	DD	06aH
	DD	FLAT:$SG61665
	DD	01fH
	DD	FLAT:$SG61666
	DD	061H
	DD	FLAT:$SG61667
	DD	0eH
	DD	FLAT:$SG61668
	DD	050H
	DD	FLAT:$SG61669
	DD	0fH
	DD	FLAT:$SG61670
	DD	095H
	DD	FLAT:$SG61671
	DD	051H
	DD	FLAT:$SG61672
	DD	010H
	DD	FLAT:$SG61673
	DD	052H
	DD	FLAT:$SG61674
	DD	02dH
	DD	FLAT:$SG61675
	DD	072H
	DD	FLAT:$SG61676
	DD	031H
	DD	FLAT:$SG61677
	DD	078H
	DD	FLAT:$SG61678
	DD	03aH
	DD	FLAT:$SG61679
	DD	082H
	DD	FLAT:$SG61680
	DD	011H
	DD	FLAT:$SG61681
	DD	03fH
	DD	FLAT:$SG61682
	DD	089H
	DD	FLAT:$SG61683
	DD	053H
	DD	FLAT:$SG61684
	DD	032H
	DD	FLAT:$SG61685
	DD	079H
	DD	FLAT:$SG61686
	DD	025H
	DD	FLAT:$SG61687
	DD	067H
	DD	FLAT:$SG61688
	DD	024H
	DD	FLAT:$SG61689
	DD	066H
	DD	FLAT:$SG61690
	DD	08eH
	DD	FLAT:$SG61691
	DD	02bH
	DD	FLAT:$SG61692
	DD	06dH
	DD	FLAT:$SG61693
	DD	083H
	DD	FLAT:$SG61694
	DD	03dH
	DD	FLAT:$SG61695
	DD	086H
	DD	FLAT:$SG61696
	DD	03bH
	DD	FLAT:$SG61697
	DD	084H
	DD	FLAT:$SG61698
	DD	030H
	DD	FLAT:$SG61699
	DD	09dH
	DD	FLAT:$SG61700
	DD	077H
	DD	FLAT:$SG61701
	DD	075H
	DD	FLAT:$SG61702
	DD	055H
	DD	FLAT:$SG61703
	DD	012H
	DD	FLAT:$SG61704
	DD	096H
	DD	FLAT:$SG61705
	DD	054H
	DD	FLAT:$SG61706
	DD	097H
	DD	FLAT:$SG61707
	DD	013H
	DD	FLAT:$SG61708
	DD	08dH
	DD	FLAT:$SG61709
	DD	036H
	DD	FLAT:$SG61710
	DD	07eH
	DD	FLAT:$SG61711
	DD	014H
	DD	FLAT:$SG61712
	DD	056H
	DD	FLAT:$SG61713
	DD	015H
	DD	FLAT:$SG61714
	DD	057H
	DD	FLAT:$SG61715
	DD	098H
	DD	FLAT:$SG61716
	DD	08cH
	DD	FLAT:$SG61717
	DD	09fH
	DD	FLAT:$SG61718
	DD	0a8H
	DD	FLAT:$SG61719
	DD	016H
	DD	FLAT:$SG61720
	DD	058H
	DD	FLAT:$SG61721
	DD	017H
	DD	FLAT:$SG61722
	DD	059H
	DD	FLAT:$SG61723
	DD	03cH
	DD	FLAT:$SG61724
	DD	085H
	DD	FLAT:$SG61725
	DD	0a7H
	DD	FLAT:$SG61726
	DD	076H
	DD	FLAT:$SG61727
	DD	09cH
	DD	FLAT:$SG61728
	DD	019H
	DD	FLAT:$SG61729
	DD	05bH
	DD	FLAT:$SG61730
	DD	022H
	DD	FLAT:$SG61731
	DD	064H
	DD	FLAT:$SG61732
	DD	0beH
	DD	FLAT:$SG61733
	DD	0c3H
	DD	FLAT:$SG61734
	DD	0b0H
	DD	FLAT:$SG61735
	DD	0b8H
	DD	FLAT:$SG61736
	DD	0cbH
	DD	FLAT:$SG61737
	DD	0c7H
	DD	FLAT:$SG61738
	DD	01aH
	DD	FLAT:$SG61739
	DD	05cH
	DD	FLAT:$SG61740
	DD	0e3H
	DD	FLAT:$SG61741
	DD	0c2H
	DD	FLAT:$SG61742
	DD	0bdH
	DD	FLAT:$SG61743
	DD	0a6H
	DD	FLAT:$SG61744
	DD	099H
	DD	FLAT:$SG61745
	DD	01bH
	DD	FLAT:$SG61746
	DD	09aH
	DD	FLAT:$SG61747
	DD	05dH
	DD	FLAT:$SG61748
	DD	033H
	DD	FLAT:$SG61749
	DD	07aH
	DD	FLAT:$SG61750
	DD	040H
	DD	FLAT:$SG61751
	DD	08aH
	DD	FLAT:$SG61752
	DD	038H
	DD	FLAT:$SG61753
	DD	080H
	DD	FLAT:$SG61754
	DD	039H
	DD	FLAT:$SG61755
	DD	081H
	DD	FLAT:$SG61756
	DD	01cH
	DD	FLAT:$SG61757
	DD	05eH
	DD	FLAT:$SG61758
	DD	06eH
	DD	FLAT:$SG61759
	DD	01dH
	DD	FLAT:$SG61760
	DD	05fH
	DD	FLAT:$SG61761
	DD	035H
	DD	FLAT:$SG61762
	DD	07cH
	DD	FLAT:$SG61763
	DD	020H
	DD	FLAT:$SG61764
	DD	062H
	DD	FLAT:$SG61765
	DD	01eH
	DD	FLAT:$SG61766
	DD	060H
	DD	FLAT:$SG61767
	DD	034H
	DD	FLAT:$SG61768
	DD	09eH
	DD	FLAT:$SG61769
	DD	07bH
	DD	FLAT:$SG61770
	DD	027H
	DD	FLAT:$SG61771
	DD	069H
	DD	FLAT:$SG61772
	DD	06fH
	DD	FLAT:$SG61773
	DD	03H
	DD	FLAT:$SG61774
	DD	0e2H
	DD	FLAT:$SG61775
	DD	090H
	DD	FLAT:$SG61776
	DD	0a1H
	DD	FLAT:$SG61777
	DD	0b2H
	DD	FLAT:$SG61778
	DD	0aaH
	DD	FLAT:$SG61779
	DD	046H
	DD	FLAT:$SG61780
	DD	070H
CONST	ENDS
;	COMDAT ?szNoRemove@ATL@@3QB_WB
CONST	SEGMENT
?szNoRemove@ATL@@3QB_WB DD FLAT:$SG109680		; ATL::szNoRemove
CONST	ENDS
;	COMDAT ?szForceRemove@ATL@@3QB_WB
CONST	SEGMENT
?szForceRemove@ATL@@3QB_WB DD FLAT:$SG109678		; ATL::szForceRemove
CONST	ENDS
;	COMDAT ?szValToken@ATL@@3QB_WB
CONST	SEGMENT
?szValToken@ATL@@3QB_WB DD FLAT:$SG109676		; ATL::szValToken
CONST	ENDS
;	COMDAT ?szBinaryVal@ATL@@3QB_WB
CONST	SEGMENT
?szBinaryVal@ATL@@3QB_WB DD FLAT:$SG109674		; ATL::szBinaryVal
CONST	ENDS
;	COMDAT ?szDwordVal@ATL@@3QB_WB
CONST	SEGMENT
?szDwordVal@ATL@@3QB_WB DD FLAT:$SG109672		; ATL::szDwordVal
CONST	ENDS
;	COMDAT ?multiszStringVal@ATL@@3QB_WB
CONST	SEGMENT
?multiszStringVal@ATL@@3QB_WB DD FLAT:$SG109670		; ATL::multiszStringVal
CONST	ENDS
;	COMDAT ?szStringVal@ATL@@3QB_WB
CONST	SEGMENT
?szStringVal@ATL@@3QB_WB DD FLAT:$SG109668		; ATL::szStringVal
CONST	ENDS
;	COMDAT ?chEquals@ATL@@3_WB
CONST	SEGMENT
?chEquals@ATL@@3_WB DW 03dH				; ATL::chEquals
CONST	ENDS
;	COMDAT ?chQuote@ATL@@3_WB
CONST	SEGMENT
?chQuote@ATL@@3_WB DW 027H				; ATL::chQuote
CONST	ENDS
;	COMDAT ?chLeftBracket@ATL@@3_WB
CONST	SEGMENT
?chLeftBracket@ATL@@3_WB DW 07bH			; ATL::chLeftBracket
CONST	ENDS
;	COMDAT ?chRightBracket@ATL@@3_WB
CONST	SEGMENT
?chRightBracket@ATL@@3_WB DW 07dH			; ATL::chRightBracket
CONST	ENDS
;	COMDAT ?chDirSep@ATL@@3_WB
CONST	SEGMENT
?chDirSep@ATL@@3_WB DW 05cH				; ATL::chDirSep
CONST	ENDS
CONST	SEGMENT
$SG61440 DB	'h', 00H, 'i', 00H, '-', 00H, 'I', 00H, 'N', 00H, 00H, 00H
$SG61441 DB	'm', 00H, 't', 00H, '-', 00H, 'M', 00H, 'T', 00H, 00H, 00H
$SG61442 DB	's', 00H, 'e', 00H, '-', 00H, 'N', 00H, 'O', 00H, 00H, 00H
$SG61443 DB	'm', 00H, 's', 00H, '-', 00H, 'M', 00H, 'Y', 00H, 00H, 00H
$SG61444 DB	'k', 00H, 'k', 00H, '-', 00H, 'K', 00H, 'Z', 00H, 00H, 00H
$SG61445 DB	'k', 00H, 'y', 00H, '-', 00H, 'K', 00H, 'G', 00H, 00H, 00H
$SG61446 DB	's', 00H, 'w', 00H, '-', 00H, 'K', 00H, 'E', 00H, 00H, 00H
$SG61447 DB	'u', 00H, 'z', 00H, '-', 00H, 'U', 00H, 'Z', 00H, '-', 00H
	DB	'L', 00H, 'a', 00H, 't', 00H, 'n', 00H, 00H, 00H
	ORG $+2
$SG61448 DB	't', 00H, 't', 00H, '-', 00H, 'R', 00H, 'U', 00H, 00H, 00H
$SG61449 DB	'b', 00H, 'n', 00H, '-', 00H, 'I', 00H, 'N', 00H, 00H, 00H
$SG61450 DB	'p', 00H, 'a', 00H, '-', 00H, 'I', 00H, 'N', 00H, 00H, 00H
$SG61451 DB	'g', 00H, 'u', 00H, '-', 00H, 'I', 00H, 'N', 00H, 00H, 00H
$SG61452 DB	't', 00H, 'a', 00H, '-', 00H, 'I', 00H, 'N', 00H, 00H, 00H
$SG61453 DB	't', 00H, 'e', 00H, '-', 00H, 'I', 00H, 'N', 00H, 00H, 00H
$SG61454 DB	'k', 00H, 'n', 00H, '-', 00H, 'I', 00H, 'N', 00H, 00H, 00H
$SG61455 DB	'm', 00H, 'l', 00H, '-', 00H, 'I', 00H, 'N', 00H, 00H, 00H
?IID_IDataBase@@3U_GUID@@B DD 07fbbbffaH		; IID_IDataBase
	DW	0edf4H
	DW	043d2H
	DB	08aH
	DB	0b7H
	DB	028H
	DB	087H
	DB	03bH
	DB	0d0H
	DB	0f5H
	DB	03fH
$SG61456 DB	'm', 00H, 'r', 00H, '-', 00H, 'I', 00H, 'N', 00H, 00H, 00H
$SG61457 DB	's', 00H, 'a', 00H, '-', 00H, 'I', 00H, 'N', 00H, 00H, 00H
$SG61458 DB	'm', 00H, 'n', 00H, '-', 00H, 'M', 00H, 'N', 00H, 00H, 00H
$SG61459 DB	'c', 00H, 'y', 00H, '-', 00H, 'G', 00H, 'B', 00H, 00H, 00H
$SG61460 DB	'g', 00H, 'l', 00H, '-', 00H, 'E', 00H, 'S', 00H, 00H, 00H
$SG61461 DB	'k', 00H, 'o', 00H, 'k', 00H, '-', 00H, 'I', 00H, 'N', 00H
	DB	00H, 00H
	ORG $+2
$SG61462 DB	's', 00H, 'y', 00H, 'r', 00H, '-', 00H, 'S', 00H, 'Y', 00H
	DB	00H, 00H
	ORG $+2
$SG61463 DB	'd', 00H, 'i', 00H, 'v', 00H, '-', 00H, 'M', 00H, 'V', 00H
	DB	00H, 00H
	ORG $+2
$SG61464 DB	'q', 00H, 'u', 00H, 'z', 00H, '-', 00H, 'B', 00H, 'O', 00H
	DB	00H, 00H
	ORG $+2
$SG61465 DB	'n', 00H, 's', 00H, '-', 00H, 'Z', 00H, 'A', 00H, 00H, 00H
$SG61466 DB	'm', 00H, 'i', 00H, '-', 00H, 'N', 00H, 'Z', 00H, 00H, 00H
$SG61467 DB	'a', 00H, 'r', 00H, '-', 00H, 'I', 00H, 'Q', 00H, 00H, 00H
$SG61468 DB	'z', 00H, 'h', 00H, '-', 00H, 'C', 00H, 'N', 00H, 00H, 00H
$SG61469 DB	'd', 00H, 'e', 00H, '-', 00H, 'C', 00H, 'H', 00H, 00H, 00H
$SG61470 DB	'e', 00H, 'n', 00H, '-', 00H, 'G', 00H, 'B', 00H, 00H, 00H
$SG61471 DB	'e', 00H, 's', 00H, '-', 00H, 'M', 00H, 'X', 00H, 00H, 00H
$SG61472 DB	'f', 00H, 'r', 00H, '-', 00H, 'B', 00H, 'E', 00H, 00H, 00H
$SG61473 DB	'i', 00H, 't', 00H, '-', 00H, 'C', 00H, 'H', 00H, 00H, 00H
$SG61474 DB	'n', 00H, 'l', 00H, '-', 00H, 'B', 00H, 'E', 00H, 00H, 00H
$SG61475 DB	'n', 00H, 'n', 00H, '-', 00H, 'N', 00H, 'O', 00H, 00H, 00H
$SG61476 DB	'p', 00H, 't', 00H, '-', 00H, 'P', 00H, 'T', 00H, 00H, 00H
$SG61477 DB	's', 00H, 'r', 00H, '-', 00H, 'S', 00H, 'P', 00H, '-', 00H
	DB	'L', 00H, 'a', 00H, 't', 00H, 'n', 00H, 00H, 00H
	ORG $+2
$SG61478 DB	's', 00H, 'v', 00H, '-', 00H, 'F', 00H, 'I', 00H, 00H, 00H
$SG61479 DB	'a', 00H, 'z', 00H, '-', 00H, 'A', 00H, 'Z', 00H, '-', 00H
	DB	'C', 00H, 'y', 00H, 'r', 00H, 'l', 00H, 00H, 00H
	ORG $+2
$SG61480 DB	's', 00H, 'e', 00H, '-', 00H, 'S', 00H, 'E', 00H, 00H, 00H
$SG61481 DB	'm', 00H, 's', 00H, '-', 00H, 'B', 00H, 'N', 00H, 00H, 00H
$SG61482 DB	'u', 00H, 'z', 00H, '-', 00H, 'U', 00H, 'Z', 00H, '-', 00H
	DB	'C', 00H, 'y', 00H, 'r', 00H, 'l', 00H, 00H, 00H
	ORG $+2
$SG61483 DB	'q', 00H, 'u', 00H, 'z', 00H, '-', 00H, 'E', 00H, 'C', 00H
	DB	00H, 00H
	ORG $+2
$SG60459 DB	'a', 00H, 't', 00H, 'l', 00H, 'T', 00H, 'r', 00H, 'a', 00H
	DB	'c', 00H, 'e', 00H, 'A', 00H, 'l', 00H, 'l', 00H, 'o', 00H, 'c'
	DB	00H, 'a', 00H, 't', 00H, 'i', 00H, 'o', 00H, 'n', 00H, 00H, 00H
	ORG $+2
$SG61484 DB	'a', 00H, 'r', 00H, '-', 00H, 'E', 00H, 'G', 00H, 00H, 00H
$SG61485 DB	'z', 00H, 'h', 00H, '-', 00H, 'H', 00H, 'K', 00H, 00H, 00H
$SG61486 DB	'd', 00H, 'e', 00H, '-', 00H, 'A', 00H, 'T', 00H, 00H, 00H
$SG61487 DB	'e', 00H, 'n', 00H, '-', 00H, 'A', 00H, 'U', 00H, 00H, 00H
$SG61488 DB	'e', 00H, 's', 00H, '-', 00H, 'E', 00H, 'S', 00H, 00H, 00H
$SG61489 DB	'f', 00H, 'r', 00H, '-', 00H, 'C', 00H, 'A', 00H, 00H, 00H
$SG61490 DB	's', 00H, 'r', 00H, '-', 00H, 'S', 00H, 'P', 00H, '-', 00H
	DB	'C', 00H, 'y', 00H, 'r', 00H, 'l', 00H, 00H, 00H
	ORG $+2
?IID_IPlatformResource@@3U_GUID@@B DD 0bcd7ff05H	; IID_IPlatformResource
	DW	0a79H
	DW	04482H
	DB	09bH
	DB	0a6H
	DB	079H
	DB	0dfH
	DB	04bH
	DB	0d9H
	DB	080H
	DB	016H
$SG61491 DB	's', 00H, 'e', 00H, '-', 00H, 'F', 00H, 'I', 00H, 00H, 00H
$SG61492 DB	'q', 00H, 'u', 00H, 'z', 00H, '-', 00H, 'P', 00H, 'E', 00H
	DB	00H, 00H
	ORG $+2
$SG61493 DB	'a', 00H, 'r', 00H, '-', 00H, 'L', 00H, 'Y', 00H, 00H, 00H
$SG61494 DB	'z', 00H, 'h', 00H, '-', 00H, 'S', 00H, 'G', 00H, 00H, 00H
$SG61495 DB	'd', 00H, 'e', 00H, '-', 00H, 'L', 00H, 'U', 00H, 00H, 00H
$SG61496 DB	'e', 00H, 'n', 00H, '-', 00H, 'C', 00H, 'A', 00H, 00H, 00H
$SG61497 DB	'e', 00H, 's', 00H, '-', 00H, 'G', 00H, 'T', 00H, 00H, 00H
$SG61498 DB	'f', 00H, 'r', 00H, '-', 00H, 'C', 00H, 'H', 00H, 00H, 00H
$SG61499 DB	'h', 00H, 'r', 00H, '-', 00H, 'B', 00H, 'A', 00H, 00H, 00H
$SG61500 DB	's', 00H, 'm', 00H, 'j', 00H, '-', 00H, 'N', 00H, 'O', 00H
	DB	00H, 00H
	ORG $+2
$SG61501 DB	'a', 00H, 'r', 00H, '-', 00H, 'D', 00H, 'Z', 00H, 00H, 00H
$SG61502 DB	'z', 00H, 'h', 00H, '-', 00H, 'M', 00H, 'O', 00H, 00H, 00H
$SG61503 DB	'd', 00H, 'e', 00H, '-', 00H, 'L', 00H, 'I', 00H, 00H, 00H
$SG61504 DB	'e', 00H, 'n', 00H, '-', 00H, 'N', 00H, 'Z', 00H, 00H, 00H
$SG61505 DB	'e', 00H, 's', 00H, '-', 00H, 'C', 00H, 'R', 00H, 00H, 00H
$SG313410 DB	'8n', 0fH, 'bLhP[ ', 00H, 'C', 00H, 'T', 00H, 'a', 00H, 'b'
	DB	00H, 'l', 00H, 'e', 00H, 'F', 00H, 'r', 00H, 'a', 00H, 'm', 00H
	DB	'e', 00H, 'S', 00H, 'i', 00H, 'n', 00H, 'k', 00H, ' ', 00H, 0e5H
	DB	'g', 0e2H, 08bH, ' ', 00H, 'I', 00H, 'T', 00H, 'a', 00H, 'b', 00H
	DB	'l', 00H, 'e', 00H, 'F', 00H, 'r', 00H, 'a', 00H, 'm', 00H, 'e'
	DB	00H, ' ', 00H, 0a5H, 'c', 0e3H, 'S1Y%', 08dH, 00H, 00H
	ORG $+2
$SG61506 DB	'f', 00H, 'r', 00H, '-', 00H, 'L', 00H, 'U', 00H, 00H, 00H
$SG61507 DB	'b', 00H, 's', 00H, '-', 00H, 'B', 00H, 'A', 00H, '-', 00H
	DB	'L', 00H, 'a', 00H, 't', 00H, 'n', 00H, 00H, 00H
	ORG $+2
$SG61508 DB	's', 00H, 'm', 00H, 'j', 00H, '-', 00H, 'S', 00H, 'E', 00H
	DB	00H, 00H
	ORG $+2
$SG61509 DB	'a', 00H, 'r', 00H, '-', 00H, 'M', 00H, 'A', 00H, 00H, 00H
$SG61510 DB	'e', 00H, 'n', 00H, '-', 00H, 'I', 00H, 'E', 00H, 00H, 00H
$SG61511 DB	'e', 00H, 's', 00H, '-', 00H, 'P', 00H, 'A', 00H, 00H, 00H
?IID_IDataBaseEngine@@3U_GUID@@B DD 03c56956dH		; IID_IDataBaseEngine
	DW	01690H
	DW	04c22H
	DB	088H
	DB	034H
	DB	09eH
	DB	0b9H
	DB	0d0H
	DB	093H
	DB	066H
	DB	04cH
$SG61512 DB	'f', 00H, 'r', 00H, '-', 00H, 'M', 00H, 'C', 00H, 00H, 00H
$SG61513 DB	's', 00H, 'r', 00H, '-', 00H, 'B', 00H, 'A', 00H, '-', 00H
	DB	'L', 00H, 'a', 00H, 't', 00H, 'n', 00H, 00H, 00H
	ORG $+2
$SG61514 DB	's', 00H, 'm', 00H, 'a', 00H, '-', 00H, 'N', 00H, 'O', 00H
	DB	00H, 00H
	ORG $+2
$SG61515 DB	'a', 00H, 'r', 00H, '-', 00H, 'T', 00H, 'N', 00H, 00H, 00H
$SG61516 DB	'e', 00H, 'n', 00H, '-', 00H, 'Z', 00H, 'A', 00H, 00H, 00H
$SG61517 DB	'e', 00H, 's', 00H, '-', 00H, 'D', 00H, 'O', 00H, 00H, 00H
$SG61518 DB	's', 00H, 'r', 00H, '-', 00H, 'B', 00H, 'A', 00H, '-', 00H
	DB	'C', 00H, 'y', 00H, 'r', 00H, 'l', 00H, 00H, 00H
	ORG $+2
$SG61519 DB	's', 00H, 'm', 00H, 'a', 00H, '-', 00H, 'S', 00H, 'E', 00H
	DB	00H, 00H
	ORG $+2
$SG61520 DB	'a', 00H, 'r', 00H, '-', 00H, 'O', 00H, 'M', 00H, 00H, 00H
$SG61521 DB	'e', 00H, 'n', 00H, '-', 00H, 'J', 00H, 'M', 00H, 00H, 00H
$SG61522 DB	'e', 00H, 's', 00H, '-', 00H, 'V', 00H, 'E', 00H, 00H, 00H
$SG61523 DB	's', 00H, 'm', 00H, 's', 00H, '-', 00H, 'F', 00H, 'I', 00H
	DB	00H, 00H
	ORG $+2
$SG61524 DB	'a', 00H, 'r', 00H, '-', 00H, 'Y', 00H, 'E', 00H, 00H, 00H
$SG61525 DB	'e', 00H, 'n', 00H, '-', 00H, 'C', 00H, 'B', 00H, 00H, 00H
$SG61526 DB	'e', 00H, 's', 00H, '-', 00H, 'C', 00H, 'O', 00H, 00H, 00H
$SG61527 DB	's', 00H, 'm', 00H, 'n', 00H, '-', 00H, 'F', 00H, 'I', 00H
	DB	00H, 00H
	ORG $+2
$SG61528 DB	'a', 00H, 'r', 00H, '-', 00H, 'S', 00H, 'Y', 00H, 00H, 00H
$SG61529 DB	'e', 00H, 'n', 00H, '-', 00H, 'B', 00H, 'Z', 00H, 00H, 00H
$SG61530 DB	'e', 00H, 's', 00H, '-', 00H, 'P', 00H, 'E', 00H, 00H, 00H
$SG60506 DB	'a', 00H, 't', 00H, 'l', 00H, 'T', 00H, 'r', 00H, 'a', 00H
	DB	'c', 00H, 'e', 00H, 'E', 00H, 'x', 00H, 'c', 00H, 'e', 00H, 'p'
	DB	00H, 't', 00H, 'i', 00H, 'o', 00H, 'n', 00H, 00H, 00H
$SG61531 DB	'a', 00H, 'r', 00H, '-', 00H, 'J', 00H, 'O', 00H, 00H, 00H
$SG61532 DB	'e', 00H, 'n', 00H, '-', 00H, 'T', 00H, 'T', 00H, 00H, 00H
$SG61533 DB	'e', 00H, 's', 00H, '-', 00H, 'A', 00H, 'R', 00H, 00H, 00H
$SG61534 DB	'a', 00H, 'r', 00H, '-', 00H, 'L', 00H, 'B', 00H, 00H, 00H
$SG61535 DB	'e', 00H, 'n', 00H, '-', 00H, 'Z', 00H, 'W', 00H, 00H, 00H
$SG61536 DB	'e', 00H, 's', 00H, '-', 00H, 'E', 00H, 'C', 00H, 00H, 00H
$SG61537 DB	'a', 00H, 'r', 00H, '-', 00H, 'K', 00H, 'W', 00H, 00H, 00H
$SG61538 DB	'e', 00H, 'n', 00H, '-', 00H, 'P', 00H, 'H', 00H, 00H, 00H
$SG61539 DB	'e', 00H, 's', 00H, '-', 00H, 'C', 00H, 'L', 00H, 00H, 00H
$SG109668 DB	'S', 00H, 00H, 00H
$SG61540 DB	'a', 00H, 'r', 00H, '-', 00H, 'A', 00H, 'E', 00H, 00H, 00H
$SG61541 DB	'e', 00H, 's', 00H, '-', 00H, 'U', 00H, 'Y', 00H, 00H, 00H
$SG109670 DB	'M', 00H, 00H, 00H
$SG61542 DB	'a', 00H, 'r', 00H, '-', 00H, 'B', 00H, 'H', 00H, 00H, 00H
$SG61543 DB	'e', 00H, 's', 00H, '-', 00H, 'P', 00H, 'Y', 00H, 00H, 00H
$SG314472 DB	'?b', 0f4H, 095H, 0f7H, 'S%', 00H, 'd', 00H, '-', 00H, '-'
	DB	00H, '%', 00H, 's', 00H, 0aH, 00H, 00H, 00H
	ORG $+2
$SG109672 DB	'D', 00H, 00H, 00H
$SG61544 DB	'a', 00H, 'r', 00H, '-', 00H, 'Q', 00H, 'A', 00H, 00H, 00H
$SG61545 DB	'e', 00H, 's', 00H, '-', 00H, 'B', 00H, 'O', 00H, 00H, 00H
$SG109674 DB	'B', 00H, 00H, 00H
$SG61546 DB	'e', 00H, 's', 00H, '-', 00H, 'S', 00H, 'V', 00H, 00H, 00H
$SG61547 DB	'e', 00H, 's', 00H, '-', 00H, 'H', 00H, 'N', 00H, 00H, 00H
$SG109676 DB	'V', 00H, 'a', 00H, 'l', 00H, 00H, 00H
$SG61548 DB	'e', 00H, 's', 00H, '-', 00H, 'N', 00H, 'I', 00H, 00H, 00H
$SG61549 DB	'e', 00H, 's', 00H, '-', 00H, 'P', 00H, 'R', 00H, 00H, 00H
$SG109678 DB	'F', 00H, 'o', 00H, 'r', 00H, 'c', 00H, 'e', 00H, 'R', 00H
	DB	'e', 00H, 'm', 00H, 'o', 00H, 'v', 00H, 'e', 00H, 00H, 00H
$SG61550 DB	'z', 00H, 'h', 00H, '-', 00H, 'C', 00H, 'H', 00H, 'T', 00H
	DB	00H, 00H
	ORG $+2
$SG61551 DB	's', 00H, 'r', 00H, 00H, 00H
	ORG $+2
$SG109680 DB	'N', 00H, 'o', 00H, 'R', 00H, 'e', 00H, 'm', 00H, 'o', 00H
	DB	'v', 00H, 'e', 00H, 00H, 00H
	ORG $+2
$SG61553 DB	00H, 00H
	ORG $+2
$SG109682 DB	'D', 00H, 'e', 00H, 'l', 00H, 'e', 00H, 't', 00H, 'e', 00H
	DB	00H, 00H
	ORG $+2
$SG61554 DB	'a', 00H, 'f', 00H, 00H, 00H
	ORG $+2
$SG61555 DB	'a', 00H, 'f', 00H, '-', 00H, 'z', 00H, 'a', 00H, 00H, 00H
$SG61556 DB	'a', 00H, 'r', 00H, 00H, 00H
	ORG $+2
$SG61557 DB	'a', 00H, 'r', 00H, '-', 00H, 'a', 00H, 'e', 00H, 00H, 00H
$SG61558 DB	'a', 00H, 'r', 00H, '-', 00H, 'b', 00H, 'h', 00H, 00H, 00H
$SG61559 DB	'a', 00H, 'r', 00H, '-', 00H, 'd', 00H, 'z', 00H, 00H, 00H
$SG61560 DB	'a', 00H, 'r', 00H, '-', 00H, 'e', 00H, 'g', 00H, 00H, 00H
$SG61561 DB	'a', 00H, 'r', 00H, '-', 00H, 'i', 00H, 'q', 00H, 00H, 00H
$SG61562 DB	'a', 00H, 'r', 00H, '-', 00H, 'j', 00H, 'o', 00H, 00H, 00H
$SG61563 DB	'a', 00H, 'r', 00H, '-', 00H, 'k', 00H, 'w', 00H, 00H, 00H
$SG61564 DB	'a', 00H, 'r', 00H, '-', 00H, 'l', 00H, 'b', 00H, 00H, 00H
$SG61565 DB	'a', 00H, 'r', 00H, '-', 00H, 'l', 00H, 'y', 00H, 00H, 00H
$SG61566 DB	'a', 00H, 'r', 00H, '-', 00H, 'm', 00H, 'a', 00H, 00H, 00H
$SG61567 DB	'a', 00H, 'r', 00H, '-', 00H, 'o', 00H, 'm', 00H, 00H, 00H
$SG61568 DB	'a', 00H, 'r', 00H, '-', 00H, 'q', 00H, 'a', 00H, 00H, 00H
$SG61569 DB	'a', 00H, 'r', 00H, '-', 00H, 's', 00H, 'a', 00H, 00H, 00H
$SG61570 DB	'a', 00H, 'r', 00H, '-', 00H, 's', 00H, 'y', 00H, 00H, 00H
$SG61571 DB	'a', 00H, 'r', 00H, '-', 00H, 't', 00H, 'n', 00H, 00H, 00H
$SG61572 DB	'a', 00H, 'r', 00H, '-', 00H, 'y', 00H, 'e', 00H, 00H, 00H
$SG61573 DB	'a', 00H, 'z', 00H, 00H, 00H
	ORG $+2
$SG61574 DB	'a', 00H, 'z', 00H, '-', 00H, 'a', 00H, 'z', 00H, '-', 00H
	DB	'c', 00H, 'y', 00H, 'r', 00H, 'l', 00H, 00H, 00H
	ORG $+2
$SG61575 DB	'a', 00H, 'z', 00H, '-', 00H, 'a', 00H, 'z', 00H, '-', 00H
	DB	'l', 00H, 'a', 00H, 't', 00H, 'n', 00H, 00H, 00H
	ORG $+2
$SG61576 DB	'b', 00H, 'e', 00H, 00H, 00H
	ORG $+2
?IID_IUDPNetworkEngine@@3U_GUID@@B DD 0bbbd895aH	; IID_IUDPNetworkEngine
	DW	0a97H
	DW	04faeH
	DB	08eH
	DB	038H
	DB	010H
	DB	076H
	DB	0a7H
	DB	0c7H
	DB	04dH
	DB	07fH
$SG61577 DB	'b', 00H, 'e', 00H, '-', 00H, 'b', 00H, 'y', 00H, 00H, 00H
$SG60553 DB	'a', 00H, 't', 00H, 'l', 00H, 'T', 00H, 'r', 00H, 'a', 00H
	DB	'c', 00H, 'e', 00H, 'T', 00H, 'i', 00H, 'm', 00H, 'e', 00H, 00H
	DB	00H
	ORG $+2
$SG61579 DB	'b', 00H, 'g', 00H, '-', 00H, 'b', 00H, 'g', 00H, 00H, 00H
$SG313482 DB	'8n', 0fH, 'b', 00H, '_', 0cbH, 'Ys', 00H, 'e', 00H, 'r', 00H
	DB	'v', 00H, 'e', 00H, 'r', 00H, 't', 00H, 'y', 00H, 'p', 00H, 'e'
	DB	00H, '=', 00H, '%', 00H, 'd', 00H, ',', 00H, 'o', 00H, 'u', 00H
	DB	't', 00H, 't', 00H, 'i', 00H, 'm', 00H, 'e', 00H, '=', 00H, '%'
	DB	00H, 'd', 00H, ',', 00H, 'o', 00H, 'p', 00H, 'e', 00H, 'r', 00H
	DB	'a', 00H, 't', 00H, 'e', 00H, 't', 00H, 'i', 00H, 'm', 00H, 'e'
	DB	00H, '=', 00H, '%', 00H, 'd', 00H, 00H, 00H
$SG61578 DB	'b', 00H, 'g', 00H, 00H, 00H
	ORG $+2
$SG61580 DB	'b', 00H, 'n', 00H, '-', 00H, 'i', 00H, 'n', 00H, 00H, 00H
$SG61581 DB	'b', 00H, 's', 00H, '-', 00H, 'b', 00H, 'a', 00H, '-', 00H
	DB	'l', 00H, 'a', 00H, 't', 00H, 'n', 00H, 00H, 00H
	ORG $+2
$SG61582 DB	'c', 00H, 'a', 00H, 00H, 00H
	ORG $+2
$SG61583 DB	'c', 00H, 'a', 00H, '-', 00H, 'e', 00H, 's', 00H, 00H, 00H
$SG61584 DB	'c', 00H, 's', 00H, 00H, 00H
	ORG $+2
$SG61585 DB	'c', 00H, 's', 00H, '-', 00H, 'c', 00H, 'z', 00H, 00H, 00H
$SG61586 DB	'c', 00H, 'y', 00H, '-', 00H, 'g', 00H, 'b', 00H, 00H, 00H
$SG61587 DB	'd', 00H, 'a', 00H, 00H, 00H
	ORG $+2
$SG61588 DB	'd', 00H, 'a', 00H, '-', 00H, 'd', 00H, 'k', 00H, 00H, 00H
$SG61589 DB	'd', 00H, 'e', 00H, 00H, 00H
	ORG $+2
$SG61590 DB	'd', 00H, 'e', 00H, '-', 00H, 'a', 00H, 't', 00H, 00H, 00H
$SG61591 DB	'd', 00H, 'e', 00H, '-', 00H, 'c', 00H, 'h', 00H, 00H, 00H
$SG61592 DB	'd', 00H, 'e', 00H, '-', 00H, 'd', 00H, 'e', 00H, 00H, 00H
$SG313497 DB	'8n', 0fH, 'b', 00H, '_', 0cbH, 'Y1', 00H, ',', 00H, 084H
	DB	'^', 0b6H, '[%', 00H, 'd', 00H, 0efH, 'S', 0a8H, 'R\O%', 00H, 'd'
	DB	00H, 00H, 00H
$SG61593 DB	'd', 00H, 'e', 00H, '-', 00H, 'l', 00H, 'i', 00H, 00H, 00H
$SG61594 DB	'd', 00H, 'e', 00H, '-', 00H, 'l', 00H, 'u', 00H, 00H, 00H
$SG61595 DB	'd', 00H, 'i', 00H, 'v', 00H, 00H, 00H
$SG61596 DB	'd', 00H, 'i', 00H, 'v', 00H, '-', 00H, 'm', 00H, 'v', 00H
	DB	00H, 00H
	ORG $+2
$SG61597 DB	'e', 00H, 'l', 00H, 00H, 00H
	ORG $+2
$SG61598 DB	'e', 00H, 'l', 00H, '-', 00H, 'g', 00H, 'r', 00H, 00H, 00H
$SG61599 DB	'e', 00H, 'n', 00H, 00H, 00H
	ORG $+2
$SG61600 DB	'e', 00H, 'n', 00H, '-', 00H, 'a', 00H, 'u', 00H, 00H, 00H
$SG61601 DB	'e', 00H, 'n', 00H, '-', 00H, 'b', 00H, 'z', 00H, 00H, 00H
$SG61602 DB	'e', 00H, 'n', 00H, '-', 00H, 'c', 00H, 'a', 00H, 00H, 00H
$SG61603 DB	'e', 00H, 'n', 00H, '-', 00H, 'c', 00H, 'b', 00H, 00H, 00H
$SG61604 DB	'e', 00H, 'n', 00H, '-', 00H, 'g', 00H, 'b', 00H, 00H, 00H
$SG61605 DB	'e', 00H, 'n', 00H, '-', 00H, 'i', 00H, 'e', 00H, 00H, 00H
$SG61606 DB	'e', 00H, 'n', 00H, '-', 00H, 'j', 00H, 'm', 00H, 00H, 00H
$SG61607 DB	'e', 00H, 'n', 00H, '-', 00H, 'n', 00H, 'z', 00H, 00H, 00H
$SG61608 DB	'e', 00H, 'n', 00H, '-', 00H, 'p', 00H, 'h', 00H, 00H, 00H
$SG61609 DB	'e', 00H, 'n', 00H, '-', 00H, 't', 00H, 't', 00H, 00H, 00H
$SG61610 DB	'e', 00H, 'n', 00H, '-', 00H, 'u', 00H, 's', 00H, 00H, 00H
$SG61611 DB	'e', 00H, 'n', 00H, '-', 00H, 'z', 00H, 'a', 00H, 00H, 00H
?IID_ITCPNetworkEngine@@3U_GUID@@B DD 09aa6931fH	; IID_ITCPNetworkEngine
	DW	0417fH
	DW	043a7H
	DB	086H
	DB	0abH
	DB	056H
	DB	010H
	DB	0e4H
	DB	034H
	DB	01cH
	DB	017H
$SG61612 DB	'e', 00H, 'n', 00H, '-', 00H, 'z', 00H, 'w', 00H, 00H, 00H
$SG61613 DB	'e', 00H, 's', 00H, 00H, 00H
	ORG $+2
$SG61614 DB	'e', 00H, 's', 00H, '-', 00H, 'a', 00H, 'r', 00H, 00H, 00H
$SG61615 DB	'e', 00H, 's', 00H, '-', 00H, 'b', 00H, 'o', 00H, 00H, 00H
$SG61616 DB	'e', 00H, 's', 00H, '-', 00H, 'c', 00H, 'l', 00H, 00H, 00H
$SG61617 DB	'e', 00H, 's', 00H, '-', 00H, 'c', 00H, 'o', 00H, 00H, 00H
$SG61618 DB	'e', 00H, 's', 00H, '-', 00H, 'c', 00H, 'r', 00H, 00H, 00H
$SG61619 DB	'e', 00H, 's', 00H, '-', 00H, 'd', 00H, 'o', 00H, 00H, 00H
$SG61620 DB	'e', 00H, 's', 00H, '-', 00H, 'e', 00H, 'c', 00H, 00H, 00H
$SG61621 DB	'e', 00H, 's', 00H, '-', 00H, 'e', 00H, 's', 00H, 00H, 00H
$SG61622 DB	'e', 00H, 's', 00H, '-', 00H, 'g', 00H, 't', 00H, 00H, 00H
$SG61623 DB	'e', 00H, 's', 00H, '-', 00H, 'h', 00H, 'n', 00H, 00H, 00H
$SG61624 DB	'e', 00H, 's', 00H, '-', 00H, 'm', 00H, 'x', 00H, 00H, 00H
$SG60600 DB	'a', 00H, 't', 00H, 'l', 00H, 'T', 00H, 'r', 00H, 'a', 00H
	DB	'c', 00H, 'e', 00H, 'C', 00H, 'a', 00H, 'c', 00H, 'h', 00H, 'e'
	DB	00H, 00H, 00H
$SG61625 DB	'e', 00H, 's', 00H, '-', 00H, 'n', 00H, 'i', 00H, 00H, 00H
$SG61626 DB	'e', 00H, 's', 00H, '-', 00H, 'p', 00H, 'a', 00H, 00H, 00H
$SG61627 DB	'e', 00H, 's', 00H, '-', 00H, 'p', 00H, 'e', 00H, 00H, 00H
$SG61628 DB	'e', 00H, 's', 00H, '-', 00H, 'p', 00H, 'r', 00H, 00H, 00H
$SG61629 DB	'e', 00H, 's', 00H, '-', 00H, 'p', 00H, 'y', 00H, 00H, 00H
$SG61630 DB	'e', 00H, 's', 00H, '-', 00H, 's', 00H, 'v', 00H, 00H, 00H
$SG61631 DB	'e', 00H, 's', 00H, '-', 00H, 'u', 00H, 'y', 00H, 00H, 00H
$SG61632 DB	'e', 00H, 's', 00H, '-', 00H, 'v', 00H, 'e', 00H, 00H, 00H
$SG61633 DB	'e', 00H, 't', 00H, 00H, 00H
	ORG $+2
$SG61634 DB	'e', 00H, 't', 00H, '-', 00H, 'e', 00H, 'e', 00H, 00H, 00H
$SG61635 DB	'e', 00H, 'u', 00H, 00H, 00H
	ORG $+2
$SG61636 DB	'e', 00H, 'u', 00H, '-', 00H, 'e', 00H, 's', 00H, 00H, 00H
$SG61637 DB	'f', 00H, 'a', 00H, 00H, 00H
	ORG $+2
$SG61638 DB	'f', 00H, 'a', 00H, '-', 00H, 'i', 00H, 'r', 00H, 00H, 00H
$SG61639 DB	'f', 00H, 'i', 00H, 00H, 00H
	ORG $+2
$SG61640 DB	'f', 00H, 'i', 00H, '-', 00H, 'f', 00H, 'i', 00H, 00H, 00H
$SG61641 DB	'f', 00H, 'o', 00H, 00H, 00H
	ORG $+2
$SG61642 DB	'f', 00H, 'o', 00H, '-', 00H, 'f', 00H, 'o', 00H, 00H, 00H
$SG61643 DB	'f', 00H, 'r', 00H, 00H, 00H
	ORG $+2
$SG61644 DB	'f', 00H, 'r', 00H, '-', 00H, 'b', 00H, 'e', 00H, 00H, 00H
$SG61645 DB	'f', 00H, 'r', 00H, '-', 00H, 'c', 00H, 'a', 00H, 00H, 00H
$SG61646 DB	'f', 00H, 'r', 00H, '-', 00H, 'c', 00H, 'h', 00H, 00H, 00H
$SG61647 DB	'f', 00H, 'r', 00H, '-', 00H, 'f', 00H, 'r', 00H, 00H, 00H
$SG61648 DB	'f', 00H, 'r', 00H, '-', 00H, 'l', 00H, 'u', 00H, 00H, 00H
$SG61649 DB	'f', 00H, 'r', 00H, '-', 00H, 'm', 00H, 'c', 00H, 00H, 00H
$SG61650 DB	'g', 00H, 'l', 00H, 00H, 00H
	ORG $+2
$SG61651 DB	'g', 00H, 'l', 00H, '-', 00H, 'e', 00H, 's', 00H, 00H, 00H
$SG61652 DB	'g', 00H, 'u', 00H, 00H, 00H
	ORG $+2
$SG61653 DB	'g', 00H, 'u', 00H, '-', 00H, 'i', 00H, 'n', 00H, 00H, 00H
$SG61654 DB	'h', 00H, 'e', 00H, 00H, 00H
	ORG $+2
$SG61655 DB	'h', 00H, 'e', 00H, '-', 00H, 'i', 00H, 'l', 00H, 00H, 00H
$SG61656 DB	'h', 00H, 'i', 00H, 00H, 00H
	ORG $+2
$SG61657 DB	'h', 00H, 'i', 00H, '-', 00H, 'i', 00H, 'n', 00H, 00H, 00H
?IID_ITCPSocketService@@3U_GUID@@B DD 0f8a5c14H		; IID_ITCPSocketService
	DW	0ab92H
	DW	0467cH
	DB	0b6H
	DB	07bH
	DB	06dH
	DB	08aH
	DB	0cfH
	DB	064H
	DB	052H
	DB	0d7H
$SG61658 DB	'h', 00H, 'r', 00H, 00H, 00H
	ORG $+2
$SG61659 DB	'h', 00H, 'r', 00H, '-', 00H, 'b', 00H, 'a', 00H, 00H, 00H
$SG61660 DB	'h', 00H, 'r', 00H, '-', 00H, 'h', 00H, 'r', 00H, 00H, 00H
$SG61661 DB	'h', 00H, 'u', 00H, 00H, 00H
	ORG $+2
$SG61662 DB	'h', 00H, 'u', 00H, '-', 00H, 'h', 00H, 'u', 00H, 00H, 00H
$SG61663 DB	'h', 00H, 'y', 00H, 00H, 00H
	ORG $+2
$SG61664 DB	'h', 00H, 'y', 00H, '-', 00H, 'a', 00H, 'm', 00H, 00H, 00H
$SG61665 DB	'i', 00H, 'd', 00H, 00H, 00H
	ORG $+2
$SG61666 DB	'i', 00H, 'd', 00H, '-', 00H, 'i', 00H, 'd', 00H, 00H, 00H
$SG61667 DB	'i', 00H, 's', 00H, 00H, 00H
	ORG $+2
$SG61668 DB	'i', 00H, 's', 00H, '-', 00H, 'i', 00H, 's', 00H, 00H, 00H
$SG61669 DB	'i', 00H, 't', 00H, 00H, 00H
	ORG $+2
$SG61670 DB	'i', 00H, 't', 00H, '-', 00H, 'c', 00H, 'h', 00H, 00H, 00H
$SG61671 DB	'i', 00H, 't', 00H, '-', 00H, 'i', 00H, 't', 00H, 00H, 00H
$SG60647 DB	'a', 00H, 't', 00H, 'l', 00H, 'T', 00H, 'r', 00H, 'a', 00H
	DB	'c', 00H, 'e', 00H, 'S', 00H, 't', 00H, 'e', 00H, 'n', 00H, 'c'
	DB	00H, 'i', 00H, 'l', 00H, 00H, 00H
$SG61672 DB	'j', 00H, 'a', 00H, 00H, 00H
	ORG $+2
$SG61673 DB	'j', 00H, 'a', 00H, '-', 00H, 'j', 00H, 'p', 00H, 00H, 00H
$SG61674 DB	'k', 00H, 'a', 00H, 00H, 00H
	ORG $+2
$SG61675 DB	'k', 00H, 'a', 00H, '-', 00H, 'g', 00H, 'e', 00H, 00H, 00H
$SG61676 DB	'k', 00H, 'k', 00H, 00H, 00H
	ORG $+2
$SG61677 DB	'k', 00H, 'k', 00H, '-', 00H, 'k', 00H, 'z', 00H, 00H, 00H
$SG61678 DB	'k', 00H, 'n', 00H, 00H, 00H
	ORG $+2
$SG61679 DB	'k', 00H, 'n', 00H, '-', 00H, 'i', 00H, 'n', 00H, 00H, 00H
$SG61680 DB	'k', 00H, 'o', 00H, 00H, 00H
	ORG $+2
$SG61681 DB	'k', 00H, 'o', 00H, 'k', 00H, 00H, 00H
$SG61682 DB	'k', 00H, 'o', 00H, 'k', 00H, '-', 00H, 'i', 00H, 'n', 00H
	DB	00H, 00H
	ORG $+2
$SG61683 DB	'k', 00H, 'o', 00H, '-', 00H, 'k', 00H, 'r', 00H, 00H, 00H
$SG61684 DB	'k', 00H, 'y', 00H, 00H, 00H
	ORG $+2
$SG61685 DB	'k', 00H, 'y', 00H, '-', 00H, 'k', 00H, 'g', 00H, 00H, 00H
$SG61686 DB	'l', 00H, 't', 00H, 00H, 00H
	ORG $+2
$SG61687 DB	'l', 00H, 't', 00H, '-', 00H, 'l', 00H, 't', 00H, 00H, 00H
$SG61688 DB	'l', 00H, 'v', 00H, 00H, 00H
	ORG $+2
$SG61689 DB	'l', 00H, 'v', 00H, '-', 00H, 'l', 00H, 'v', 00H, 00H, 00H
$SG61690 DB	'm', 00H, 'i', 00H, '-', 00H, 'n', 00H, 'z', 00H, 00H, 00H
?IID_IWEBSocketService@@3U_GUID@@B DD 05502d590H	; IID_IWEBSocketService
	DW	0c446H
	DW	0440dH
	DB	0a1H
	DB	095H
	DB	03eH
	DB	0daH
	DB	011H
	DB	0f8H
	DB	0dH
	DB	064H
$SG61691 DB	'm', 00H, 'k', 00H, 00H, 00H
	ORG $+2
$SG61692 DB	'm', 00H, 'k', 00H, '-', 00H, 'm', 00H, 'k', 00H, 00H, 00H
$SG61693 DB	'm', 00H, 'l', 00H, '-', 00H, 'i', 00H, 'n', 00H, 00H, 00H
$SG61694 DB	'm', 00H, 'n', 00H, 00H, 00H
	ORG $+2
$SG61695 DB	'm', 00H, 'n', 00H, '-', 00H, 'm', 00H, 'n', 00H, 00H, 00H
$SG61696 DB	'm', 00H, 'r', 00H, 00H, 00H
	ORG $+2
$SG61697 DB	'm', 00H, 'r', 00H, '-', 00H, 'i', 00H, 'n', 00H, 00H, 00H
$SG61698 DB	'm', 00H, 's', 00H, 00H, 00H
	ORG $+2
$SG61699 DB	'm', 00H, 's', 00H, '-', 00H, 'b', 00H, 'n', 00H, 00H, 00H
$SG61700 DB	'm', 00H, 's', 00H, '-', 00H, 'm', 00H, 'y', 00H, 00H, 00H
$SG61701 DB	'm', 00H, 't', 00H, '-', 00H, 'm', 00H, 't', 00H, 00H, 00H
$SG61702 DB	'n', 00H, 'b', 00H, '-', 00H, 'n', 00H, 'o', 00H, 00H, 00H
$SG61703 DB	'n', 00H, 'l', 00H, 00H, 00H
	ORG $+2
$SG61704 DB	'n', 00H, 'l', 00H, '-', 00H, 'b', 00H, 'e', 00H, 00H, 00H
$SG61705 DB	'n', 00H, 'l', 00H, '-', 00H, 'n', 00H, 'l', 00H, 00H, 00H
$SG61706 DB	'n', 00H, 'n', 00H, '-', 00H, 'n', 00H, 'o', 00H, 00H, 00H
$SG61707 DB	'n', 00H, 'o', 00H, 00H, 00H
	ORG $+2
$SG61708 DB	'n', 00H, 's', 00H, '-', 00H, 'z', 00H, 'a', 00H, 00H, 00H
$SG61709 DB	'p', 00H, 'a', 00H, 00H, 00H
	ORG $+2
$SG61710 DB	'p', 00H, 'a', 00H, '-', 00H, 'i', 00H, 'n', 00H, 00H, 00H
$SG61711 DB	'p', 00H, 'l', 00H, 00H, 00H
	ORG $+2
$SG61712 DB	'p', 00H, 'l', 00H, '-', 00H, 'p', 00H, 'l', 00H, 00H, 00H
$SG61713 DB	'p', 00H, 't', 00H, 00H, 00H
	ORG $+2
$SG61714 DB	'p', 00H, 't', 00H, '-', 00H, 'b', 00H, 'r', 00H, 00H, 00H
$SG61715 DB	'p', 00H, 't', 00H, '-', 00H, 'p', 00H, 't', 00H, 00H, 00H
$SG61716 DB	'q', 00H, 'u', 00H, 'z', 00H, '-', 00H, 'b', 00H, 'o', 00H
	DB	00H, 00H
	ORG $+2
?IID_ITimerEngine@@3U_GUID@@B DD 0c90cfc81H		; IID_ITimerEngine
	DW	0ee01H
	DW	04654H
	DB	08cH
	DB	09aH
	DB	058H
	DB	0a9H
	DB	04bH
	DB	078H
	DB	076H
	DB	0b6H
$SG61717 DB	'q', 00H, 'u', 00H, 'z', 00H, '-', 00H, 'e', 00H, 'c', 00H
	DB	00H, 00H
	ORG $+2
$SG61718 DB	'q', 00H, 'u', 00H, 'z', 00H, '-', 00H, 'p', 00H, 'e', 00H
	DB	00H, 00H
	ORG $+2
$SG60694 DB	'a', 00H, 't', 00H, 'l', 00H, 'T', 00H, 'r', 00H, 'a', 00H
	DB	'c', 00H, 'e', 00H, 'S', 00H, 't', 00H, 'r', 00H, 'i', 00H, 'n'
	DB	00H, 'g', 00H, 00H, 00H
	ORG $+2
$SG61719 DB	'r', 00H, 'o', 00H, 00H, 00H
	ORG $+2
$SG61720 DB	'r', 00H, 'o', 00H, '-', 00H, 'r', 00H, 'o', 00H, 00H, 00H
$SG61721 DB	'r', 00H, 'u', 00H, 00H, 00H
	ORG $+2
$SG61722 DB	'r', 00H, 'u', 00H, '-', 00H, 'r', 00H, 'u', 00H, 00H, 00H
$SG61723 DB	's', 00H, 'a', 00H, 00H, 00H
	ORG $+2
$SG61724 DB	's', 00H, 'a', 00H, '-', 00H, 'i', 00H, 'n', 00H, 00H, 00H
$SG61725 DB	's', 00H, 'e', 00H, '-', 00H, 'f', 00H, 'i', 00H, 00H, 00H
$SG61726 DB	's', 00H, 'e', 00H, '-', 00H, 'n', 00H, 'o', 00H, 00H, 00H
$SG61727 DB	's', 00H, 'e', 00H, '-', 00H, 's', 00H, 'e', 00H, 00H, 00H
$SG61728 DB	's', 00H, 'k', 00H, 00H, 00H
	ORG $+2
$SG61729 DB	's', 00H, 'k', 00H, '-', 00H, 's', 00H, 'k', 00H, 00H, 00H
$SG61730 DB	's', 00H, 'l', 00H, 00H, 00H
	ORG $+2
$SG61731 DB	's', 00H, 'l', 00H, '-', 00H, 's', 00H, 'i', 00H, 00H, 00H
$SG61732 DB	's', 00H, 'm', 00H, 'a', 00H, '-', 00H, 'n', 00H, 'o', 00H
	DB	00H, 00H
	ORG $+2
$SG61733 DB	's', 00H, 'm', 00H, 'a', 00H, '-', 00H, 's', 00H, 'e', 00H
	DB	00H, 00H
	ORG $+2
$SG61734 DB	's', 00H, 'm', 00H, 'j', 00H, '-', 00H, 'n', 00H, 'o', 00H
	DB	00H, 00H
	ORG $+2
$SG61735 DB	's', 00H, 'm', 00H, 'j', 00H, '-', 00H, 's', 00H, 'e', 00H
	DB	00H, 00H
	ORG $+2
$SG61736 DB	's', 00H, 'm', 00H, 'n', 00H, '-', 00H, 'f', 00H, 'i', 00H
	DB	00H, 00H
	ORG $+2
$SG61737 DB	's', 00H, 'm', 00H, 's', 00H, '-', 00H, 'f', 00H, 'i', 00H
	DB	00H, 00H
	ORG $+2
$SG61738 DB	's', 00H, 'q', 00H, 00H, 00H
	ORG $+2
$SG61739 DB	's', 00H, 'q', 00H, '-', 00H, 'a', 00H, 'l', 00H, 00H, 00H
$SG61740 DB	's', 00H, 'r', 00H, 00H, 00H
	ORG $+2
$SG61741 DB	's', 00H, 'r', 00H, '-', 00H, 'b', 00H, 'a', 00H, '-', 00H
	DB	'c', 00H, 'y', 00H, 'r', 00H, 'l', 00H, 00H, 00H
	ORG $+2
$SG61742 DB	's', 00H, 'r', 00H, '-', 00H, 'b', 00H, 'a', 00H, '-', 00H
	DB	'l', 00H, 'a', 00H, 't', 00H, 'n', 00H, 00H, 00H
	ORG $+2
$SG61743 DB	's', 00H, 'r', 00H, '-', 00H, 's', 00H, 'p', 00H, '-', 00H
	DB	'c', 00H, 'y', 00H, 'r', 00H, 'l', 00H, 00H, 00H
	ORG $+2
$SG61744 DB	's', 00H, 'r', 00H, '-', 00H, 's', 00H, 'p', 00H, '-', 00H
	DB	'l', 00H, 'a', 00H, 't', 00H, 'n', 00H, 00H, 00H
	ORG $+2
$SG61745 DB	's', 00H, 'v', 00H, 00H, 00H
	ORG $+2
$SG61746 DB	's', 00H, 'v', 00H, '-', 00H, 'f', 00H, 'i', 00H, 00H, 00H
$SG61747 DB	's', 00H, 'v', 00H, '-', 00H, 's', 00H, 'e', 00H, 00H, 00H
?IID_IUnknownEx@@3U_GUID@@B DD 05feec21eH		; IID_IUnknownEx
	DW	0dbf3H
	DW	046f0H
	DB	09fH
	DB	057H
	DB	0d1H
	DB	0cdH
	DB	071H
	DB	01cH
	DB	046H
	DB	0deH
$SG61748 DB	's', 00H, 'w', 00H, 00H, 00H
	ORG $+2
$SG61749 DB	's', 00H, 'w', 00H, '-', 00H, 'k', 00H, 'e', 00H, 00H, 00H
$SG61750 DB	's', 00H, 'y', 00H, 'r', 00H, 00H, 00H
$SG61751 DB	's', 00H, 'y', 00H, 'r', 00H, '-', 00H, 's', 00H, 'y', 00H
	DB	00H, 00H
	ORG $+2
$SG61752 DB	't', 00H, 'a', 00H, 00H, 00H
	ORG $+2
$SG61753 DB	't', 00H, 'a', 00H, '-', 00H, 'i', 00H, 'n', 00H, 00H, 00H
$SG61754 DB	't', 00H, 'e', 00H, 00H, 00H
	ORG $+2
$SG61755 DB	't', 00H, 'e', 00H, '-', 00H, 'i', 00H, 'n', 00H, 00H, 00H
$SG61756 DB	't', 00H, 'h', 00H, 00H, 00H
	ORG $+2
$SG61757 DB	't', 00H, 'h', 00H, '-', 00H, 't', 00H, 'h', 00H, 00H, 00H
$SG61758 DB	't', 00H, 'n', 00H, '-', 00H, 'z', 00H, 'a', 00H, 00H, 00H
$SG61759 DB	't', 00H, 'r', 00H, 00H, 00H
	ORG $+2
?IID_ITableFrame@@3U_GUID@@B DD 02e577d5fH		; IID_ITableFrame
	DW	01e01H
	DW	044ffH
	DB	09fH
	DB	0f4H
	DB	01H
	DB	016H
	DB	023H
	DB	01bH
	DB	076H
	DB	015H
$SG61760 DB	't', 00H, 'r', 00H, '-', 00H, 't', 00H, 'r', 00H, 00H, 00H
$SG61761 DB	't', 00H, 't', 00H, 00H, 00H
	ORG $+2
$SG61762 DB	't', 00H, 't', 00H, '-', 00H, 'r', 00H, 'u', 00H, 00H, 00H
$SG61763 DB	'u', 00H, 'k', 00H, 00H, 00H
	ORG $+2
$SG61764 DB	'u', 00H, 'k', 00H, '-', 00H, 'u', 00H, 'a', 00H, 00H, 00H
$SG61765 DB	'u', 00H, 'r', 00H, 00H, 00H
	ORG $+2
$SG60741 DB	'a', 00H, 't', 00H, 'l', 00H, 'T', 00H, 'r', 00H, 'a', 00H
	DB	'c', 00H, 'e', 00H, 'M', 00H, 'a', 00H, 'p', 00H, 00H, 00H
$SG61766 DB	'u', 00H, 'r', 00H, '-', 00H, 'p', 00H, 'k', 00H, 00H, 00H
$SG61767 DB	'u', 00H, 'z', 00H, 00H, 00H
	ORG $+2
$SG61768 DB	'u', 00H, 'z', 00H, '-', 00H, 'u', 00H, 'z', 00H, '-', 00H
	DB	'c', 00H, 'y', 00H, 'r', 00H, 'l', 00H, 00H, 00H
	ORG $+2
$SG61769 DB	'u', 00H, 'z', 00H, '-', 00H, 'u', 00H, 'z', 00H, '-', 00H
	DB	'l', 00H, 'a', 00H, 't', 00H, 'n', 00H, 00H, 00H
	ORG $+2
$SG61770 DB	'v', 00H, 'i', 00H, 00H, 00H
	ORG $+2
$SG60746 DB	'a', 00H, 't', 00H, 'l', 00H, 'T', 00H, 'r', 00H, 'a', 00H
	DB	'c', 00H, 'e', 00H, 'U', 00H, 't', 00H, 'i', 00H, 'l', 00H, 00H
	DB	00H
	ORG $+2
$SG61771 DB	'v', 00H, 'i', 00H, '-', 00H, 'v', 00H, 'n', 00H, 00H, 00H
$SG313676 DB	0a9H, 's', 0b6H, '[:_', 00H, 090H, ':', 00H, 'w', 00H, 'c'
	DB	00H, 'h', 00H, 'a', 00H, 'i', 00H, 'r', 00H, '=', 00H, '%', 00H
	DB	'd', 00H, ',', 00H, 'c', 00H, 'b', 00H, 'r', 00H, 'e', 00H, 's'
	DB	00H, 'o', 00H, 'n', 00H, '=', 00H, '%', 00H, 'd', 00H, 00H, 00H
$SG61772 DB	'x', 00H, 'h', 00H, '-', 00H, 'z', 00H, 'a', 00H, 00H, 00H
$SG61773 DB	'z', 00H, 'h', 00H, '-', 00H, 'c', 00H, 'h', 00H, 's', 00H
	DB	00H, 00H
	ORG $+2
$SG61774 DB	'z', 00H, 'h', 00H, '-', 00H, 'c', 00H, 'h', 00H, 't', 00H
	DB	00H, 00H
	ORG $+2
$SG313679 DB	0e3H, 089H, 'ce', 00H, 00H
	ORG $+2
$SG61775 DB	'z', 00H, 'h', 00H, '-', 00H, 'c', 00H, 'n', 00H, 00H, 00H
$SG61776 DB	'z', 00H, 'h', 00H, '-', 00H, 'h', 00H, 'k', 00H, 00H, 00H
$SG61777 DB	'z', 00H, 'h', 00H, '-', 00H, 'm', 00H, 'o', 00H, 00H, 00H
$SG61778 DB	'z', 00H, 'h', 00H, '-', 00H, 's', 00H, 'g', 00H, 00H, 00H
$SG61779 DB	'z', 00H, 'h', 00H, '-', 00H, 't', 00H, 'w', 00H, 00H, 00H
$SG61780 DB	'z', 00H, 'u', 00H, '-', 00H, 'z', 00H, 'a', 00H, 00H, 00H
$SG60793 DB	'a', 00H, 't', 00H, 'l', 00H, 'T', 00H, 'r', 00H, 'a', 00H
	DB	'c', 00H, 'e', 00H, 'S', 00H, 'e', 00H, 'c', 00H, 'u', 00H, 'r'
	DB	00H, 'i', 00H, 't', 00H, 'y', 00H, 00H, 00H
	ORG $+2
$SG313730 DB	0a9H, 's', 0b6H, '[%', 00H, 'd', 00H, 0adH, 'e', 0bfH, '~'
	DB	0cdH, 091H, 0deH, 08fH, 00H, 00H
	ORG $+2
$SG313753 DB	0faH, 'QLr', 012H, 'P', 0a1H, 08bH, 0f6H, 'e', 0d3H, '~_g'
	DB	0cH, 0ffH, 'S_MR', 0a9H, 's', 0b6H, '[%', 00H, 'd', 00H, 00H, 00H
	ORG $+2
$SG313757 DB	0cdH, 'd\O', 012H, 'P', 0a1H, 08bH, 0f6H, 'e', 0d3H, '~_g'
	DB	0cH, 0ffH, 0a9H, 's', 0b6H, '[%', 00H, 'd', 00H, 00H, 00H
	ORG $+2
?IID_IAttemperEngine@@3U_GUID@@B DD 04d5d2424H		; IID_IAttemperEngine
	DW	040fdH
	DW	04747H
	DB	086H
	DB	0d8H
	DB	08fH
	DB	0caH
	DB	06bH
	DB	096H
	DB	0eaH
	DB	0bH
$SG60840 DB	'a', 00H, 't', 00H, 'l', 00H, 'T', 00H, 'r', 00H, 'a', 00H
	DB	'c', 00H, 'e', 00H, 'S', 00H, 'y', 00H, 'n', 00H, 'c', 00H, 00H
	DB	00H
	ORG $+2
$SG60887 DB	'a', 00H, 't', 00H, 'l', 00H, 'T', 00H, 'r', 00H, 'a', 00H
	DB	'c', 00H, 'e', 00H, 'I', 00H, 'S', 00H, 'A', 00H, 'P', 00H, 'I'
	DB	00H, 00H, 00H
$SG59871 DB	'a', 00H, 't', 00H, 'l', 00H, 'T', 00H, 'r', 00H, 'a', 00H
	DB	'c', 00H, 'e', 00H, 'G', 00H, 'e', 00H, 'n', 00H, 'e', 00H, 'r'
	DB	00H, 'a', 00H, 'l', 00H, 00H, 00H
$SG313878 DB	0faH, 'QLre', 00H, 'r', 00H, 'r', 00H, 'o', 00H, 'r', 00H
	DB	'1', 00H, 00H, 00H
	ORG $+2
$SG313835 DB	0a9H, 's', 0b6H, '[', 0dbH, 08fH, 'eQ:', 00H, 'c', 00H, 'h'
	DB	00H, 'a', 00H, 'i', 00H, 'r', 00H, '=', 00H, '%', 00H, 'd', 00H
	DB	',', 00H, 'u', 00H, 's', 00H, 'e', 00H, 'r', 00H, 'i', 00H, 'd'
	DB	00H, '=', 00H, '%', 00H, 'd', 00H, ',', 00H, 'n', 00H, 'a', 00H
	DB	'm', 00H, 'e', 00H, '=', 00H, '%', 00H, 's', 00H, 00H, 00H
$SG313853 DB	0a9H, 's', 0b6H, '[', 0bbH, 'y', 00H, '_:', 00H, 'c', 00H
	DB	'h', 00H, 'a', 00H, 'i', 00H, 'r', 00H, '=', 00H, '%', 00H, 'd'
	DB	00H, ',', 00H, 'u', 00H, 's', 00H, 'e', 00H, 'r', 00H, 'i', 00H
	DB	'd', 00H, '=', 00H, '%', 00H, 'd', 00H, ',', 00H, 'n', 00H, 'a'
	DB	00H, 'm', 00H, 'e', 00H, '=', 00H, '%', 00H, 's', 00H, 00H, 00H
$SG313876 DB	0a9H, 's', 0b6H, '[%', 00H, 'd', 00H, 0faH, 'QLr%', 00H, '0'
	DB	00H, 'x', 00H, ',', 00H, 'c', 00H, 'u', 00H, 'r', 00H, 'u', 00H
	DB	's', 00H, 'e', 00H, 'r', 00H, '=', 00H, '%', 00H, 'd', 00H, ','
	DB	00H, 's', 00H, 'y', 00H, 's', 00H, 'o', 00H, 'u', 00H, 't', 00H
	DB	'%', 00H, 'd', 00H, ',', 00H, 't', 00H, 'r', 00H, 'u', 00H, 's'
	DB	00H, 't', 00H, 'e', 00H, 'e', 00H, '%', 00H, 'd', 00H, 00H, 00H
$SG313881 DB	0faH, 'QLre', 00H, 'r', 00H, 'r', 00H, 'o', 00H, 'r', 00H
	DB	'2', 00H, 00H, 00H
	ORG $+2
$SG313884 DB	0faH, 'QLre', 00H, 'r', 00H, 'r', 00H, 'o', 00H, 'r', 00H
	DB	'3', 00H, 00H, 00H
	ORG $+2
$SG313887 DB	0faH, 'QLre', 00H, 'r', 00H, 'r', 00H, 'o', 00H, 'r', 00H
	DB	'4', 00H, 00H, 00H
	ORG $+2
$SG59942 DB	'a', 00H, 't', 00H, 'l', 00H, 'T', 00H, 'r', 00H, 'a', 00H
	DB	'c', 00H, 'e', 00H, 'C', 00H, 'O', 00H, 'M', 00H, 00H, 00H
?IID_ITableFrameSink@@3U_GUID@@B DD 09476b154H		; IID_ITableFrameSink
	DW	08bebH
	DW	04f7eH
	DB	0afH
	DB	064H
	DB	0d2H
	DB	0b1H
	DB	01aH
	DB	0daH
	DB	05eH
	DB	0c4H
$SG59989 DB	'a', 00H, 't', 00H, 'l', 00H, 'T', 00H, 'r', 00H, 'a', 00H
	DB	'c', 00H, 'e', 00H, 'Q', 00H, 'I', 00H, 00H, 00H
	ORG $+2
?IID_ITableUserAction@@3U_GUID@@B DD 0f9aa3f9H		; IID_ITableUserAction
	DW	0dba4H
	DW	049cbH
	DB	088H
	DB	04fH
	DB	0d9H
	DB	011H
	DB	0afH
	DB	024H
	DB	0fbH
	DB	08dH
$SG313985 DB	0abH, 088H, 0a8H, 'R', 0a8H, 'R\O ', 00H, 0a9H, 's', 0b6H
	DB	'[%', 00H, 'd', 00H, 'gbL', 088H, 0cdH, 'd\O%', 00H, 'd', 00H, 00H
	DB	00H
$SG60036 DB	'a', 00H, 't', 00H, 'l', 00H, 'T', 00H, 'r', 00H, 'a', 00H
	DB	'c', 00H, 'e', 00H, 'R', 00H, 'e', 00H, 'g', 00H, 'i', 00H, 's'
	DB	00H, 't', 00H, 'r', 00H, 'a', 00H, 'r', 00H, 00H, 00H
?IID_IFaceItemControl@@3U_GUID@@B DD 0fc9067a9H		; IID_IFaceItemControl
	DW	0162eH
	DW	04e13H
	DB	0b0H
	DB	01H
	DB	0f7H
	DB	057H
	DB	09eH
	DB	0a4H
	DB	060H
	DB	06bH
$SG60083 DB	'a', 00H, 't', 00H, 'l', 00H, 'T', 00H, 'r', 00H, 'a', 00H
	DB	'c', 00H, 'e', 00H, 'R', 00H, 'e', 00H, 'f', 00H, 'c', 00H, 'o'
	DB	00H, 'u', 00H, 'n', 00H, 't', 00H, 00H, 00H
	ORG $+2
$SG314038 DB	';N', 0a8H, 'R', 0a8H, 'R\O%', 00H, 'd', 00H, 0a9H, 's', 0b6H
	DB	'[%', 00H, 'd', 00H, '>e', 03H, '_', 00H, 00H
	ORG $+2
$SG82624 DB	'I', 00H, 'n', 00H, 'v', 00H, 'a', 00H, 'l', 00H, 'i', 00H
	DB	'd', 00H, ' ', 00H, 'D', 00H, 'a', 00H, 't', 00H, 'e', 00H, 'T'
	DB	00H, 'i', 00H, 'm', 00H, 'e', 00H, 00H, 00H
	ORG $+2
$SG82626 DB	'I', 00H, 'n', 00H, 'v', 00H, 'a', 00H, 'l', 00H, 'i', 00H
	DB	'd', 00H, ' ', 00H, 'D', 00H, 'a', 00H, 't', 00H, 'e', 00H, 'T'
	DB	00H, 'i', 00H, 'm', 00H, 'e', 00H, 'S', 00H, 'p', 00H, 'a', 00H
	DB	'n', 00H, 00H, 00H
	ORG $+2
?IID_IFaceSelectControl@@3U_GUID@@B DD 08514020bH	; IID_IFaceSelectControl
	DW	082a2H
	DW	042d9H
	DB	090H
	DB	019H
	DB	032H
	DB	0a4H
	DB	0eaH
	DB	0ceH
	DB	09fH
	DB	075H
$SG60130 DB	'a', 00H, 't', 00H, 'l', 00H, 'T', 00H, 'r', 00H, 'a', 00H
	DB	'c', 00H, 'e', 00H, 'W', 00H, 'i', 00H, 'n', 00H, 'd', 00H, 'o'
	DB	00H, 'w', 00H, 'i', 00H, 'n', 00H, 'g', 00H, 00H, 00H
$SG314091 DB	0a9H, 's', 0b6H, '[%', 00H, 'd', 00H, 'Xb', 0a1H, '{', 00H
	DB	00H
	ORG $+2
$SG314092 DB	0a9H, 's', 0b6H, '[%', 00H, 'd', 00H, 0d6H, 'S', 088H, 'm'
	DB	'Xb', 0a1H, '{', 00H, 00H
	ORG $+2
?IID_ICustomFaceManager@@3U_GUID@@B DD 0bcd7ff05H	; IID_ICustomFaceManager
	DW	0a79H
	DW	04482H
	DB	09bH
	DB	0a6H
	DB	079H
	DB	0dfH
	DB	04bH
	DB	0d9H
	DB	080H
	DB	016H
$SG60177 DB	'a', 00H, 't', 00H, 'l', 00H, 'T', 00H, 'r', 00H, 'a', 00H
	DB	'c', 00H, 'e', 00H, 'C', 00H, 'o', 00H, 'n', 00H, 't', 00H, 'r'
	DB	00H, 'o', 00H, 'l', 00H, 's', 00H, 00H, 00H
	ORG $+2
$SG314131 DB	0a9H, 's', 0b6H, '[%', 00H, 'd', 00H, 0efH, 'S', 0a8H, 'R'
	DB	'\O%', 00H, 'd', 00H, 00H, 00H
$SG110357 DB	'A', 00H, 'p', 00H, 'p', 00H, 'I', 00H, 'D', 00H, 00H, 00H
$SG110358 DB	'C', 00H, 'L', 00H, 'S', 00H, 'I', 00H, 'D', 00H, 00H, 00H
$SG110359 DB	'C', 00H, 'o', 00H, 'm', 00H, 'p', 00H, 'o', 00H, 'n', 00H
	DB	'e', 00H, 'n', 00H, 't', 00H, ' ', 00H, 'C', 00H, 'a', 00H, 't'
	DB	00H, 'e', 00H, 'g', 00H, 'o', 00H, 'r', 00H, 'i', 00H, 'e', 00H
	DB	's', 00H, 00H, 00H
	ORG $+2
$SG110360 DB	'F', 00H, 'i', 00H, 'l', 00H, 'e', 00H, 'T', 00H, 'y', 00H
	DB	'p', 00H, 'e', 00H, 00H, 00H
	ORG $+2
$SG110361 DB	'I', 00H, 'n', 00H, 't', 00H, 'e', 00H, 'r', 00H, 'f', 00H
	DB	'a', 00H, 'c', 00H, 'e', 00H, 00H, 00H
$SG110362 DB	'H', 00H, 'a', 00H, 'r', 00H, 'd', 00H, 'w', 00H, 'a', 00H
	DB	'r', 00H, 'e', 00H, 00H, 00H
	ORG $+2
$SG110363 DB	'M', 00H, 'i', 00H, 'm', 00H, 'e', 00H, 00H, 00H
	ORG $+2
$SG110364 DB	'S', 00H, 'A', 00H, 'M', 00H, 00H, 00H
$SG110365 DB	'S', 00H, 'E', 00H, 'C', 00H, 'U', 00H, 'R', 00H, 'I', 00H
	DB	'T', 00H, 'Y', 00H, 00H, 00H
	ORG $+2
$SG110366 DB	'S', 00H, 'Y', 00H, 'S', 00H, 'T', 00H, 'E', 00H, 'M', 00H
	DB	00H, 00H
	ORG $+2
$SG110367 DB	'S', 00H, 'o', 00H, 'f', 00H, 't', 00H, 'w', 00H, 'a', 00H
	DB	'r', 00H, 'e', 00H, 00H, 00H
	ORG $+2
$SG110368 DB	'T', 00H, 'y', 00H, 'p', 00H, 'e', 00H, 'L', 00H, 'i', 00H
	DB	'b', 00H, 00H, 00H
$SG60224 DB	'a', 00H, 't', 00H, 'l', 00H, 'T', 00H, 'r', 00H, 'a', 00H
	DB	'c', 00H, 'e', 00H, 'H', 00H, 'o', 00H, 's', 00H, 't', 00H, 'i'
	DB	00H, 'n', 00H, 'g', 00H, 00H, 00H
?IID_ITCPSocket@@3U_GUID@@B DD 0a870d592H		; IID_ITCPSocket
	DW	0447aH
	DW	040bdH
	DB	0aeH
	DB	04eH
	DB	05eH
	DB	064H
	DB	0deH
	DB	0ceH
	DB	022H
	DB	0edH
?IID_IPlazaUserManager@@3U_GUID@@B DD 0a2992ab9H	; IID_IPlazaUserManager
	DW	02fddH
	DW	04f9fH
	DB	0bbH
	DB	0acH
	DB	0cfH
	DB	08bH
	DB	060H
	DB	070H
	DB	080H
	DB	0cdH
$SG314205 DB	'R', 083H, 084H, '^', 00H, 00H
	ORG $+2
$SG60271 DB	'a', 00H, 't', 00H, 'l', 00H, 'T', 00H, 'r', 00H, 'a', 00H
	DB	'c', 00H, 'e', 00H, 'D', 00H, 'B', 00H, 'C', 00H, 'l', 00H, 'i'
	DB	00H, 'e', 00H, 'n', 00H, 't', 00H, 00H, 00H
	ORG $+2
?IID_IAndroidUserItemSink@@3U_GUID@@B DD 0967632cH	; IID_IAndroidUserItemSink
	DW	093daH
	DW	04f7fH
	DB	098H
	DB	0e4H
	DB	06fH
	DB	09fH
	DB	0f2H
	DB	0caH
	DB	07bH
	DB	0c4H
?IID_IGameUserManager@@3U_GUID@@B DD 0b0e334b9H		; IID_IGameUserManager
	DW	0f693H
	DW	04c5fH
	DB	087H
	DB	0fH
	DB	066H
	DB	077H
	DB	0aH
	DB	0b9H
	DB	093H
	DB	0b2H
?IID_IUDPSocket@@3U_GUID@@B DD 011e344d0H		; IID_IUDPSocket
	DW	0ace1H
	DW	04a72H
	DB	0abH
	DB	0acH
	DB	06fH
	DB	031H
	DB	013H
	DB	0bfH
	DB	0c9H
	DB	023H
$SG61324 DB	'a', 00H, 'r', 00H, 00H, 00H
	ORG $+2
$SG61325 DB	'b', 00H, 'g', 00H, 00H, 00H
	ORG $+2
$SG61326 DB	'c', 00H, 'a', 00H, 00H, 00H
	ORG $+2
$SG61327 DB	'z', 00H, 'h', 00H, '-', 00H, 'C', 00H, 'H', 00H, 'S', 00H
	DB	00H, 00H
	ORG $+2
$SG61328 DB	'c', 00H, 's', 00H, 00H, 00H
	ORG $+2
$SG61329 DB	'd', 00H, 'a', 00H, 00H, 00H
	ORG $+2
$SG61330 DB	'd', 00H, 'e', 00H, 00H, 00H
	ORG $+2
$SG61331 DB	'e', 00H, 'l', 00H, 00H, 00H
	ORG $+2
$SG61332 DB	'e', 00H, 'n', 00H, 00H, 00H
	ORG $+2
$SG61333 DB	'e', 00H, 's', 00H, 00H, 00H
	ORG $+2
$SG61334 DB	'f', 00H, 'i', 00H, 00H, 00H
	ORG $+2
$SG61335 DB	'f', 00H, 'r', 00H, 00H, 00H
	ORG $+2
$SG61336 DB	'h', 00H, 'e', 00H, 00H, 00H
	ORG $+2
$SG61337 DB	'h', 00H, 'u', 00H, 00H, 00H
	ORG $+2
$SG61338 DB	'i', 00H, 's', 00H, 00H, 00H
	ORG $+2
$SG61339 DB	'i', 00H, 't', 00H, 00H, 00H
	ORG $+2
$SG61340 DB	'j', 00H, 'a', 00H, 00H, 00H
	ORG $+2
$SG61341 DB	'k', 00H, 'o', 00H, 00H, 00H
	ORG $+2
$SG61342 DB	'n', 00H, 'l', 00H, 00H, 00H
	ORG $+2
$SG60318 DB	'a', 00H, 't', 00H, 'l', 00H, 'T', 00H, 'r', 00H, 'a', 00H
	DB	'c', 00H, 'e', 00H, 'D', 00H, 'B', 00H, 'P', 00H, 'r', 00H, 'o'
	DB	00H, 'v', 00H, 'i', 00H, 'd', 00H, 'e', 00H, 'r', 00H, 00H, 00H
	ORG $+2
$SG61343 DB	'n', 00H, 'o', 00H, 00H, 00H
	ORG $+2
$SG61344 DB	'p', 00H, 'l', 00H, 00H, 00H
	ORG $+2
$SG61345 DB	'p', 00H, 't', 00H, 00H, 00H
	ORG $+2
$SG61346 DB	'r', 00H, 'o', 00H, 00H, 00H
	ORG $+2
$SG61347 DB	'r', 00H, 'u', 00H, 00H, 00H
	ORG $+2
$SG61348 DB	'h', 00H, 'r', 00H, 00H, 00H
	ORG $+2
$SG61349 DB	's', 00H, 'k', 00H, 00H, 00H
	ORG $+2
$SG61350 DB	's', 00H, 'q', 00H, 00H, 00H
	ORG $+2
$SG61351 DB	's', 00H, 'v', 00H, 00H, 00H
	ORG $+2
$SG61352 DB	't', 00H, 'h', 00H, 00H, 00H
	ORG $+2
$SG61353 DB	't', 00H, 'r', 00H, 00H, 00H
	ORG $+2
$SG61354 DB	'u', 00H, 'r', 00H, 00H, 00H
	ORG $+2
$SG61355 DB	'i', 00H, 'd', 00H, 00H, 00H
	ORG $+2
$SG61356 DB	'u', 00H, 'k', 00H, 00H, 00H
	ORG $+2
$SG61357 DB	'b', 00H, 'e', 00H, 00H, 00H
	ORG $+2
$SG61358 DB	's', 00H, 'l', 00H, 00H, 00H
	ORG $+2
$SG61359 DB	'e', 00H, 't', 00H, 00H, 00H
	ORG $+2
$SG61360 DB	'l', 00H, 'v', 00H, 00H, 00H
	ORG $+2
?IID_IGameLevelParser@@3U_GUID@@B DD 012823198H		; IID_IGameLevelParser
	DW	027b6H
	DW	046c5H
	DB	09cH
	DB	02cH
	DB	09cH
	DB	037H
	DB	08H
	DB	058H
	DB	0bfH
	DB	0faH
$SG61361 DB	'l', 00H, 't', 00H, 00H, 00H
	ORG $+2
$SG61362 DB	'f', 00H, 'a', 00H, 00H, 00H
	ORG $+2
$SG61363 DB	'v', 00H, 'i', 00H, 00H, 00H
	ORG $+2
$SG61364 DB	'h', 00H, 'y', 00H, 00H, 00H
	ORG $+2
$SG61365 DB	'a', 00H, 'z', 00H, 00H, 00H
	ORG $+2
$SG61366 DB	'e', 00H, 'u', 00H, 00H, 00H
	ORG $+2
?IID_ITraceServiceManager@@3U_GUID@@B DD 06d14efe6H	; IID_ITraceServiceManager
	DW	0892aH
	DW	04a48H
	DB	092H
	DB	0c9H
	DB	0dbH
	DB	0eaH
	DB	092H
	DB	0ddH
	DB	0d5H
	DB	013H
$SG61367 DB	'm', 00H, 'k', 00H, 00H, 00H
	ORG $+2
?IID_IGameServiceManager@@3U_GUID@@B DD 0a975ccebH	; IID_IGameServiceManager
	DW	0331H
	DW	04553H
	DB	0a1H
	DB	0e0H
	DB	0a7H
	DB	0c7H
	DB	07aH
	DB	07cH
	DB	04eH
	DB	0fdH
$SG61368 DB	'a', 00H, 'f', 00H, 00H, 00H
	ORG $+2
$SG61369 DB	'k', 00H, 'a', 00H, 00H, 00H
	ORG $+2
$SG61370 DB	'f', 00H, 'o', 00H, 00H, 00H
	ORG $+2
$SG61371 DB	'h', 00H, 'i', 00H, 00H, 00H
	ORG $+2
$SG61372 DB	'm', 00H, 's', 00H, 00H, 00H
	ORG $+2
$SG61373 DB	'k', 00H, 'k', 00H, 00H, 00H
	ORG $+2
$SG61374 DB	'k', 00H, 'y', 00H, 00H, 00H
	ORG $+2
$SG61375 DB	's', 00H, 'w', 00H, 00H, 00H
	ORG $+2
$SG61376 DB	'u', 00H, 'z', 00H, 00H, 00H
	ORG $+2
?IID_IWHNetwork@@3U_GUID@@B DD 0e500997bH		; IID_IWHNetwork
	DW	0e45eH
	DW	0474eH
	DB	08aH
	DB	0d4H
	DB	0bcH
	DB	0f3H
	DB	04dH
	DB	089H
	DB	045H
	DB	041H
$SG61377 DB	't', 00H, 't', 00H, 00H, 00H
	ORG $+2
$SG61378 DB	'p', 00H, 'a', 00H, 00H, 00H
	ORG $+2
$SG61379 DB	'g', 00H, 'u', 00H, 00H, 00H
	ORG $+2
$SG61380 DB	't', 00H, 'a', 00H, 00H, 00H
	ORG $+2
$SG61381 DB	't', 00H, 'e', 00H, 00H, 00H
	ORG $+2
$SG61382 DB	'k', 00H, 'n', 00H, 00H, 00H
	ORG $+2
$SG61383 DB	'm', 00H, 'r', 00H, 00H, 00H
	ORG $+2
$SG313288 DB	'S', 00H, 'p', 00H, 'a', 00H, 'r', 00H, 'r', 00H, 'o', 00H
	DB	'w', 00H, 'H', 00H, 'Z', 00H, 'H', 00H, 'G', 00H, 'a', 00H, 'm'
	DB	00H, 'e', 00H, 'V', 00H, 'i', 00H, 'd', 00H, 'e', 00H, 'o', 00H
	DB	'.', 00H, 'd', 00H, 'l', 00H, 'l', 00H, 00H, 00H
$SG61384 DB	's', 00H, 'a', 00H, 00H, 00H
	ORG $+2
$SG61385 DB	'm', 00H, 'n', 00H, 00H, 00H
	ORG $+2
$SG313290 DB	'CreateGameVideo', 00H
$SG61386 DB	'g', 00H, 'l', 00H, 00H, 00H
	ORG $+2
$SG61387 DB	'k', 00H, 'o', 00H, 'k', 00H, 00H, 00H
$SG61388 DB	's', 00H, 'y', 00H, 'r', 00H, 00H, 00H
$SG61389 DB	'd', 00H, 'i', 00H, 'v', 00H, 00H, 00H
$SG60365 DB	'a', 00H, 't', 00H, 'l', 00H, 'T', 00H, 'r', 00H, 'a', 00H
	DB	'c', 00H, 'e', 00H, 'S', 00H, 'n', 00H, 'a', 00H, 'p', 00H, 'i'
	DB	00H, 'n', 00H, 00H, 00H
	ORG $+2
$SG61390 DB	00H, 00H
	ORG $+2
$SG61391 DB	'a', 00H, 'r', 00H, '-', 00H, 'S', 00H, 'A', 00H, 00H, 00H
?IID_IUserOrderParser@@3U_GUID@@B DD 0eff89495H		; IID_IUserOrderParser
	DW	0e9daH
	DW	04ea3H
	DB	083H
	DB	064H
	DB	0aaH
	DB	0b2H
	DB	0afH
	DB	07fH
	DB	03H
	DB	0ceH
$SG61392 DB	'b', 00H, 'g', 00H, '-', 00H, 'B', 00H, 'G', 00H, 00H, 00H
$SG61393 DB	'c', 00H, 'a', 00H, '-', 00H, 'E', 00H, 'S', 00H, 00H, 00H
$SG61394 DB	'z', 00H, 'h', 00H, '-', 00H, 'T', 00H, 'W', 00H, 00H, 00H
$SG61395 DB	'c', 00H, 's', 00H, '-', 00H, 'C', 00H, 'Z', 00H, 00H, 00H
$SG61396 DB	'd', 00H, 'a', 00H, '-', 00H, 'D', 00H, 'K', 00H, 00H, 00H
$SG61397 DB	'd', 00H, 'e', 00H, '-', 00H, 'D', 00H, 'E', 00H, 00H, 00H
$SG61398 DB	'e', 00H, 'l', 00H, '-', 00H, 'G', 00H, 'R', 00H, 00H, 00H
$SG61399 DB	'e', 00H, 'n', 00H, '-', 00H, 'U', 00H, 'S', 00H, 00H, 00H
$SG61400 DB	'f', 00H, 'i', 00H, '-', 00H, 'F', 00H, 'I', 00H, 00H, 00H
$SG61401 DB	'f', 00H, 'r', 00H, '-', 00H, 'F', 00H, 'R', 00H, 00H, 00H
$SG61402 DB	'h', 00H, 'e', 00H, '-', 00H, 'I', 00H, 'L', 00H, 00H, 00H
$SG61403 DB	'h', 00H, 'u', 00H, '-', 00H, 'H', 00H, 'U', 00H, 00H, 00H
$SG61404 DB	'i', 00H, 's', 00H, '-', 00H, 'I', 00H, 'S', 00H, 00H, 00H
$SG61405 DB	'i', 00H, 't', 00H, '-', 00H, 'I', 00H, 'T', 00H, 00H, 00H
$SG61406 DB	'j', 00H, 'a', 00H, '-', 00H, 'J', 00H, 'P', 00H, 00H, 00H
$SG61407 DB	'k', 00H, 'o', 00H, '-', 00H, 'K', 00H, 'R', 00H, 00H, 00H
$SG61408 DB	'n', 00H, 'l', 00H, '-', 00H, 'N', 00H, 'L', 00H, 00H, 00H
$SG61409 DB	'n', 00H, 'b', 00H, '-', 00H, 'N', 00H, 'O', 00H, 00H, 00H
?IID_IAsynchronismEngine@@3U_GUID@@B DD 0e03ad33dH	; IID_IAsynchronismEngine
	DW	0b285H
	DW	048eaH
	DB	086H
	DB	070H
	DB	0aH
	DB	095H
	DB	055H
	DB	092H
	DB	07H
	DB	0e1H
$SG61410 DB	'p', 00H, 'l', 00H, '-', 00H, 'P', 00H, 'L', 00H, 00H, 00H
$SG61411 DB	'p', 00H, 't', 00H, '-', 00H, 'B', 00H, 'R', 00H, 00H, 00H
$SG61412 DB	'r', 00H, 'o', 00H, '-', 00H, 'R', 00H, 'O', 00H, 00H, 00H
$SG61413 DB	'r', 00H, 'u', 00H, '-', 00H, 'R', 00H, 'U', 00H, 00H, 00H
$SG61414 DB	'h', 00H, 'r', 00H, '-', 00H, 'H', 00H, 'R', 00H, 00H, 00H
$SG61415 DB	's', 00H, 'k', 00H, '-', 00H, 'S', 00H, 'K', 00H, 00H, 00H
$SG61416 DB	's', 00H, 'q', 00H, '-', 00H, 'A', 00H, 'L', 00H, 00H, 00H
$SG61417 DB	's', 00H, 'v', 00H, '-', 00H, 'S', 00H, 'E', 00H, 00H, 00H
$SG61418 DB	't', 00H, 'h', 00H, '-', 00H, 'T', 00H, 'H', 00H, 00H, 00H
$SG61419 DB	't', 00H, 'r', 00H, '-', 00H, 'T', 00H, 'R', 00H, 00H, 00H
$SG61420 DB	'u', 00H, 'r', 00H, '-', 00H, 'P', 00H, 'K', 00H, 00H, 00H
$SG61421 DB	'i', 00H, 'd', 00H, '-', 00H, 'I', 00H, 'D', 00H, 00H, 00H
$SG61422 DB	'u', 00H, 'k', 00H, '-', 00H, 'U', 00H, 'A', 00H, 00H, 00H
$SG61423 DB	'b', 00H, 'e', 00H, '-', 00H, 'B', 00H, 'Y', 00H, 00H, 00H
$SG61424 DB	's', 00H, 'l', 00H, '-', 00H, 'S', 00H, 'I', 00H, 00H, 00H
$SG61425 DB	'e', 00H, 't', 00H, '-', 00H, 'E', 00H, 'E', 00H, 00H, 00H
$SG61426 DB	'l', 00H, 'v', 00H, '-', 00H, 'L', 00H, 'V', 00H, 00H, 00H
$SG61427 DB	'l', 00H, 't', 00H, '-', 00H, 'L', 00H, 'T', 00H, 00H, 00H
$SG61428 DB	'f', 00H, 'a', 00H, '-', 00H, 'I', 00H, 'R', 00H, 00H, 00H
$SG61429 DB	'v', 00H, 'i', 00H, '-', 00H, 'V', 00H, 'N', 00H, 00H, 00H
$SG61430 DB	'h', 00H, 'y', 00H, '-', 00H, 'A', 00H, 'M', 00H, 00H, 00H
$SG61431 DB	'a', 00H, 'z', 00H, '-', 00H, 'A', 00H, 'Z', 00H, '-', 00H
	DB	'L', 00H, 'a', 00H, 't', 00H, 'n', 00H, 00H, 00H
	ORG $+2
$SG61432 DB	'e', 00H, 'u', 00H, '-', 00H, 'E', 00H, 'S', 00H, 00H, 00H
$SG61433 DB	'm', 00H, 'k', 00H, '-', 00H, 'M', 00H, 'K', 00H, 00H, 00H
$SG61434 DB	't', 00H, 'n', 00H, '-', 00H, 'Z', 00H, 'A', 00H, 00H, 00H
$SG61435 DB	'x', 00H, 'h', 00H, '-', 00H, 'Z', 00H, 'A', 00H, 00H, 00H
$SG61436 DB	'z', 00H, 'u', 00H, '-', 00H, 'Z', 00H, 'A', 00H, 00H, 00H
$SG60412 DB	'a', 00H, 't', 00H, 'l', 00H, 'T', 00H, 'r', 00H, 'a', 00H
	DB	'c', 00H, 'e', 00H, 'N', 00H, 'o', 00H, 't', 00H, 'I', 00H, 'm'
	DB	00H, 'p', 00H, 'l', 00H, 00H, 00H
$SG61437 DB	'a', 00H, 'f', 00H, '-', 00H, 'Z', 00H, 'A', 00H, 00H, 00H
$SG61438 DB	'k', 00H, 'a', 00H, '-', 00H, 'G', 00H, 'E', 00H, 00H, 00H
$SG61439 DB	'f', 00H, 'o', 00H, '-', 00H, 'F', 00H, 'O', 00H, 00H, 00H
CONST	ENDS
PUBLIC	??_H@YGXPAXIIP6EPAX0@Z@Z			; `vector constructor iterator'
PUBLIC	?__empty_global_delete@@YAXPAX@Z		; __empty_global_delete
PUBLIC	?__empty_global_delete@@YAXPAXI@Z		; __empty_global_delete
PUBLIC	??2@YAPAXIPAX@Z					; operator new
PUBLIC	_IsEqualGUID
PUBLIC	_==
PUBLIC	_HRESULT_FROM_WIN32
PUBLIC	??$AtlMultiply@I@ATL@@YAJPAIII@Z		; ATL::AtlMultiply<unsigned int>
PUBLIC	??$AtlMultiply@K@ATL@@YAJPAKKK@Z		; ATL::AtlMultiply<unsigned long>
PUBLIC	??$AtlAdd@K@ATL@@YAJPAKKK@Z			; ATL::AtlAdd<unsigned long>
PUBLIC	??0?$CTraceCategoryEx@$0IAAAA@$0A@@ATL@@QAE@PB_W@Z ; ATL::CTraceCategoryEx<524288,0>::CTraceCategoryEx<524288,0>
PUBLIC	??0?$CTraceCategoryEx@$00$0A@@ATL@@QAE@PB_W@Z	; ATL::CTraceCategoryEx<1,0>::CTraceCategoryEx<1,0>
PUBLIC	??0?$CTraceCategoryEx@$01$0A@@ATL@@QAE@PB_W@Z	; ATL::CTraceCategoryEx<2,0>::CTraceCategoryEx<2,0>
PUBLIC	??0?$CTraceCategoryEx@$03$0A@@ATL@@QAE@PB_W@Z	; ATL::CTraceCategoryEx<4,0>::CTraceCategoryEx<4,0>
PUBLIC	??0?$CTraceCategoryEx@$07$0A@@ATL@@QAE@PB_W@Z	; ATL::CTraceCategoryEx<8,0>::CTraceCategoryEx<8,0>
PUBLIC	??0?$CTraceCategoryEx@$0BA@$0A@@ATL@@QAE@PB_W@Z	; ATL::CTraceCategoryEx<16,0>::CTraceCategoryEx<16,0>
PUBLIC	??0?$CTraceCategoryEx@$0CA@$0A@@ATL@@QAE@PB_W@Z	; ATL::CTraceCategoryEx<32,0>::CTraceCategoryEx<32,0>
PUBLIC	??0?$CTraceCategoryEx@$0EA@$0A@@ATL@@QAE@PB_W@Z	; ATL::CTraceCategoryEx<64,0>::CTraceCategoryEx<64,0>
PUBLIC	??0?$CTraceCategoryEx@$0IA@$0A@@ATL@@QAE@PB_W@Z	; ATL::CTraceCategoryEx<128,0>::CTraceCategoryEx<128,0>
PUBLIC	??0?$CTraceCategoryEx@$0BAA@$0A@@ATL@@QAE@PB_W@Z ; ATL::CTraceCategoryEx<256,0>::CTraceCategoryEx<256,0>
PUBLIC	??0?$CTraceCategoryEx@$0CAA@$0A@@ATL@@QAE@PB_W@Z ; ATL::CTraceCategoryEx<512,0>::CTraceCategoryEx<512,0>
PUBLIC	??0?$CTraceCategoryEx@$0EAA@$0A@@ATL@@QAE@PB_W@Z ; ATL::CTraceCategoryEx<1024,0>::CTraceCategoryEx<1024,0>
PUBLIC	??0?$CTraceCategoryEx@$0IAA@$0A@@ATL@@QAE@PB_W@Z ; ATL::CTraceCategoryEx<2048,0>::CTraceCategoryEx<2048,0>
PUBLIC	??0?$CTraceCategoryEx@$0BAAA@$0A@@ATL@@QAE@PB_W@Z ; ATL::CTraceCategoryEx<4096,0>::CTraceCategoryEx<4096,0>
PUBLIC	??0?$CTraceCategoryEx@$0CAAA@$0A@@ATL@@QAE@PB_W@Z ; ATL::CTraceCategoryEx<8192,0>::CTraceCategoryEx<8192,0>
PUBLIC	??0?$CTraceCategoryEx@$0EAAA@$0A@@ATL@@QAE@PB_W@Z ; ATL::CTraceCategoryEx<16384,0>::CTraceCategoryEx<16384,0>
PUBLIC	??0?$CTraceCategoryEx@$0IAAA@$0A@@ATL@@QAE@PB_W@Z ; ATL::CTraceCategoryEx<32768,0>::CTraceCategoryEx<32768,0>
PUBLIC	??0?$CTraceCategoryEx@$0BAAAA@$0A@@ATL@@QAE@PB_W@Z ; ATL::CTraceCategoryEx<65536,0>::CTraceCategoryEx<65536,0>
PUBLIC	??0?$CTraceCategoryEx@$0CAAAA@$0A@@ATL@@QAE@PB_W@Z ; ATL::CTraceCategoryEx<131072,0>::CTraceCategoryEx<131072,0>
PUBLIC	??0?$CTraceCategoryEx@$0EAAAA@$0A@@ATL@@QAE@PB_W@Z ; ATL::CTraceCategoryEx<262144,0>::CTraceCategoryEx<262144,0>
PUBLIC	??0?$CTraceCategoryEx@$0BAAAAA@$0A@@ATL@@QAE@PB_W@Z ; ATL::CTraceCategoryEx<1048576,0>::CTraceCategoryEx<1048576,0>
PUBLIC	??0?$CTraceCategoryEx@$0CAAAAA@$0A@@ATL@@QAE@PB_W@Z ; ATL::CTraceCategoryEx<2097152,0>::CTraceCategoryEx<2097152,0>
PUBLIC	??0?$CTraceCategoryEx@$0EAAAAA@$0A@@ATL@@QAE@PB_W@Z ; ATL::CTraceCategoryEx<4194304,0>::CTraceCategoryEx<4194304,0>
PUBLIC	?_AtlRaiseException@ATL@@YAXKK@Z		; ATL::_AtlRaiseException
PUBLIC	?_AtlInitializeCriticalSectionEx@ATL@@YAHPAU_RTL_CRITICAL_SECTION@@KK@Z ; ATL::_AtlInitializeCriticalSectionEx
PUBLIC	??0CComCriticalSection@ATL@@QAE@XZ		; ATL::CComCriticalSection::CComCriticalSection
PUBLIC	??1CComCriticalSection@ATL@@QAE@XZ		; ATL::CComCriticalSection::~CComCriticalSection
PUBLIC	?Init@CComCriticalSection@ATL@@QAEJXZ		; ATL::CComCriticalSection::Init
PUBLIC	?Term@CComCriticalSection@ATL@@QAEJXZ		; ATL::CComCriticalSection::Term
PUBLIC	?GetModuleInstance@CAtlBaseModule@ATL@@QAEPAUHINSTANCE__@@XZ ; ATL::CAtlBaseModule::GetModuleInstance
PUBLIC	??0CWin32Heap@ATL@@QAE@PAX@Z			; ATL::CWin32Heap::CWin32Heap
PUBLIC	??1CWin32Heap@ATL@@UAE@XZ			; ATL::CWin32Heap::~CWin32Heap
PUBLIC	?Allocate@CWin32Heap@ATL@@UAEPAXI@Z		; ATL::CWin32Heap::Allocate
PUBLIC	?Free@CWin32Heap@ATL@@UAEXPAX@Z			; ATL::CWin32Heap::Free
PUBLIC	?Reallocate@CWin32Heap@ATL@@UAEPAXPAXI@Z	; ATL::CWin32Heap::Reallocate
PUBLIC	?GetSize@CWin32Heap@ATL@@UAEIPAX@Z		; ATL::CWin32Heap::GetSize
PUBLIC	??_GCWin32Heap@ATL@@UAEPAXI@Z			; ATL::CWin32Heap::`scalar deleting destructor'
PUBLIC	??$AtlAdd@I@ATL@@YAJPAIII@Z			; ATL::AtlAdd<unsigned int>
PUBLIC	??$AtlAdd@H@ATL@@YAJPAHHH@Z			; ATL::AtlAdd<int>
PUBLIC	?AddRef@CStringData@ATL@@QAEXXZ			; ATL::CStringData::AddRef
PUBLIC	??0CNilStringData@ATL@@QAE@XZ			; ATL::CNilStringData::CNilStringData
PUBLIC	?SetManager@CNilStringData@ATL@@QAEXPAUIAtlStringMgr@2@@Z ; ATL::CNilStringData::SetManager
PUBLIC	??0_ATL_COM_MODULE70@ATL@@QAE@XZ		; ATL::_ATL_COM_MODULE70::_ATL_COM_MODULE70
PUBLIC	??1_ATL_COM_MODULE70@ATL@@QAE@XZ		; ATL::_ATL_COM_MODULE70::~_ATL_COM_MODULE70
PUBLIC	??0?$CSimpleArray@GV?$CSimpleArrayEqualHelper@G@ATL@@@ATL@@QAE@XZ ; ATL::CSimpleArray<unsigned short,ATL::CSimpleArrayEqualHelper<unsigned short> >::CSimpleArray<unsigned short,ATL::CSimpleArrayEqualHelper<unsigned short> >
PUBLIC	??1?$CSimpleArray@GV?$CSimpleArrayEqualHelper@G@ATL@@@ATL@@QAE@XZ ; ATL::CSimpleArray<unsigned short,ATL::CSimpleArrayEqualHelper<unsigned short> >::~CSimpleArray<unsigned short,ATL::CSimpleArrayEqualHelper<unsigned short> >
PUBLIC	?GetSize@?$CSimpleArray@GV?$CSimpleArrayEqualHelper@G@ATL@@@ATL@@QBEHXZ ; ATL::CSimpleArray<unsigned short,ATL::CSimpleArrayEqualHelper<unsigned short> >::GetSize
PUBLIC	?RemoveAll@?$CSimpleArray@GV?$CSimpleArrayEqualHelper@G@ATL@@@ATL@@QAEXXZ ; ATL::CSimpleArray<unsigned short,ATL::CSimpleArrayEqualHelper<unsigned short> >::RemoveAll
PUBLIC	??A?$CSimpleArray@GV?$CSimpleArrayEqualHelper@G@ATL@@@ATL@@QAEAAGH@Z ; ATL::CSimpleArray<unsigned short,ATL::CSimpleArrayEqualHelper<unsigned short> >::operator[]
PUBLIC	??0_ATL_WIN_MODULE70@ATL@@QAE@XZ		; ATL::_ATL_WIN_MODULE70::_ATL_WIN_MODULE70
PUBLIC	??1_ATL_WIN_MODULE70@ATL@@QAE@XZ		; ATL::_ATL_WIN_MODULE70::~_ATL_WIN_MODULE70
PUBLIC	?AtlWinModuleInit@ATL@@YGJPAU_ATL_WIN_MODULE70@1@@Z ; ATL::AtlWinModuleInit
PUBLIC	?AtlWinModuleTerm@ATL@@YGJPAU_ATL_WIN_MODULE70@1@PAUHINSTANCE__@@@Z ; ATL::AtlWinModuleTerm
PUBLIC	??0CAtlComModule@ATL@@QAE@XZ			; ATL::CAtlComModule::CAtlComModule
PUBLIC	??1CAtlComModule@ATL@@QAE@XZ			; ATL::CAtlComModule::~CAtlComModule
PUBLIC	?Term@CAtlComModule@ATL@@QAEXXZ			; ATL::CAtlComModule::Term
PUBLIC	??0CAtlWinModule@ATL@@QAE@XZ			; ATL::CAtlWinModule::CAtlWinModule
PUBLIC	??1CAtlWinModule@ATL@@QAE@XZ			; ATL::CAtlWinModule::~CAtlWinModule
PUBLIC	?Term@CAtlWinModule@ATL@@QAEXXZ			; ATL::CAtlWinModule::Term
PUBLIC	??0CAtlStringMgr@ATL@@QAE@PAUIAtlMemMgr@1@@Z	; ATL::CAtlStringMgr::CAtlStringMgr
PUBLIC	??1CAtlStringMgr@ATL@@UAE@XZ			; ATL::CAtlStringMgr::~CAtlStringMgr
PUBLIC	?GetInstance@CAtlStringMgr@ATL@@SAPAUIAtlStringMgr@2@XZ ; ATL::CAtlStringMgr::GetInstance
PUBLIC	?Allocate@CAtlStringMgr@ATL@@UAEPAUCStringData@2@HH@Z ; ATL::CAtlStringMgr::Allocate
PUBLIC	?Free@CAtlStringMgr@ATL@@UAEXPAUCStringData@2@@Z ; ATL::CAtlStringMgr::Free
PUBLIC	?Reallocate@CAtlStringMgr@ATL@@UAEPAUCStringData@2@PAU32@HH@Z ; ATL::CAtlStringMgr::Reallocate
PUBLIC	?GetNilString@CAtlStringMgr@ATL@@UAEPAUCStringData@2@XZ ; ATL::CAtlStringMgr::GetNilString
PUBLIC	?Clone@CAtlStringMgr@ATL@@UAEPAUIAtlStringMgr@2@XZ ; ATL::CAtlStringMgr::Clone
PUBLIC	?StaticInitialize@CAtlStringMgr@ATL@@CA_NXZ	; ATL::CAtlStringMgr::StaticInitialize
PUBLIC	??_GCAtlStringMgr@ATL@@UAEPAXI@Z		; ATL::CAtlStringMgr::`scalar deleting destructor'
PUBLIC	??__FstrHeap@?1??GetInstance@CAtlStringMgr@ATL@@SAPAUIAtlStringMgr@2@XZ@YAXXZ ; `ATL::CAtlStringMgr::GetInstance'::`2'::`dynamic atexit destructor for 'strHeap''
PUBLIC	??__FstrMgr@?1??GetInstance@CAtlStringMgr@ATL@@SAPAUIAtlStringMgr@2@XZ@YAXXZ ; `ATL::CAtlStringMgr::GetInstance'::`2'::`dynamic atexit destructor for 'strMgr''
PUBLIC	??$AtlAlignUp@H@ATL@@YGHHK@Z			; ATL::AtlAlignUp<int>
PUBLIC	??0IUnknownEx@@QAE@XZ				; IUnknownEx::IUnknownEx
PUBLIC	?GetProductVer@@YAEK@Z				; GetProductVer
PUBLIC	?GetMainVer@@YAEK@Z				; GetMainVer
PUBLIC	?GetSubVer@@YAEK@Z				; GetSubVer
PUBLIC	?GetBuildVer@@YAEK@Z				; GetBuildVer
PUBLIC	?InterfaceVersionCompare@@YA_NKK@Z		; InterfaceVersionCompare
PUBLIC	?_Orphan_all@_Container_base0@std@@QAEXXZ	; std::_Container_base0::_Orphan_all
PUBLIC	?_Adopt@_Iterator_base0@std@@QAEXPBX@Z		; std::_Iterator_base0::_Adopt
PUBLIC	?_Allocate@std@@YAPAXII_N@Z			; std::_Allocate
PUBLIC	?_Deallocate@std@@YAXPAXII@Z			; std::_Deallocate
PUBLIC	??0ITableFrameSink@@QAE@XZ			; ITableFrameSink::ITableFrameSink
PUBLIC	??0ITableUserAction@@QAE@XZ			; ITableUserAction::ITableUserAction
PUBLIC	??0CDCCache@CImage@ATL@@QAE@XZ			; ATL::CImage::CDCCache::CDCCache
PUBLIC	??1CDCCache@CImage@ATL@@QAE@XZ			; ATL::CImage::CDCCache::~CDCCache
PUBLIC	??0CInitGDIPlus@CImage@ATL@@QAE@XZ		; ATL::CImage::CInitGDIPlus::CInitGDIPlus
PUBLIC	??1CInitGDIPlus@CImage@ATL@@QAE@XZ		; ATL::CImage::CInitGDIPlus::~CInitGDIPlus
PUBLIC	?ReleaseGDIPlus@CInitGDIPlus@CImage@ATL@@QAEXXZ	; ATL::CImage::CInitGDIPlus::ReleaseGDIPlus
PUBLIC	?GetInitGDIPlusInstance@CImage@ATL@@CAPAVCInitGDIPlus@12@XZ ; ATL::CImage::GetInitGDIPlusInstance
PUBLIC	?GetCDCCacheInstance@CImage@ATL@@CAPAVCDCCache@12@XZ ; ATL::CImage::GetCDCCacheInstance
PUBLIC	?CImageStaticInitialize@CImage@ATL@@CA_NXZ	; ATL::CImage::CImageStaticInitialize
PUBLIC	??__FgdiPlus@?1??GetInitGDIPlusInstance@CImage@ATL@@CAPAVCInitGDIPlus@12@XZ@YAXXZ ; `ATL::CImage::GetInitGDIPlusInstance'::`2'::`dynamic atexit destructor for 'gdiPlus''
PUBLIC	??__Fcache@?1??GetCDCCacheInstance@CImage@ATL@@CAPAVCDCCache@12@XZ@YAXXZ ; `ATL::CImage::GetCDCCacheInstance'::`2'::`dynamic atexit destructor for 'cache''
PUBLIC	?GetCardValue@CGameLogic@@QAEEE@Z		; CGameLogic::GetCardValue
PUBLIC	?GetCardColor@CGameLogic@@QAEEE@Z		; CGameLogic::GetCardColor
PUBLIC	?SetMagicIndex@CGameLogic@@QAEXE@Z		; CGameLogic::SetMagicIndex
PUBLIC	??0?$allocator@_J@std@@QAE@XZ			; std::allocator<__int64>::allocator<__int64>
PUBLIC	?deallocate@?$allocator@_J@std@@QAEXPA_JI@Z	; std::allocator<__int64>::deallocate
PUBLIC	?allocate@?$allocator@_J@std@@QAEPA_JI@Z	; std::allocator<__int64>::allocate
PUBLIC	?max_size@?$allocator@_J@std@@QBEIXZ		; std::allocator<__int64>::max_size
PUBLIC	?max_size@?$allocator_traits@V?$allocator@_J@std@@@std@@SAIABV?$allocator@_J@2@@Z ; std::allocator_traits<std::allocator<__int64> >::max_size
PUBLIC	??0?$_Wrap_alloc@V?$allocator@_J@std@@@std@@QAE@XZ ; std::_Wrap_alloc<std::allocator<__int64> >::_Wrap_alloc<std::allocator<__int64> >
PUBLIC	?allocate@?$_Wrap_alloc@V?$allocator@_J@std@@@std@@QAEPA_JI@Z ; std::_Wrap_alloc<std::allocator<__int64> >::allocate
PUBLIC	?deallocate@?$_Wrap_alloc@V?$allocator@_J@std@@@std@@QAEXPA_JI@Z ; std::_Wrap_alloc<std::allocator<__int64> >::deallocate
PUBLIC	?max_size@?$_Wrap_alloc@V?$allocator@_J@std@@@std@@QBEIU_Nil@2@@Z ; std::_Wrap_alloc<std::allocator<__int64> >::max_size
PUBLIC	??0?$_Vector_alloc@U?$_Vec_base_types@_JV?$allocator@_J@std@@@std@@@std@@QAE@XZ ; std::_Vector_alloc<std::_Vec_base_types<__int64,std::allocator<__int64> > >::_Vector_alloc<std::_Vec_base_types<__int64,std::allocator<__int64> > >
PUBLIC	?_Orphan_all@?$_Vector_alloc@U?$_Vec_base_types@_JV?$allocator@_J@std@@@std@@@std@@QAEXXZ ; std::_Vector_alloc<std::_Vec_base_types<__int64,std::allocator<__int64> > >::_Orphan_all
PUBLIC	?_Getal@?$_Vector_alloc@U?$_Vec_base_types@_JV?$allocator@_J@std@@@std@@@std@@QAEAAU?$_Wrap_alloc@V?$allocator@_J@std@@@2@XZ ; std::_Vector_alloc<std::_Vec_base_types<__int64,std::allocator<__int64> > >::_Getal
PUBLIC	?_Getal@?$_Vector_alloc@U?$_Vec_base_types@_JV?$allocator@_J@std@@@std@@@std@@QBEABU?$_Wrap_alloc@V?$allocator@_J@std@@@2@XZ ; std::_Vector_alloc<std::_Vec_base_types<__int64,std::allocator<__int64> > >::_Getal
PUBLIC	?_Get_data@?$_Vector_alloc@U?$_Vec_base_types@_JV?$allocator@_J@std@@@std@@@std@@QAEAAV?$_Vector_val@U?$_Simple_types@_J@std@@@2@XZ ; std::_Vector_alloc<std::_Vec_base_types<__int64,std::allocator<__int64> > >::_Get_data
PUBLIC	?_Get_data@?$_Vector_alloc@U?$_Vec_base_types@_JV?$allocator@_J@std@@@std@@@std@@QBEABV?$_Vector_val@U?$_Simple_types@_J@std@@@2@XZ ; std::_Vector_alloc<std::_Vec_base_types<__int64,std::allocator<__int64> > >::_Get_data
PUBLIC	?_Myfirst@?$_Vector_alloc@U?$_Vec_base_types@_JV?$allocator@_J@std@@@std@@@std@@QAEAAPA_JXZ ; std::_Vector_alloc<std::_Vec_base_types<__int64,std::allocator<__int64> > >::_Myfirst
PUBLIC	?_Myfirst@?$_Vector_alloc@U?$_Vec_base_types@_JV?$allocator@_J@std@@@std@@@std@@QBEABQA_JXZ ; std::_Vector_alloc<std::_Vec_base_types<__int64,std::allocator<__int64> > >::_Myfirst
PUBLIC	?_Mylast@?$_Vector_alloc@U?$_Vec_base_types@_JV?$allocator@_J@std@@@std@@@std@@QAEAAPA_JXZ ; std::_Vector_alloc<std::_Vec_base_types<__int64,std::allocator<__int64> > >::_Mylast
PUBLIC	?_Mylast@?$_Vector_alloc@U?$_Vec_base_types@_JV?$allocator@_J@std@@@std@@@std@@QBEABQA_JXZ ; std::_Vector_alloc<std::_Vec_base_types<__int64,std::allocator<__int64> > >::_Mylast
PUBLIC	?_Myend@?$_Vector_alloc@U?$_Vec_base_types@_JV?$allocator@_J@std@@@std@@@std@@QAEAAPA_JXZ ; std::_Vector_alloc<std::_Vec_base_types<__int64,std::allocator<__int64> > >::_Myend
PUBLIC	?_Myend@?$_Vector_alloc@U?$_Vec_base_types@_JV?$allocator@_J@std@@@std@@@std@@QBEABQA_JXZ ; std::_Vector_alloc<std::_Vec_base_types<__int64,std::allocator<__int64> > >::_Myend
PUBLIC	??0?$_Vector_val@U?$_Simple_types@_J@std@@@std@@QAE@XZ ; std::_Vector_val<std::_Simple_types<__int64> >::_Vector_val<std::_Simple_types<__int64> >
PUBLIC	?_Get_first@?$_Compressed_pair@U?$_Wrap_alloc@V?$allocator@_J@std@@@std@@V?$_Vector_val@U?$_Simple_types@_J@std@@@2@$00@std@@QAEAAU?$_Wrap_alloc@V?$allocator@_J@std@@@2@XZ ; std::_Compressed_pair<std::_Wrap_alloc<std::allocator<__int64> >,std::_Vector_val<std::_Simple_types<__int64> >,1>::_Get_first
PUBLIC	?_Get_first@?$_Compressed_pair@U?$_Wrap_alloc@V?$allocator@_J@std@@@std@@V?$_Vector_val@U?$_Simple_types@_J@std@@@2@$00@std@@QBEABU?$_Wrap_alloc@V?$allocator@_J@std@@@2@XZ ; std::_Compressed_pair<std::_Wrap_alloc<std::allocator<__int64> >,std::_Vector_val<std::_Simple_types<__int64> >,1>::_Get_first
PUBLIC	?_Get_second@?$_Compressed_pair@U?$_Wrap_alloc@V?$allocator@_J@std@@@std@@V?$_Vector_val@U?$_Simple_types@_J@std@@@2@$00@std@@QAEAAV?$_Vector_val@U?$_Simple_types@_J@std@@@2@XZ ; std::_Compressed_pair<std::_Wrap_alloc<std::allocator<__int64> >,std::_Vector_val<std::_Simple_types<__int64> >,1>::_Get_second
PUBLIC	?_Get_second@?$_Compressed_pair@U?$_Wrap_alloc@V?$allocator@_J@std@@@std@@V?$_Vector_val@U?$_Simple_types@_J@std@@@2@$00@std@@QBEABV?$_Vector_val@U?$_Simple_types@_J@std@@@2@XZ ; std::_Compressed_pair<std::_Wrap_alloc<std::allocator<__int64> >,std::_Vector_val<std::_Simple_types<__int64> >,1>::_Get_second
PUBLIC	??0?$vector@_JV?$allocator@_J@std@@@std@@QAE@XZ	; std::vector<__int64,std::allocator<__int64> >::vector<__int64,std::allocator<__int64> >
PUBLIC	??1?$vector@_JV?$allocator@_J@std@@@std@@QAE@XZ	; std::vector<__int64,std::allocator<__int64> >::~vector<__int64,std::allocator<__int64> >
PUBLIC	?capacity@?$vector@_JV?$allocator@_J@std@@@std@@QBEIXZ ; std::vector<__int64,std::allocator<__int64> >::capacity
PUBLIC	?_Unused_capacity@?$vector@_JV?$allocator@_J@std@@@std@@QBEIXZ ; std::vector<__int64,std::allocator<__int64> >::_Unused_capacity
PUBLIC	?begin@?$vector@_JV?$allocator@_J@std@@@std@@QAE?AV?$_Vector_iterator@V?$_Vector_val@U?$_Simple_types@_J@std@@@std@@@2@XZ ; std::vector<__int64,std::allocator<__int64> >::begin
PUBLIC	?_Make_iter@?$vector@_JV?$allocator@_J@std@@@std@@QBE?AV?$_Vector_iterator@V?$_Vector_val@U?$_Simple_types@_J@std@@@std@@@2@V?$_Vector_const_iterator@V?$_Vector_val@U?$_Simple_types@_J@std@@@std@@@2@@Z ; std::vector<__int64,std::allocator<__int64> >::_Make_iter
PUBLIC	?size@?$vector@_JV?$allocator@_J@std@@@std@@QBEIXZ ; std::vector<__int64,std::allocator<__int64> >::size
PUBLIC	?max_size@?$vector@_JV?$allocator@_J@std@@@std@@QBEIXZ ; std::vector<__int64,std::allocator<__int64> >::max_size
PUBLIC	??A?$vector@_JV?$allocator@_J@std@@@std@@QAEAA_JI@Z ; std::vector<__int64,std::allocator<__int64> >::operator[]
PUBLIC	?push_back@?$vector@_JV?$allocator@_J@std@@@std@@QAEXAB_J@Z ; std::vector<__int64,std::allocator<__int64> >::push_back
PUBLIC	?erase@?$vector@_JV?$allocator@_J@std@@@std@@QAE?AV?$_Vector_iterator@V?$_Vector_val@U?$_Simple_types@_J@std@@@std@@@2@V?$_Vector_const_iterator@V?$_Vector_val@U?$_Simple_types@_J@std@@@std@@@2@@Z ; std::vector<__int64,std::allocator<__int64> >::erase
PUBLIC	?clear@?$vector@_JV?$allocator@_J@std@@@std@@QAEXXZ ; std::vector<__int64,std::allocator<__int64> >::clear
PUBLIC	?_Destroy@?$vector@_JV?$allocator@_J@std@@@std@@IAEXPA_J0@Z ; std::vector<__int64,std::allocator<__int64> >::_Destroy
PUBLIC	?_Grow_to@?$vector@_JV?$allocator@_J@std@@@std@@IBEII@Z ; std::vector<__int64,std::allocator<__int64> >::_Grow_to
PUBLIC	?_Inside@?$vector@_JV?$allocator@_J@std@@@std@@IBE_NPB_J@Z ; std::vector<__int64,std::allocator<__int64> >::_Inside
PUBLIC	?_Reallocate@?$vector@_JV?$allocator@_J@std@@@std@@IAEXI@Z ; std::vector<__int64,std::allocator<__int64> >::_Reallocate
PUBLIC	?_Reserve@?$vector@_JV?$allocator@_J@std@@@std@@IAEXI@Z ; std::vector<__int64,std::allocator<__int64> >::_Reserve
PUBLIC	?_Tidy@?$vector@_JV?$allocator@_J@std@@@std@@IAEXXZ ; std::vector<__int64,std::allocator<__int64> >::_Tidy
PUBLIC	?_Xlen@?$vector@_JV?$allocator@_J@std@@@std@@IBEXXZ ; std::vector<__int64,std::allocator<__int64> >::_Xlen
PUBLIC	?_Orphan_range@?$vector@_JV?$allocator@_J@std@@@std@@IBEXPA_J0@Z ; std::vector<__int64,std::allocator<__int64> >::_Orphan_range
PUBLIC	??0?$allocator@E@std@@QAE@XZ			; std::allocator<unsigned char>::allocator<unsigned char>
PUBLIC	?deallocate@?$allocator@E@std@@QAEXPAEI@Z	; std::allocator<unsigned char>::deallocate
PUBLIC	??0?$_Wrap_alloc@V?$allocator@E@std@@@std@@QAE@XZ ; std::_Wrap_alloc<std::allocator<unsigned char> >::_Wrap_alloc<std::allocator<unsigned char> >
PUBLIC	?deallocate@?$_Wrap_alloc@V?$allocator@E@std@@@std@@QAEXPAEI@Z ; std::_Wrap_alloc<std::allocator<unsigned char> >::deallocate
PUBLIC	??0?$_Vector_alloc@U?$_Vec_base_types@EV?$allocator@E@std@@@std@@@std@@QAE@XZ ; std::_Vector_alloc<std::_Vec_base_types<unsigned char,std::allocator<unsigned char> > >::_Vector_alloc<std::_Vec_base_types<unsigned char,std::allocator<unsigned char> > >
PUBLIC	?_Orphan_all@?$_Vector_alloc@U?$_Vec_base_types@EV?$allocator@E@std@@@std@@@std@@QAEXXZ ; std::_Vector_alloc<std::_Vec_base_types<unsigned char,std::allocator<unsigned char> > >::_Orphan_all
PUBLIC	?_Getal@?$_Vector_alloc@U?$_Vec_base_types@EV?$allocator@E@std@@@std@@@std@@QAEAAU?$_Wrap_alloc@V?$allocator@E@std@@@2@XZ ; std::_Vector_alloc<std::_Vec_base_types<unsigned char,std::allocator<unsigned char> > >::_Getal
PUBLIC	?_Get_data@?$_Vector_alloc@U?$_Vec_base_types@EV?$allocator@E@std@@@std@@@std@@QAEAAV?$_Vector_val@U?$_Simple_types@E@std@@@2@XZ ; std::_Vector_alloc<std::_Vec_base_types<unsigned char,std::allocator<unsigned char> > >::_Get_data
PUBLIC	?_Get_data@?$_Vector_alloc@U?$_Vec_base_types@EV?$allocator@E@std@@@std@@@std@@QBEABV?$_Vector_val@U?$_Simple_types@E@std@@@2@XZ ; std::_Vector_alloc<std::_Vec_base_types<unsigned char,std::allocator<unsigned char> > >::_Get_data
PUBLIC	?_Myfirst@?$_Vector_alloc@U?$_Vec_base_types@EV?$allocator@E@std@@@std@@@std@@QAEAAPAEXZ ; std::_Vector_alloc<std::_Vec_base_types<unsigned char,std::allocator<unsigned char> > >::_Myfirst
PUBLIC	?_Myfirst@?$_Vector_alloc@U?$_Vec_base_types@EV?$allocator@E@std@@@std@@@std@@QBEABQAEXZ ; std::_Vector_alloc<std::_Vec_base_types<unsigned char,std::allocator<unsigned char> > >::_Myfirst
PUBLIC	?_Mylast@?$_Vector_alloc@U?$_Vec_base_types@EV?$allocator@E@std@@@std@@@std@@QAEAAPAEXZ ; std::_Vector_alloc<std::_Vec_base_types<unsigned char,std::allocator<unsigned char> > >::_Mylast
PUBLIC	?_Mylast@?$_Vector_alloc@U?$_Vec_base_types@EV?$allocator@E@std@@@std@@@std@@QBEABQAEXZ ; std::_Vector_alloc<std::_Vec_base_types<unsigned char,std::allocator<unsigned char> > >::_Mylast
PUBLIC	?_Myend@?$_Vector_alloc@U?$_Vec_base_types@EV?$allocator@E@std@@@std@@@std@@QAEAAPAEXZ ; std::_Vector_alloc<std::_Vec_base_types<unsigned char,std::allocator<unsigned char> > >::_Myend
PUBLIC	??0?$_Vector_val@U?$_Simple_types@E@std@@@std@@QAE@XZ ; std::_Vector_val<std::_Simple_types<unsigned char> >::_Vector_val<std::_Simple_types<unsigned char> >
PUBLIC	?_Get_first@?$_Compressed_pair@U?$_Wrap_alloc@V?$allocator@E@std@@@std@@V?$_Vector_val@U?$_Simple_types@E@std@@@2@$00@std@@QAEAAU?$_Wrap_alloc@V?$allocator@E@std@@@2@XZ ; std::_Compressed_pair<std::_Wrap_alloc<std::allocator<unsigned char> >,std::_Vector_val<std::_Simple_types<unsigned char> >,1>::_Get_first
PUBLIC	?_Get_second@?$_Compressed_pair@U?$_Wrap_alloc@V?$allocator@E@std@@@std@@V?$_Vector_val@U?$_Simple_types@E@std@@@2@$00@std@@QAEAAV?$_Vector_val@U?$_Simple_types@E@std@@@2@XZ ; std::_Compressed_pair<std::_Wrap_alloc<std::allocator<unsigned char> >,std::_Vector_val<std::_Simple_types<unsigned char> >,1>::_Get_second
PUBLIC	?_Get_second@?$_Compressed_pair@U?$_Wrap_alloc@V?$allocator@E@std@@@std@@V?$_Vector_val@U?$_Simple_types@E@std@@@2@$00@std@@QBEABV?$_Vector_val@U?$_Simple_types@E@std@@@2@XZ ; std::_Compressed_pair<std::_Wrap_alloc<std::allocator<unsigned char> >,std::_Vector_val<std::_Simple_types<unsigned char> >,1>::_Get_second
PUBLIC	??0?$vector@EV?$allocator@E@std@@@std@@QAE@XZ	; std::vector<unsigned char,std::allocator<unsigned char> >::vector<unsigned char,std::allocator<unsigned char> >
PUBLIC	??1?$vector@EV?$allocator@E@std@@@std@@QAE@XZ	; std::vector<unsigned char,std::allocator<unsigned char> >::~vector<unsigned char,std::allocator<unsigned char> >
PUBLIC	?size@?$vector@EV?$allocator@E@std@@@std@@QBEIXZ ; std::vector<unsigned char,std::allocator<unsigned char> >::size
PUBLIC	??A?$vector@EV?$allocator@E@std@@@std@@QAEAAEI@Z ; std::vector<unsigned char,std::allocator<unsigned char> >::operator[]
PUBLIC	?clear@?$vector@EV?$allocator@E@std@@@std@@QAEXXZ ; std::vector<unsigned char,std::allocator<unsigned char> >::clear
PUBLIC	?_Destroy@?$vector@EV?$allocator@E@std@@@std@@IAEXPAE0@Z ; std::vector<unsigned char,std::allocator<unsigned char> >::_Destroy
PUBLIC	?_Tidy@?$vector@EV?$allocator@E@std@@@std@@IAEXXZ ; std::vector<unsigned char,std::allocator<unsigned char> >::_Tidy
PUBLIC	??0CTableFrameSink@@QAE@XZ			; CTableFrameSink::CTableFrameSink
PUBLIC	??1CTableFrameSink@@UAE@XZ			; CTableFrameSink::~CTableFrameSink
PUBLIC	?Release@CTableFrameSink@@UAEXXZ		; CTableFrameSink::Release
PUBLIC	?QueryInterface@CTableFrameSink@@UAEPAXABU_GUID@@K@Z ; CTableFrameSink::QueryInterface
PUBLIC	?RepositionSink@CTableFrameSink@@UAEXXZ		; CTableFrameSink::RepositionSink
PUBLIC	?Initialization@CTableFrameSink@@UAE_NPAUIUnknownEx@@@Z ; CTableFrameSink::Initialization
PUBLIC	?QueryConsumeQuota@CTableFrameSink@@UAE_JPAUIServerUserItem@@@Z ; CTableFrameSink::QueryConsumeQuota
PUBLIC	?QueryLessEnterScore@CTableFrameSink@@UAE_JGPAUIServerUserItem@@@Z ; CTableFrameSink::QueryLessEnterScore
PUBLIC	?QueryBuckleServiceCharge@CTableFrameSink@@UAE_NG@Z ; CTableFrameSink::QueryBuckleServiceCharge
PUBLIC	?OnEventGameStart@CTableFrameSink@@UAE_NXZ	; CTableFrameSink::OnEventGameStart
PUBLIC	?OnEventGameConclude@CTableFrameSink@@UAE_NGPAUIServerUserItem@@E@Z ; CTableFrameSink::OnEventGameConclude
PUBLIC	?OnEventSendGameScene@CTableFrameSink@@UAE_NGPAUIServerUserItem@@E_N@Z ; CTableFrameSink::OnEventSendGameScene
PUBLIC	?OnTimerMessage@CTableFrameSink@@UAE_NKI@Z	; CTableFrameSink::OnTimerMessage
PUBLIC	?OnDataBaseMessage@CTableFrameSink@@UAE_NGPAXG@Z ; CTableFrameSink::OnDataBaseMessage
PUBLIC	?OnUserScroeNotify@CTableFrameSink@@UAE_NGPAUIServerUserItem@@E@Z ; CTableFrameSink::OnUserScroeNotify
PUBLIC	?OnGameMessage@CTableFrameSink@@UAE_NGPAXGPAUIServerUserItem@@@Z ; CTableFrameSink::OnGameMessage
PUBLIC	?OnFrameMessage@CTableFrameSink@@UAE_NGPAXGPAUIServerUserItem@@@Z ; CTableFrameSink::OnFrameMessage
PUBLIC	?SetGameBaseScore@CTableFrameSink@@UAEXJ@Z	; CTableFrameSink::SetGameBaseScore
PUBLIC	?OnActionUserOffLine@CTableFrameSink@@UAE_NGPAUIServerUserItem@@@Z ; CTableFrameSink::OnActionUserOffLine
PUBLIC	?OnActionUserConnect@CTableFrameSink@@UAE_NGPAUIServerUserItem@@@Z ; CTableFrameSink::OnActionUserConnect
PUBLIC	?OnActionUserSitDown@CTableFrameSink@@UAE_NGPAUIServerUserItem@@_N@Z ; CTableFrameSink::OnActionUserSitDown
PUBLIC	?OnActionUserStandUp@CTableFrameSink@@UAE_NGPAUIServerUserItem@@_N@Z ; CTableFrameSink::OnActionUserStandUp
PUBLIC	?OnActionUserOnReady@CTableFrameSink@@UAE_NGPAUIServerUserItem@@PAXG@Z ; CTableFrameSink::OnActionUserOnReady
PUBLIC	?OnUserOutCard@CTableFrameSink@@IAE_NGE_N@Z	; CTableFrameSink::OnUserOutCard
PUBLIC	?OnUserOperateCard@CTableFrameSink@@IAE_NGEQAE@Z ; CTableFrameSink::OnUserOperateCard
PUBLIC	?OnUserListenCard@CTableFrameSink@@IAE_NG_N@Z	; CTableFrameSink::OnUserListenCard
PUBLIC	?OnUserTrustee@CTableFrameSink@@IAE_NG_N@Z	; CTableFrameSink::OnUserTrustee
PUBLIC	?OnUserReplaceCard@CTableFrameSink@@IAE_NGE@Z	; CTableFrameSink::OnUserReplaceCard
PUBLIC	?OnUserSendCard@CTableFrameSink@@IAE_NEGQAEE@Z	; CTableFrameSink::OnUserSendCard
PUBLIC	?OnUserFlee@CTableFrameSink@@IAE_NG@Z		; CTableFrameSink::OnUserFlee
PUBLIC	?SendOperateNotify@CTableFrameSink@@IAE_NXZ	; CTableFrameSink::SendOperateNotify
PUBLIC	?GetSendCard@CTableFrameSink@@IAEE_N@Z		; CTableFrameSink::GetSendCard
PUBLIC	?DispatchCardData@CTableFrameSink@@IAE_NG_N@Z	; CTableFrameSink::DispatchCardData
PUBLIC	?EstimateUserRespond@CTableFrameSink@@IAE_NGEW4enEstimatKind@@@Z ; CTableFrameSink::EstimateUserRespond
PUBLIC	?CalHuPaiScore@CTableFrameSink@@IAEXQA_J@Z	; CTableFrameSink::CalHuPaiScore
PUBLIC	?CalGangScore@CTableFrameSink@@IAEXXZ		; CTableFrameSink::CalGangScore
PUBLIC	?FiltrateRight@CTableFrameSink@@IAEXGAAVCChiHuRight@@@Z ; CTableFrameSink::FiltrateRight
PUBLIC	?GetTimes@CTableFrameSink@@IAEEG@Z		; CTableFrameSink::GetTimes
PUBLIC	?GetRemainingCount@CTableFrameSink@@IAEEGE@Z	; CTableFrameSink::GetRemainingCount
PUBLIC	?IsRoomCard@CTableFrameSink@@IAE_NXZ		; CTableFrameSink::IsRoomCard
PUBLIC	?IsRoomCardScoreType@CTableFrameSink@@IAE_NXZ	; CTableFrameSink::IsRoomCardScoreType
PUBLIC	?IsRoomCardTreasureType@CTableFrameSink@@IAE_NXZ ; CTableFrameSink::IsRoomCardTreasureType
PUBLIC	?WriteDebugInfo@CTableFrameSink@@IAEXPB_W@Z	; CTableFrameSink::WriteDebugInfo
PUBLIC	??_GCTableFrameSink@@UAEPAXI@Z			; CTableFrameSink::`scalar deleting destructor'
PUBLIC	??0?$_Vector_const_iterator@V?$_Vector_val@U?$_Simple_types@_J@std@@@std@@@std@@QAE@PA_JPBU_Container_base0@1@@Z ; std::_Vector_const_iterator<std::_Vector_val<std::_Simple_types<__int64> > >::_Vector_const_iterator<std::_Vector_val<std::_Simple_types<__int64> > >
PUBLIC	??0?$_Vector_iterator@V?$_Vector_val@U?$_Simple_types@_J@std@@@std@@@std@@QAE@PA_JPBU_Container_base0@1@@Z ; std::_Vector_iterator<std::_Vector_val<std::_Simple_types<__int64> > >::_Vector_iterator<std::_Vector_val<std::_Simple_types<__int64> > >
PUBLIC	??$_Move_unchecked@PA_JPA_J@std@@YAPA_JPA_J00@Z	; std::_Move_unchecked<__int64 *,__int64 *>
PUBLIC	??$addressof@$$CB_J@std@@YAPB_JAB_J@Z		; std::addressof<__int64 const >
PUBLIC	??$_Unfancy@_J@std@@YAPA_JPA_J@Z		; std::_Unfancy<__int64>
PUBLIC	??$construct@_JAA_J@?$_Wrap_alloc@V?$allocator@_J@std@@@std@@QAEXPA_JAA_J@Z ; std::_Wrap_alloc<std::allocator<__int64> >::construct<__int64,__int64 &>
PUBLIC	??$construct@_JAB_J@?$_Wrap_alloc@V?$allocator@_J@std@@@std@@QAEXPA_JAB_J@Z ; std::_Wrap_alloc<std::allocator<__int64> >::construct<__int64,__int64 const &>
PUBLIC	??$?0$$V@?$_Compressed_pair@U?$_Wrap_alloc@V?$allocator@E@std@@@std@@V?$_Vector_val@U?$_Simple_types@E@std@@@2@$00@std@@QAE@U_Zero_then_variadic_args_t@1@@Z ; std::_Compressed_pair<std::_Wrap_alloc<std::allocator<unsigned char> >,std::_Vector_val<std::_Simple_types<unsigned char> >,1>::_Compressed_pair<std::_Wrap_alloc<std::allocator<unsigned char> >,std::_Vector_val<std::_Simple_types<unsigned char> >,1><>
PUBLIC	??$_Destroy_range@V?$allocator@E@std@@PAE@std@@YAXPAE0AAU?$_Wrap_alloc@V?$allocator@E@std@@@0@@Z ; std::_Destroy_range<std::allocator<unsigned char>,unsigned char *>
PUBLIC	??$?0$$V@?$_Compressed_pair@U?$_Wrap_alloc@V?$allocator@_J@std@@@std@@V?$_Vector_val@U?$_Simple_types@_J@std@@@2@$00@std@@QAE@U_Zero_then_variadic_args_t@1@@Z ; std::_Compressed_pair<std::_Wrap_alloc<std::allocator<__int64> >,std::_Vector_val<std::_Simple_types<__int64> >,1>::_Compressed_pair<std::_Wrap_alloc<std::allocator<__int64> >,std::_Vector_val<std::_Simple_types<__int64> >,1><>
PUBLIC	??$_Destroy_range@V?$allocator@_J@std@@PA_J@std@@YAXPA_J0AAU?$_Wrap_alloc@V?$allocator@_J@std@@@0@@Z ; std::_Destroy_range<std::allocator<__int64>,__int64 *>
PUBLIC	??$_Umove@PA_J@?$vector@_JV?$allocator@_J@std@@@std@@IAEPA_JPA_J00@Z ; std::vector<__int64,std::allocator<__int64> >::_Umove<__int64 *>
PUBLIC	??$_Ptr_move_cat@_J_J@std@@YA?AU_Really_trivial_ptr_iterator_tag@0@ABQA_J0@Z ; std::_Ptr_move_cat<__int64,__int64>
PUBLIC	??$_Move_unchecked1@PA_JPA_J@std@@YAPA_JPA_J00U_Trivially_copyable_ptr_iterator_tag@0@@Z ; std::_Move_unchecked1<__int64 *,__int64 *>
PUBLIC	??$forward@AA_J@std@@YAAA_JAA_J@Z		; std::forward<__int64 &>
PUBLIC	??$construct@_JAA_J@?$allocator_traits@V?$allocator@_J@std@@@std@@SAXAAV?$allocator@_J@1@PA_JAA_J@Z ; std::allocator_traits<std::allocator<__int64> >::construct<__int64,__int64 &>
PUBLIC	??$forward@AB_J@std@@YAAB_JAB_J@Z		; std::forward<__int64 const &>
PUBLIC	??$construct@_JAB_J@?$allocator_traits@V?$allocator@_J@std@@@std@@SAXAAV?$allocator@_J@1@PA_JAB_J@Z ; std::allocator_traits<std::allocator<__int64> >::construct<__int64,__int64 const &>
PUBLIC	??$_Destroy_range1@V?$allocator@E@std@@PAE@std@@YAXPAE0AAU?$_Wrap_alloc@V?$allocator@E@std@@@0@U?$integral_constant@_N$00@0@@Z ; std::_Destroy_range1<std::allocator<unsigned char>,unsigned char *>
PUBLIC	??$_Destroy_range1@V?$allocator@_J@std@@PA_J@std@@YAXPA_J0AAU?$_Wrap_alloc@V?$allocator@_J@std@@@0@U?$integral_constant@_N$00@0@@Z ; std::_Destroy_range1<std::allocator<__int64>,__int64 *>
PUBLIC	??$_Uninitialized_move@PA_JPA_JV?$allocator@_J@std@@@std@@YAPA_JPA_J00AAU?$_Wrap_alloc@V?$allocator@_J@std@@@0@@Z ; std::_Uninitialized_move<__int64 *,__int64 *,std::allocator<__int64> >
PUBLIC	??$_Copy_memmove@PA_JPA_J@std@@YAPA_JPA_J00@Z	; std::_Copy_memmove<__int64 *,__int64 *>
PUBLIC	??$construct@_JAA_J@?$allocator@_J@std@@QAEXPA_JAA_J@Z ; std::allocator<__int64>::construct<__int64,__int64 &>
PUBLIC	??$construct@_JAB_J@?$allocator@_J@std@@QAEXPA_JAB_J@Z ; std::allocator<__int64>::construct<__int64,__int64 const &>
PUBLIC	??$_Unchecked@PA_J@std@@YAPA_JPA_J@Z		; std::_Unchecked<__int64 *>
PUBLIC	??$_Uninitialized_move_al_unchecked@PA_JPA_JV?$allocator@_J@std@@@std@@YAPA_JPA_J00AAU?$_Wrap_alloc@V?$allocator@_J@std@@@0@@Z ; std::_Uninitialized_move_al_unchecked<__int64 *,__int64 *,std::allocator<__int64> >
PUBLIC	??$_Rechecked@PA_JPA_J@std@@YAAAPA_JAAPA_JPA_J@Z ; std::_Rechecked<__int64 *,__int64 *>
PUBLIC	??$_Uninitialized_move_al_unchecked1@_J_JV?$allocator@_J@std@@@std@@YAPA_JPA_J00AAU?$_Wrap_alloc@V?$allocator@_J@std@@@0@U_Really_trivial_ptr_iterator_tag@0@U?$integral_constant@_N$00@0@@Z ; std::_Uninitialized_move_al_unchecked1<__int64,__int64,std::allocator<__int64> >
PUBLIC	?Release@CTableFrameSink@@W3AEXXZ		; [thunk]:CTableFrameSink::Release`adjustor{4}'
PUBLIC	?QueryInterface@CTableFrameSink@@W3AEPAXABU_GUID@@K@Z ; [thunk]:CTableFrameSink::QueryInterface`adjustor{4}'
PUBLIC	?atlTraceGeneral@ATL@@3V?$CTraceCategoryEx@$00$0A@@1@A ; ATL::atlTraceGeneral
PUBLIC	?atlTraceCOM@ATL@@3V?$CTraceCategoryEx@$01$0A@@1@A ; ATL::atlTraceCOM
PUBLIC	?atlTraceQI@ATL@@3V?$CTraceCategoryEx@$03$0A@@1@A ; ATL::atlTraceQI
PUBLIC	?atlTraceRegistrar@ATL@@3V?$CTraceCategoryEx@$07$0A@@1@A ; ATL::atlTraceRegistrar
PUBLIC	?atlTraceRefcount@ATL@@3V?$CTraceCategoryEx@$0BA@$0A@@1@A ; ATL::atlTraceRefcount
PUBLIC	?atlTraceWindowing@ATL@@3V?$CTraceCategoryEx@$0CA@$0A@@1@A ; ATL::atlTraceWindowing
PUBLIC	?atlTraceControls@ATL@@3V?$CTraceCategoryEx@$0EA@$0A@@1@A ; ATL::atlTraceControls
PUBLIC	?atlTraceHosting@ATL@@3V?$CTraceCategoryEx@$0IA@$0A@@1@A ; ATL::atlTraceHosting
PUBLIC	?atlTraceDBClient@ATL@@3V?$CTraceCategoryEx@$0BAA@$0A@@1@A ; ATL::atlTraceDBClient
PUBLIC	?atlTraceDBProvider@ATL@@3V?$CTraceCategoryEx@$0CAA@$0A@@1@A ; ATL::atlTraceDBProvider
PUBLIC	?atlTraceSnapin@ATL@@3V?$CTraceCategoryEx@$0EAA@$0A@@1@A ; ATL::atlTraceSnapin
PUBLIC	?atlTraceNotImpl@ATL@@3V?$CTraceCategoryEx@$0IAA@$0A@@1@A ; ATL::atlTraceNotImpl
PUBLIC	?atlTraceAllocation@ATL@@3V?$CTraceCategoryEx@$0BAAA@$0A@@1@A ; ATL::atlTraceAllocation
PUBLIC	?atlTraceException@ATL@@3V?$CTraceCategoryEx@$0CAAA@$0A@@1@A ; ATL::atlTraceException
PUBLIC	?atlTraceTime@ATL@@3V?$CTraceCategoryEx@$0EAAA@$0A@@1@A ; ATL::atlTraceTime
PUBLIC	?atlTraceCache@ATL@@3V?$CTraceCategoryEx@$0IAAA@$0A@@1@A ; ATL::atlTraceCache
PUBLIC	?atlTraceStencil@ATL@@3V?$CTraceCategoryEx@$0BAAAA@$0A@@1@A ; ATL::atlTraceStencil
PUBLIC	?atlTraceString@ATL@@3V?$CTraceCategoryEx@$0CAAAA@$0A@@1@A ; ATL::atlTraceString
PUBLIC	?atlTraceMap@ATL@@3V?$CTraceCategoryEx@$0EAAAA@$0A@@1@A ; ATL::atlTraceMap
PUBLIC	?atlTraceUtil@ATL@@3V?$CTraceCategoryEx@$0IAAAA@$0A@@1@A ; ATL::atlTraceUtil
PUBLIC	?atlTraceSecurity@ATL@@3V?$CTraceCategoryEx@$0BAAAAA@$0A@@1@A ; ATL::atlTraceSecurity
PUBLIC	?atlTraceSync@ATL@@3V?$CTraceCategoryEx@$0CAAAAA@$0A@@1@A ; ATL::atlTraceSync
PUBLIC	?atlTraceISAPI@ATL@@3V?$CTraceCategoryEx@$0EAAAAA@$0A@@1@A ; ATL::atlTraceISAPI
PUBLIC	?m_bInitFailed@CAtlBaseModule@ATL@@2_NA		; ATL::CAtlBaseModule::m_bInitFailed
PUBLIC	??_7CWin32Heap@ATL@@6B@				; ATL::CWin32Heap::`vftable'
PUBLIC	?_AtlComModule@ATL@@3VCAtlComModule@1@A		; ATL::_AtlComModule
PUBLIC	?_AtlWinModule@ATL@@3VCAtlWinModule@1@A		; ATL::_AtlWinModule
PUBLIC	?isInitialized@CAtlStringMgr@ATL@@0_NA		; ATL::CAtlStringMgr::isInitialized
PUBLIC	??_7CAtlStringMgr@ATL@@6B@			; ATL::CAtlStringMgr::`vftable'
PUBLIC	?strHeap@?1??GetInstance@CAtlStringMgr@ATL@@SAPAUIAtlStringMgr@3@XZ@4VCWin32Heap@3@A ; `ATL::CAtlStringMgr::GetInstance'::`2'::strHeap
PUBLIC	?$TSS0@?1??GetInstance@CAtlStringMgr@ATL@@SAPAUIAtlStringMgr@3@XZ@4HA ; TSS0<`template-parameter-2',ATL::CAtlStringMgr::tInstance,ATL::IAtlStringMgr * * const volatile,void,int, ?? &>
PUBLIC	?strMgr@?1??GetInstance@CAtlStringMgr@ATL@@SAPAUIAtlStringMgr@3@XZ@4V23@A ; `ATL::CAtlStringMgr::GetInstance'::`2'::strMgr
PUBLIC	?$TSS1@?1??GetInstance@CAtlStringMgr@ATL@@SAPAUIAtlStringMgr@3@XZ@4HA ; TSS1<`template-parameter-2',ATL::CAtlStringMgr::tInstance,ATL::IAtlStringMgr * * const volatile,void,int, ?? &>
PUBLIC	??_7IUnknownEx@@6B@				; IUnknownEx::`vftable'
PUBLIC	??_7ITableFrameSink@@6B@			; ITableFrameSink::`vftable'
PUBLIC	??_7ITableUserAction@@6B@			; ITableUserAction::`vftable'
PUBLIC	?isCImageStaticInitialized@CImage@ATL@@0_NA	; ATL::CImage::isCImageStaticInitialized
PUBLIC	?gdiPlus@?1??GetInitGDIPlusInstance@CImage@ATL@@CAPAVCInitGDIPlus@23@XZ@4V423@A ; `ATL::CImage::GetInitGDIPlusInstance'::`2'::gdiPlus
PUBLIC	?$TSS0@?1??GetInitGDIPlusInstance@CImage@ATL@@CAPAVCInitGDIPlus@23@XZ@4HA ; TSS0<`template-parameter-2',ATL::CImage::tInitGDIPlusInstance,signed char,ATL::CImage::CInitGDIPlus const volatile __based() &,void,int, ?? &>
PUBLIC	?cache@?1??GetCDCCacheInstance@CImage@ATL@@CAPAVCDCCache@23@XZ@4V423@A ; `ATL::CImage::GetCDCCacheInstance'::`2'::cache
PUBLIC	?$TSS0@?1??GetCDCCacheInstance@CImage@ATL@@CAPAVCDCCache@23@XZ@4HA ; TSS0<`template-parameter-2',ATL::CImage::tCDCCacheInstance,signed char,ATL::CImage::CDCCache const volatile __based() &,void,int, ?? &>
PUBLIC	??_7CTableFrameSink@@6BITableFrameSink@@@	; CTableFrameSink::`vftable'
PUBLIC	??_7CTableFrameSink@@6BITableUserAction@@@	; CTableFrameSink::`vftable'
PUBLIC	??_C@_0BD@OLBABOEK@vector?$DMT?$DO?5too?5long?$AA@ ; `string'
PUBLIC	??_R4CWin32Heap@ATL@@6B@			; ATL::CWin32Heap::`RTTI Complete Object Locator'
PUBLIC	??_R0?AVCWin32Heap@ATL@@@8			; ATL::CWin32Heap `RTTI Type Descriptor'
PUBLIC	??_R3CWin32Heap@ATL@@8				; ATL::CWin32Heap::`RTTI Class Hierarchy Descriptor'
PUBLIC	??_R2CWin32Heap@ATL@@8				; ATL::CWin32Heap::`RTTI Base Class Array'
PUBLIC	??_R1A@?0A@EA@CWin32Heap@ATL@@8			; ATL::CWin32Heap::`RTTI Base Class Descriptor at (0,-1,0,64)'
PUBLIC	??_R1A@?0A@EA@IAtlMemMgr@ATL@@8			; ATL::IAtlMemMgr::`RTTI Base Class Descriptor at (0,-1,0,64)'
PUBLIC	??_R0?AUIAtlMemMgr@ATL@@@8			; ATL::IAtlMemMgr `RTTI Type Descriptor'
PUBLIC	??_R3IAtlMemMgr@ATL@@8				; ATL::IAtlMemMgr::`RTTI Class Hierarchy Descriptor'
PUBLIC	??_R2IAtlMemMgr@ATL@@8				; ATL::IAtlMemMgr::`RTTI Base Class Array'
PUBLIC	??_R1A@?0A@EA@IAtlStringMgr@ATL@@8		; ATL::IAtlStringMgr::`RTTI Base Class Descriptor at (0,-1,0,64)'
PUBLIC	??_R0?AUIAtlStringMgr@ATL@@@8			; ATL::IAtlStringMgr `RTTI Type Descriptor'
PUBLIC	??_R3IAtlStringMgr@ATL@@8			; ATL::IAtlStringMgr::`RTTI Class Hierarchy Descriptor'
PUBLIC	??_R2IAtlStringMgr@ATL@@8			; ATL::IAtlStringMgr::`RTTI Base Class Array'
PUBLIC	??_R4CAtlStringMgr@ATL@@6B@			; ATL::CAtlStringMgr::`RTTI Complete Object Locator'
PUBLIC	??_R0?AVCAtlStringMgr@ATL@@@8			; ATL::CAtlStringMgr `RTTI Type Descriptor'
PUBLIC	??_R3CAtlStringMgr@ATL@@8			; ATL::CAtlStringMgr::`RTTI Class Hierarchy Descriptor'
PUBLIC	??_R2CAtlStringMgr@ATL@@8			; ATL::CAtlStringMgr::`RTTI Base Class Array'
PUBLIC	??_R1A@?0A@EA@CAtlStringMgr@ATL@@8		; ATL::CAtlStringMgr::`RTTI Base Class Descriptor at (0,-1,0,64)'
PUBLIC	??_R4IUnknownEx@@6B@				; IUnknownEx::`RTTI Complete Object Locator'
PUBLIC	??_R0?AUIUnknownEx@@@8				; IUnknownEx `RTTI Type Descriptor'
PUBLIC	??_R3IUnknownEx@@8				; IUnknownEx::`RTTI Class Hierarchy Descriptor'
PUBLIC	??_R2IUnknownEx@@8				; IUnknownEx::`RTTI Base Class Array'
PUBLIC	??_R1A@?0A@EA@IUnknownEx@@8			; IUnknownEx::`RTTI Base Class Descriptor at (0,-1,0,64)'
PUBLIC	??_R4ITableFrameSink@@6B@			; ITableFrameSink::`RTTI Complete Object Locator'
PUBLIC	??_R0?AUITableFrameSink@@@8			; ITableFrameSink `RTTI Type Descriptor'
PUBLIC	??_R3ITableFrameSink@@8				; ITableFrameSink::`RTTI Class Hierarchy Descriptor'
PUBLIC	??_R2ITableFrameSink@@8				; ITableFrameSink::`RTTI Base Class Array'
PUBLIC	??_R1A@?0A@EA@ITableFrameSink@@8		; ITableFrameSink::`RTTI Base Class Descriptor at (0,-1,0,64)'
PUBLIC	??_R4ITableUserAction@@6B@			; ITableUserAction::`RTTI Complete Object Locator'
PUBLIC	??_R0?AUITableUserAction@@@8			; ITableUserAction `RTTI Type Descriptor'
PUBLIC	??_R3ITableUserAction@@8			; ITableUserAction::`RTTI Class Hierarchy Descriptor'
PUBLIC	??_R2ITableUserAction@@8			; ITableUserAction::`RTTI Base Class Array'
PUBLIC	??_R1A@?0A@EA@ITableUserAction@@8		; ITableUserAction::`RTTI Base Class Descriptor at (0,-1,0,64)'
PUBLIC	??_R4CTableFrameSink@@6BITableFrameSink@@@	; CTableFrameSink::`RTTI Complete Object Locator'
PUBLIC	??_R0?AVCTableFrameSink@@@8			; CTableFrameSink `RTTI Type Descriptor'
PUBLIC	??_R3CTableFrameSink@@8				; CTableFrameSink::`RTTI Class Hierarchy Descriptor'
PUBLIC	??_R2CTableFrameSink@@8				; CTableFrameSink::`RTTI Base Class Array'
PUBLIC	??_R1A@?0A@EA@CTableFrameSink@@8		; CTableFrameSink::`RTTI Base Class Descriptor at (0,-1,0,64)'
PUBLIC	??_R1A@?0A@EC@IUnknownEx@@8			; IUnknownEx::`RTTI Base Class Descriptor at (0,-1,0,66)'
PUBLIC	??_R13?0A@EA@ITableUserAction@@8		; ITableUserAction::`RTTI Base Class Descriptor at (4,-1,0,64)'
PUBLIC	??_R13?0A@EC@IUnknownEx@@8			; IUnknownEx::`RTTI Base Class Descriptor at (4,-1,0,66)'
PUBLIC	??_R4CTableFrameSink@@6BITableUserAction@@@	; CTableFrameSink::`RTTI Complete Object Locator'
EXTRN	??_L@YGXPAXIIP6EX0@Z1@Z:PROC			; `eh vector constructor iterator'
EXTRN	??_M@YGXPAXIIP6EX0@Z@Z:PROC			; `eh vector destructor iterator'
EXTRN	__purecall:PROC
EXTRN	??2@YAPAXI@Z:PROC				; operator new
EXTRN	??3@YAXPAX@Z:PROC				; operator delete
EXTRN	??3@YAXPAXI@Z:PROC				; operator delete
EXTRN	_atexit:PROC
EXTRN	__Init_thread_header:PROC
EXTRN	__Init_thread_footer:PROC
EXTRN	__imp___invalid_parameter_noinfo_noreturn:PROC
EXTRN	_memcmp:PROC
EXTRN	_memcpy:PROC
EXTRN	__imp__memmove:PROC
EXTRN	_memset:PROC
EXTRN	__imp__DecodePointer@4:PROC
EXTRN	__imp__RaiseException@16:PROC
EXTRN	__imp__GetLastError@0:PROC
EXTRN	__imp__HeapDestroy@4:PROC
EXTRN	__imp__HeapAlloc@12:PROC
EXTRN	__imp__HeapReAlloc@16:PROC
EXTRN	__imp__HeapFree@12:PROC
EXTRN	__imp__HeapSize@12:PROC
EXTRN	__imp__GetProcessHeap@0:PROC
EXTRN	__imp__EnterCriticalSection@4:PROC
EXTRN	__imp__LeaveCriticalSection@4:PROC
EXTRN	__imp__InitializeCriticalSectionAndSpinCount@8:PROC
EXTRN	__imp__DeleteCriticalSection@4:PROC
EXTRN	__imp__FreeLibrary@4:PROC
EXTRN	__imp__GetProcAddress@8:PROC
EXTRN	__imp__lstrcpynW@12:PROC
EXTRN	__imp__LoadLibraryW@4:PROC
EXTRN	__imp__DeleteDC@4:PROC
EXTRN	__imp__UnregisterClassW@8:PROC
EXTRN	__imp__free:PROC
EXTRN	__imp__rand:PROC
EXTRN	__imp___time64:PROC
EXTRN	??_ECWin32Heap@ATL@@UAEPAXI@Z:PROC		; ATL::CWin32Heap::`vector deleting destructor'
EXTRN	__imp_??B?$CSimpleStringT@_W$00@ATL@@QBEPB_WXZ:PROC
EXTRN	__imp_??0?$CStringT@_WV?$StrTraitMFC_DLL@_WV?$ChTraitsCRT@_W@ATL@@@@@ATL@@QAE@XZ:PROC
EXTRN	__imp_??0?$CStringT@_WV?$StrTraitMFC_DLL@_WV?$ChTraitsCRT@_W@ATL@@@@@ATL@@QAE@ABV01@@Z:PROC
EXTRN	__imp_??1?$CStringT@_WV?$StrTraitMFC_DLL@_WV?$ChTraitsCRT@_W@ATL@@@@@ATL@@QAE@XZ:PROC
EXTRN	__imp_?Format@?$CStringT@_WV?$StrTraitMFC_DLL@_WV?$ChTraitsCRT@_W@ATL@@@@@ATL@@QAAXPB_WZZ:PROC
EXTRN	??_ECAtlStringMgr@ATL@@UAEPAXI@Z:PROC		; ATL::CAtlStringMgr::`vector deleting destructor'
EXTRN	__imp_?_Xbad_alloc@std@@YAXXZ:PROC
EXTRN	__imp_?_Xlength_error@std@@YAXPBD@Z:PROC
EXTRN	__imp_?TraceString@CTraceService@@SA_NPB_WW4enTraceLevel@@@Z:PROC
EXTRN	_GdiplusShutdown@4:PROC
EXTRN	??0CChiHuRight@@QAE@XZ:PROC			; CChiHuRight::CChiHuRight
EXTRN	??_5CChiHuRight@@QAEAAV0@K@Z:PROC		; CChiHuRight::operator|=
EXTRN	?GetRightData@CChiHuRight@@QAEEQAKE@Z:PROC	; CChiHuRight::GetRightData
EXTRN	??0CGameLogic@@QAE@XZ:PROC			; CGameLogic::CGameLogic
EXTRN	??1CGameLogic@@UAE@XZ:PROC			; CGameLogic::~CGameLogic
EXTRN	?RandCardList@CGameLogic@@QAEXQAEE@Z:PROC	; CGameLogic::RandCardList
EXTRN	?RemoveCard@CGameLogic@@QAE_NQAEQBEE@Z:PROC	; CGameLogic::RemoveCard
EXTRN	?RemoveCard@CGameLogic@@QAE_NQAEE@Z:PROC	; CGameLogic::RemoveCard
EXTRN	?GetUserActionRank@CGameLogic@@QAEEE@Z:PROC	; CGameLogic::GetUserActionRank
EXTRN	?EstimatePengCard@CGameLogic@@QAEEQBEE@Z:PROC	; CGameLogic::EstimatePengCard
EXTRN	?EstimateGangCard@CGameLogic@@QAEEQBEE@Z:PROC	; CGameLogic::EstimateGangCard
EXTRN	?AnalyseGangCardEx@CGameLogic@@QAEEQBEQBUtagWeaveItem@@EEAAUtagGangCardResult@@@Z:PROC ; CGameLogic::AnalyseGangCardEx
EXTRN	?AnalyseChiHuCard@CGameLogic@@QAEEQBEQBUtagWeaveItem@@EEAAVCChiHuRight@@_N@Z:PROC ; CGameLogic::AnalyseChiHuCard
EXTRN	?AnalyseTingCard@CGameLogic@@QAEEQBEQBUtagWeaveItem@@E@Z:PROC ; CGameLogic::AnalyseTingCard
EXTRN	?AnalyseTingCard@CGameLogic@@QAEEQBEQBUtagWeaveItem@@EAAEQAE3QAY0BM@E@Z:PROC ; CGameLogic::AnalyseTingCard
EXTRN	?GetHuCard@CGameLogic@@QAEEQBEQBUtagWeaveItem@@EQAE@Z:PROC ; CGameLogic::GetHuCard
EXTRN	?SwitchToCardData@CGameLogic@@QAEEE@Z:PROC	; CGameLogic::SwitchToCardData
EXTRN	?SwitchToCardIndex@CGameLogic@@QAEEE@Z:PROC	; CGameLogic::SwitchToCardIndex
EXTRN	?SwitchToCardData@CGameLogic@@QAEEQBEQAE@Z:PROC	; CGameLogic::SwitchToCardData
EXTRN	?SwitchToCardIndex@CGameLogic@@QAEEQBEEQAE@Z:PROC ; CGameLogic::SwitchToCardIndex
EXTRN	?IsValidCard@CGameLogic@@QAE_NE@Z:PROC		; CGameLogic::IsValidCard
EXTRN	?GetCardCount@CGameLogic@@QAEEQBE@Z:PROC	; CGameLogic::GetCardCount
EXTRN	??0CHistoryScore@@QAE@XZ:PROC			; CHistoryScore::CHistoryScore
EXTRN	??1CHistoryScore@@UAE@XZ:PROC			; CHistoryScore::~CHistoryScore
EXTRN	?GetHistoryScore@CHistoryScore@@QAEPAUtagHistoryScore@@G@Z:PROC ; CHistoryScore::GetHistoryScore
EXTRN	?OnEventUserEnter@CHistoryScore@@QAEXG@Z:PROC	; CHistoryScore::OnEventUserEnter
EXTRN	?OnEventUserLeave@CHistoryScore@@QAEXG@Z:PROC	; CHistoryScore::OnEventUserLeave
EXTRN	?OnEventUserScore@CHistoryScore@@QAEXG_J@Z:PROC	; CHistoryScore::OnEventUserScore
EXTRN	??_ECTableFrameSink@@UAEPAXI@Z:PROC		; CTableFrameSink::`vector deleting destructor'
EXTRN	@__security_check_cookie@4:PROC
EXTRN	__CxxThrowException@8:PROC
EXTRN	___CxxFrameHandler3:PROC
EXTRN	__alldiv:PROC
EXTRN	__allmul:PROC
EXTRN	__Init_thread_epoch:DWORD
EXTRN	?_AtlBaseModule@ATL@@3VCAtlBaseModule@1@A:BYTE	; ATL::_AtlBaseModule
EXTRN	??_7type_info@@6B@:QWORD			; type_info::`vftable'
EXTRN	___ImageBase:BYTE
EXTRN	___security_cookie:DWORD
EXTRN	__tls_array:DWORD
EXTRN	__tls_index:DWORD
;	COMDAT ?atlTraceGeneral@ATL@@3V?$CTraceCategoryEx@$00$0A@@1@A
_BSS	SEGMENT
?atlTraceGeneral@ATL@@3V?$CTraceCategoryEx@$00$0A@@1@A DD 01H DUP (?) ; ATL::atlTraceGeneral
_BSS	ENDS
;	COMDAT ?atlTraceCOM@ATL@@3V?$CTraceCategoryEx@$01$0A@@1@A
_BSS	SEGMENT
?atlTraceCOM@ATL@@3V?$CTraceCategoryEx@$01$0A@@1@A DD 01H DUP (?) ; ATL::atlTraceCOM
_BSS	ENDS
;	COMDAT ?atlTraceQI@ATL@@3V?$CTraceCategoryEx@$03$0A@@1@A
_BSS	SEGMENT
?atlTraceQI@ATL@@3V?$CTraceCategoryEx@$03$0A@@1@A DD 01H DUP (?) ; ATL::atlTraceQI
_BSS	ENDS
;	COMDAT ?atlTraceRegistrar@ATL@@3V?$CTraceCategoryEx@$07$0A@@1@A
_BSS	SEGMENT
?atlTraceRegistrar@ATL@@3V?$CTraceCategoryEx@$07$0A@@1@A DD 01H DUP (?) ; ATL::atlTraceRegistrar
_BSS	ENDS
;	COMDAT ?atlTraceRefcount@ATL@@3V?$CTraceCategoryEx@$0BA@$0A@@1@A
_BSS	SEGMENT
?atlTraceRefcount@ATL@@3V?$CTraceCategoryEx@$0BA@$0A@@1@A DD 01H DUP (?) ; ATL::atlTraceRefcount
_BSS	ENDS
;	COMDAT ?atlTraceWindowing@ATL@@3V?$CTraceCategoryEx@$0CA@$0A@@1@A
_BSS	SEGMENT
?atlTraceWindowing@ATL@@3V?$CTraceCategoryEx@$0CA@$0A@@1@A DD 01H DUP (?) ; ATL::atlTraceWindowing
_BSS	ENDS
;	COMDAT ?atlTraceControls@ATL@@3V?$CTraceCategoryEx@$0EA@$0A@@1@A
_BSS	SEGMENT
?atlTraceControls@ATL@@3V?$CTraceCategoryEx@$0EA@$0A@@1@A DD 01H DUP (?) ; ATL::atlTraceControls
_BSS	ENDS
;	COMDAT ?atlTraceHosting@ATL@@3V?$CTraceCategoryEx@$0IA@$0A@@1@A
_BSS	SEGMENT
?atlTraceHosting@ATL@@3V?$CTraceCategoryEx@$0IA@$0A@@1@A DD 01H DUP (?) ; ATL::atlTraceHosting
_BSS	ENDS
;	COMDAT ?atlTraceDBClient@ATL@@3V?$CTraceCategoryEx@$0BAA@$0A@@1@A
_BSS	SEGMENT
?atlTraceDBClient@ATL@@3V?$CTraceCategoryEx@$0BAA@$0A@@1@A DD 01H DUP (?) ; ATL::atlTraceDBClient
_BSS	ENDS
;	COMDAT ?atlTraceDBProvider@ATL@@3V?$CTraceCategoryEx@$0CAA@$0A@@1@A
_BSS	SEGMENT
?atlTraceDBProvider@ATL@@3V?$CTraceCategoryEx@$0CAA@$0A@@1@A DD 01H DUP (?) ; ATL::atlTraceDBProvider
_BSS	ENDS
;	COMDAT ?atlTraceSnapin@ATL@@3V?$CTraceCategoryEx@$0EAA@$0A@@1@A
_BSS	SEGMENT
?atlTraceSnapin@ATL@@3V?$CTraceCategoryEx@$0EAA@$0A@@1@A DD 01H DUP (?) ; ATL::atlTraceSnapin
_BSS	ENDS
;	COMDAT ?atlTraceNotImpl@ATL@@3V?$CTraceCategoryEx@$0IAA@$0A@@1@A
_BSS	SEGMENT
?atlTraceNotImpl@ATL@@3V?$CTraceCategoryEx@$0IAA@$0A@@1@A DD 01H DUP (?) ; ATL::atlTraceNotImpl
_BSS	ENDS
;	COMDAT ?atlTraceAllocation@ATL@@3V?$CTraceCategoryEx@$0BAAA@$0A@@1@A
_BSS	SEGMENT
?atlTraceAllocation@ATL@@3V?$CTraceCategoryEx@$0BAAA@$0A@@1@A DD 01H DUP (?) ; ATL::atlTraceAllocation
_BSS	ENDS
;	COMDAT ?atlTraceException@ATL@@3V?$CTraceCategoryEx@$0CAAA@$0A@@1@A
_BSS	SEGMENT
?atlTraceException@ATL@@3V?$CTraceCategoryEx@$0CAAA@$0A@@1@A DD 01H DUP (?) ; ATL::atlTraceException
_BSS	ENDS
;	COMDAT ?atlTraceTime@ATL@@3V?$CTraceCategoryEx@$0EAAA@$0A@@1@A
_BSS	SEGMENT
?atlTraceTime@ATL@@3V?$CTraceCategoryEx@$0EAAA@$0A@@1@A DD 01H DUP (?) ; ATL::atlTraceTime
_BSS	ENDS
;	COMDAT ?atlTraceCache@ATL@@3V?$CTraceCategoryEx@$0IAAA@$0A@@1@A
_BSS	SEGMENT
?atlTraceCache@ATL@@3V?$CTraceCategoryEx@$0IAAA@$0A@@1@A DD 01H DUP (?) ; ATL::atlTraceCache
_BSS	ENDS
;	COMDAT ?atlTraceStencil@ATL@@3V?$CTraceCategoryEx@$0BAAAA@$0A@@1@A
_BSS	SEGMENT
?atlTraceStencil@ATL@@3V?$CTraceCategoryEx@$0BAAAA@$0A@@1@A DD 01H DUP (?) ; ATL::atlTraceStencil
_BSS	ENDS
;	COMDAT ?atlTraceString@ATL@@3V?$CTraceCategoryEx@$0CAAAA@$0A@@1@A
_BSS	SEGMENT
?atlTraceString@ATL@@3V?$CTraceCategoryEx@$0CAAAA@$0A@@1@A DD 01H DUP (?) ; ATL::atlTraceString
_BSS	ENDS
;	COMDAT ?atlTraceMap@ATL@@3V?$CTraceCategoryEx@$0EAAAA@$0A@@1@A
_BSS	SEGMENT
?atlTraceMap@ATL@@3V?$CTraceCategoryEx@$0EAAAA@$0A@@1@A DD 01H DUP (?) ; ATL::atlTraceMap
_BSS	ENDS
;	COMDAT ?atlTraceUtil@ATL@@3V?$CTraceCategoryEx@$0IAAAA@$0A@@1@A
_BSS	SEGMENT
?atlTraceUtil@ATL@@3V?$CTraceCategoryEx@$0IAAAA@$0A@@1@A DD 01H DUP (?) ; ATL::atlTraceUtil
_BSS	ENDS
;	COMDAT ?atlTraceSecurity@ATL@@3V?$CTraceCategoryEx@$0BAAAAA@$0A@@1@A
_BSS	SEGMENT
?atlTraceSecurity@ATL@@3V?$CTraceCategoryEx@$0BAAAAA@$0A@@1@A DD 01H DUP (?) ; ATL::atlTraceSecurity
_BSS	ENDS
;	COMDAT ?atlTraceSync@ATL@@3V?$CTraceCategoryEx@$0CAAAAA@$0A@@1@A
_BSS	SEGMENT
?atlTraceSync@ATL@@3V?$CTraceCategoryEx@$0CAAAAA@$0A@@1@A DD 01H DUP (?) ; ATL::atlTraceSync
_BSS	ENDS
;	COMDAT ?atlTraceISAPI@ATL@@3V?$CTraceCategoryEx@$0EAAAAA@$0A@@1@A
_BSS	SEGMENT
?atlTraceISAPI@ATL@@3V?$CTraceCategoryEx@$0EAAAAA@$0A@@1@A DD 01H DUP (?) ; ATL::atlTraceISAPI
_BSS	ENDS
;	COMDAT ?m_bInitFailed@CAtlBaseModule@ATL@@2_NA
_BSS	SEGMENT
?m_bInitFailed@CAtlBaseModule@ATL@@2_NA DB 01H DUP (?)	; ATL::CAtlBaseModule::m_bInitFailed
_BSS	ENDS
;	COMDAT ?_AtlComModule@ATL@@3VCAtlComModule@1@A
_BSS	SEGMENT
?_AtlComModule@ATL@@3VCAtlComModule@1@A DB 028H DUP (?)	; ATL::_AtlComModule
_BSS	ENDS
;	COMDAT ?_AtlWinModule@ATL@@3VCAtlWinModule@1@A
_BSS	SEGMENT
?_AtlWinModule@ATL@@3VCAtlWinModule@1@A DB 02cH DUP (?)	; ATL::_AtlWinModule
_BSS	ENDS
;	COMDAT ?isInitialized@CAtlStringMgr@ATL@@0_NA
_BSS	SEGMENT
?isInitialized@CAtlStringMgr@ATL@@0_NA DB 01H DUP (?)	; ATL::CAtlStringMgr::isInitialized
_BSS	ENDS
;	COMDAT ?strHeap@?1??GetInstance@CAtlStringMgr@ATL@@SAPAUIAtlStringMgr@3@XZ@4VCWin32Heap@3@A
_BSS	SEGMENT
?strHeap@?1??GetInstance@CAtlStringMgr@ATL@@SAPAUIAtlStringMgr@3@XZ@4VCWin32Heap@3@A DB 0cH DUP (?) ; `ATL::CAtlStringMgr::GetInstance'::`2'::strHeap
_BSS	ENDS
;	COMDAT ?$TSS0@?1??GetInstance@CAtlStringMgr@ATL@@SAPAUIAtlStringMgr@3@XZ@4HA
_BSS	SEGMENT
?$TSS0@?1??GetInstance@CAtlStringMgr@ATL@@SAPAUIAtlStringMgr@3@XZ@4HA DD 01H DUP (?) ; TSS0<`template-parameter-2',ATL::CAtlStringMgr::tInstance,ATL::IAtlStringMgr * * const volatile,void,int, ?? &>
_BSS	ENDS
;	COMDAT ?strMgr@?1??GetInstance@CAtlStringMgr@ATL@@SAPAUIAtlStringMgr@3@XZ@4V23@A
_BSS	SEGMENT
?strMgr@?1??GetInstance@CAtlStringMgr@ATL@@SAPAUIAtlStringMgr@3@XZ@4V23@A DB 01cH DUP (?) ; `ATL::CAtlStringMgr::GetInstance'::`2'::strMgr
_BSS	ENDS
;	COMDAT ?$TSS1@?1??GetInstance@CAtlStringMgr@ATL@@SAPAUIAtlStringMgr@3@XZ@4HA
_BSS	SEGMENT
?$TSS1@?1??GetInstance@CAtlStringMgr@ATL@@SAPAUIAtlStringMgr@3@XZ@4HA DD 01H DUP (?) ; TSS1<`template-parameter-2',ATL::CAtlStringMgr::tInstance,ATL::IAtlStringMgr * * const volatile,void,int, ?? &>
_BSS	ENDS
;	COMDAT ?isCImageStaticInitialized@CImage@ATL@@0_NA
_BSS	SEGMENT
?isCImageStaticInitialized@CImage@ATL@@0_NA DB 01H DUP (?) ; ATL::CImage::isCImageStaticInitialized
_BSS	ENDS
;	COMDAT ?gdiPlus@?1??GetInitGDIPlusInstance@CImage@ATL@@CAPAVCInitGDIPlus@23@XZ@4V423@A
_BSS	SEGMENT
?gdiPlus@?1??GetInitGDIPlusInstance@CImage@ATL@@CAPAVCInitGDIPlus@23@XZ@4V423@A DB 024H DUP (?) ; `ATL::CImage::GetInitGDIPlusInstance'::`2'::gdiPlus
_BSS	ENDS
;	COMDAT ?$TSS0@?1??GetInitGDIPlusInstance@CImage@ATL@@CAPAVCInitGDIPlus@23@XZ@4HA
_BSS	SEGMENT
?$TSS0@?1??GetInitGDIPlusInstance@CImage@ATL@@CAPAVCInitGDIPlus@23@XZ@4HA DD 01H DUP (?) ; TSS0<`template-parameter-2',ATL::CImage::tInitGDIPlusInstance,signed char,ATL::CImage::CInitGDIPlus const volatile __based() &,void,int, ?? &>
_BSS	ENDS
;	COMDAT ?cache@?1??GetCDCCacheInstance@CImage@ATL@@CAPAVCDCCache@23@XZ@4V423@A
_BSS	SEGMENT
?cache@?1??GetCDCCacheInstance@CImage@ATL@@CAPAVCDCCache@23@XZ@4V423@A DB 010H DUP (?) ; `ATL::CImage::GetCDCCacheInstance'::`2'::cache
_BSS	ENDS
;	COMDAT ?$TSS0@?1??GetCDCCacheInstance@CImage@ATL@@CAPAVCDCCache@23@XZ@4HA
_BSS	SEGMENT
?$TSS0@?1??GetCDCCacheInstance@CImage@ATL@@CAPAVCDCCache@23@XZ@4HA DD 01H DUP (?) ; TSS0<`template-parameter-2',ATL::CImage::tCDCCacheInstance,signed char,ATL::CImage::CDCCache const volatile __based() &,void,int, ?? &>
_BSS	ENDS
;	COMDAT CRT$XCU
CRT$XCU	SEGMENT
?atlTraceGeneral$initializer$@ATL@@3P6AXXZA DD FLAT:??__EatlTraceGeneral@ATL@@YAXXZ ; ATL::atlTraceGeneral$initializer$
CRT$XCU	ENDS
;	COMDAT ??_R4CTableFrameSink@@6BITableUserAction@@@
rdata$r	SEGMENT
??_R4CTableFrameSink@@6BITableUserAction@@@ DD 00H	; CTableFrameSink::`RTTI Complete Object Locator'
	DD	04H
	DD	00H
	DD	FLAT:??_R0?AVCTableFrameSink@@@8
	DD	FLAT:??_R3CTableFrameSink@@8
rdata$r	ENDS
;	COMDAT ??_R13?0A@EC@IUnknownEx@@8
rdata$r	SEGMENT
??_R13?0A@EC@IUnknownEx@@8 DD FLAT:??_R0?AUIUnknownEx@@@8 ; IUnknownEx::`RTTI Base Class Descriptor at (4,-1,0,66)'
	DD	00H
	DD	04H
	DD	0ffffffffH
	DD	00H
	DD	042H
	DD	FLAT:??_R3IUnknownEx@@8
rdata$r	ENDS
;	COMDAT ??_R13?0A@EA@ITableUserAction@@8
rdata$r	SEGMENT
??_R13?0A@EA@ITableUserAction@@8 DD FLAT:??_R0?AUITableUserAction@@@8 ; ITableUserAction::`RTTI Base Class Descriptor at (4,-1,0,64)'
	DD	01H
	DD	04H
	DD	0ffffffffH
	DD	00H
	DD	040H
	DD	FLAT:??_R3ITableUserAction@@8
rdata$r	ENDS
;	COMDAT ??_R1A@?0A@EC@IUnknownEx@@8
rdata$r	SEGMENT
??_R1A@?0A@EC@IUnknownEx@@8 DD FLAT:??_R0?AUIUnknownEx@@@8 ; IUnknownEx::`RTTI Base Class Descriptor at (0,-1,0,66)'
	DD	00H
	DD	00H
	DD	0ffffffffH
	DD	00H
	DD	042H
	DD	FLAT:??_R3IUnknownEx@@8
rdata$r	ENDS
;	COMDAT ??_R1A@?0A@EA@CTableFrameSink@@8
rdata$r	SEGMENT
??_R1A@?0A@EA@CTableFrameSink@@8 DD FLAT:??_R0?AVCTableFrameSink@@@8 ; CTableFrameSink::`RTTI Base Class Descriptor at (0,-1,0,64)'
	DD	04H
	DD	00H
	DD	0ffffffffH
	DD	00H
	DD	040H
	DD	FLAT:??_R3CTableFrameSink@@8
rdata$r	ENDS
;	COMDAT ??_R2CTableFrameSink@@8
rdata$r	SEGMENT
??_R2CTableFrameSink@@8 DD FLAT:??_R1A@?0A@EA@CTableFrameSink@@8 ; CTableFrameSink::`RTTI Base Class Array'
	DD	FLAT:??_R1A@?0A@EA@ITableFrameSink@@8
	DD	FLAT:??_R1A@?0A@EC@IUnknownEx@@8
	DD	FLAT:??_R13?0A@EA@ITableUserAction@@8
	DD	FLAT:??_R13?0A@EC@IUnknownEx@@8
rdata$r	ENDS
;	COMDAT ??_R3CTableFrameSink@@8
rdata$r	SEGMENT
??_R3CTableFrameSink@@8 DD 00H				; CTableFrameSink::`RTTI Class Hierarchy Descriptor'
	DD	05H
	DD	05H
	DD	FLAT:??_R2CTableFrameSink@@8
rdata$r	ENDS
;	COMDAT ??_R0?AVCTableFrameSink@@@8
data$r	SEGMENT
??_R0?AVCTableFrameSink@@@8 DD FLAT:??_7type_info@@6B@	; CTableFrameSink `RTTI Type Descriptor'
	DD	00H
	DB	'.?AVCTableFrameSink@@', 00H
data$r	ENDS
;	COMDAT ??_R4CTableFrameSink@@6BITableFrameSink@@@
rdata$r	SEGMENT
??_R4CTableFrameSink@@6BITableFrameSink@@@ DD 00H	; CTableFrameSink::`RTTI Complete Object Locator'
	DD	00H
	DD	00H
	DD	FLAT:??_R0?AVCTableFrameSink@@@8
	DD	FLAT:??_R3CTableFrameSink@@8
rdata$r	ENDS
;	COMDAT ??_R1A@?0A@EA@ITableUserAction@@8
rdata$r	SEGMENT
??_R1A@?0A@EA@ITableUserAction@@8 DD FLAT:??_R0?AUITableUserAction@@@8 ; ITableUserAction::`RTTI Base Class Descriptor at (0,-1,0,64)'
	DD	01H
	DD	00H
	DD	0ffffffffH
	DD	00H
	DD	040H
	DD	FLAT:??_R3ITableUserAction@@8
rdata$r	ENDS
;	COMDAT ??_R2ITableUserAction@@8
rdata$r	SEGMENT
??_R2ITableUserAction@@8 DD FLAT:??_R1A@?0A@EA@ITableUserAction@@8 ; ITableUserAction::`RTTI Base Class Array'
	DD	FLAT:??_R1A@?0A@EA@IUnknownEx@@8
rdata$r	ENDS
;	COMDAT ??_R3ITableUserAction@@8
rdata$r	SEGMENT
??_R3ITableUserAction@@8 DD 00H				; ITableUserAction::`RTTI Class Hierarchy Descriptor'
	DD	00H
	DD	02H
	DD	FLAT:??_R2ITableUserAction@@8
rdata$r	ENDS
;	COMDAT ??_R0?AUITableUserAction@@@8
data$r	SEGMENT
??_R0?AUITableUserAction@@@8 DD FLAT:??_7type_info@@6B@	; ITableUserAction `RTTI Type Descriptor'
	DD	00H
	DB	'.?AUITableUserAction@@', 00H
data$r	ENDS
;	COMDAT ??_R4ITableUserAction@@6B@
rdata$r	SEGMENT
??_R4ITableUserAction@@6B@ DD 00H			; ITableUserAction::`RTTI Complete Object Locator'
	DD	00H
	DD	00H
	DD	FLAT:??_R0?AUITableUserAction@@@8
	DD	FLAT:??_R3ITableUserAction@@8
rdata$r	ENDS
;	COMDAT ??_R1A@?0A@EA@ITableFrameSink@@8
rdata$r	SEGMENT
??_R1A@?0A@EA@ITableFrameSink@@8 DD FLAT:??_R0?AUITableFrameSink@@@8 ; ITableFrameSink::`RTTI Base Class Descriptor at (0,-1,0,64)'
	DD	01H
	DD	00H
	DD	0ffffffffH
	DD	00H
	DD	040H
	DD	FLAT:??_R3ITableFrameSink@@8
rdata$r	ENDS
;	COMDAT ??_R2ITableFrameSink@@8
rdata$r	SEGMENT
??_R2ITableFrameSink@@8 DD FLAT:??_R1A@?0A@EA@ITableFrameSink@@8 ; ITableFrameSink::`RTTI Base Class Array'
	DD	FLAT:??_R1A@?0A@EA@IUnknownEx@@8
rdata$r	ENDS
;	COMDAT ??_R3ITableFrameSink@@8
rdata$r	SEGMENT
??_R3ITableFrameSink@@8 DD 00H				; ITableFrameSink::`RTTI Class Hierarchy Descriptor'
	DD	00H
	DD	02H
	DD	FLAT:??_R2ITableFrameSink@@8
rdata$r	ENDS
;	COMDAT ??_R0?AUITableFrameSink@@@8
data$r	SEGMENT
??_R0?AUITableFrameSink@@@8 DD FLAT:??_7type_info@@6B@	; ITableFrameSink `RTTI Type Descriptor'
	DD	00H
	DB	'.?AUITableFrameSink@@', 00H
data$r	ENDS
;	COMDAT ??_R4ITableFrameSink@@6B@
rdata$r	SEGMENT
??_R4ITableFrameSink@@6B@ DD 00H			; ITableFrameSink::`RTTI Complete Object Locator'
	DD	00H
	DD	00H
	DD	FLAT:??_R0?AUITableFrameSink@@@8
	DD	FLAT:??_R3ITableFrameSink@@8
rdata$r	ENDS
;	COMDAT ??_R1A@?0A@EA@IUnknownEx@@8
rdata$r	SEGMENT
??_R1A@?0A@EA@IUnknownEx@@8 DD FLAT:??_R0?AUIUnknownEx@@@8 ; IUnknownEx::`RTTI Base Class Descriptor at (0,-1,0,64)'
	DD	00H
	DD	00H
	DD	0ffffffffH
	DD	00H
	DD	040H
	DD	FLAT:??_R3IUnknownEx@@8
rdata$r	ENDS
;	COMDAT ??_R2IUnknownEx@@8
rdata$r	SEGMENT
??_R2IUnknownEx@@8 DD FLAT:??_R1A@?0A@EA@IUnknownEx@@8	; IUnknownEx::`RTTI Base Class Array'
rdata$r	ENDS
;	COMDAT ??_R3IUnknownEx@@8
rdata$r	SEGMENT
??_R3IUnknownEx@@8 DD 00H				; IUnknownEx::`RTTI Class Hierarchy Descriptor'
	DD	00H
	DD	01H
	DD	FLAT:??_R2IUnknownEx@@8
rdata$r	ENDS
;	COMDAT ??_R0?AUIUnknownEx@@@8
data$r	SEGMENT
??_R0?AUIUnknownEx@@@8 DD FLAT:??_7type_info@@6B@	; IUnknownEx `RTTI Type Descriptor'
	DD	00H
	DB	'.?AUIUnknownEx@@', 00H
data$r	ENDS
;	COMDAT ??_R4IUnknownEx@@6B@
rdata$r	SEGMENT
??_R4IUnknownEx@@6B@ DD 00H				; IUnknownEx::`RTTI Complete Object Locator'
	DD	00H
	DD	00H
	DD	FLAT:??_R0?AUIUnknownEx@@@8
	DD	FLAT:??_R3IUnknownEx@@8
rdata$r	ENDS
;	COMDAT ??_R1A@?0A@EA@CAtlStringMgr@ATL@@8
rdata$r	SEGMENT
??_R1A@?0A@EA@CAtlStringMgr@ATL@@8 DD FLAT:??_R0?AVCAtlStringMgr@ATL@@@8 ; ATL::CAtlStringMgr::`RTTI Base Class Descriptor at (0,-1,0,64)'
	DD	01H
	DD	00H
	DD	0ffffffffH
	DD	00H
	DD	040H
	DD	FLAT:??_R3CAtlStringMgr@ATL@@8
rdata$r	ENDS
;	COMDAT ??_R2CAtlStringMgr@ATL@@8
rdata$r	SEGMENT
??_R2CAtlStringMgr@ATL@@8 DD FLAT:??_R1A@?0A@EA@CAtlStringMgr@ATL@@8 ; ATL::CAtlStringMgr::`RTTI Base Class Array'
	DD	FLAT:??_R1A@?0A@EA@IAtlStringMgr@ATL@@8
rdata$r	ENDS
;	COMDAT ??_R3CAtlStringMgr@ATL@@8
rdata$r	SEGMENT
??_R3CAtlStringMgr@ATL@@8 DD 00H			; ATL::CAtlStringMgr::`RTTI Class Hierarchy Descriptor'
	DD	00H
	DD	02H
	DD	FLAT:??_R2CAtlStringMgr@ATL@@8
rdata$r	ENDS
;	COMDAT ??_R0?AVCAtlStringMgr@ATL@@@8
data$r	SEGMENT
??_R0?AVCAtlStringMgr@ATL@@@8 DD FLAT:??_7type_info@@6B@ ; ATL::CAtlStringMgr `RTTI Type Descriptor'
	DD	00H
	DB	'.?AVCAtlStringMgr@ATL@@', 00H
data$r	ENDS
;	COMDAT ??_R4CAtlStringMgr@ATL@@6B@
rdata$r	SEGMENT
??_R4CAtlStringMgr@ATL@@6B@ DD 00H			; ATL::CAtlStringMgr::`RTTI Complete Object Locator'
	DD	00H
	DD	00H
	DD	FLAT:??_R0?AVCAtlStringMgr@ATL@@@8
	DD	FLAT:??_R3CAtlStringMgr@ATL@@8
rdata$r	ENDS
;	COMDAT ??_R2IAtlStringMgr@ATL@@8
rdata$r	SEGMENT
??_R2IAtlStringMgr@ATL@@8 DD FLAT:??_R1A@?0A@EA@IAtlStringMgr@ATL@@8 ; ATL::IAtlStringMgr::`RTTI Base Class Array'
rdata$r	ENDS
;	COMDAT ??_R3IAtlStringMgr@ATL@@8
rdata$r	SEGMENT
??_R3IAtlStringMgr@ATL@@8 DD 00H			; ATL::IAtlStringMgr::`RTTI Class Hierarchy Descriptor'
	DD	00H
	DD	01H
	DD	FLAT:??_R2IAtlStringMgr@ATL@@8
rdata$r	ENDS
;	COMDAT ??_R0?AUIAtlStringMgr@ATL@@@8
data$r	SEGMENT
??_R0?AUIAtlStringMgr@ATL@@@8 DD FLAT:??_7type_info@@6B@ ; ATL::IAtlStringMgr `RTTI Type Descriptor'
	DD	00H
	DB	'.?AUIAtlStringMgr@ATL@@', 00H
data$r	ENDS
;	COMDAT ??_R1A@?0A@EA@IAtlStringMgr@ATL@@8
rdata$r	SEGMENT
??_R1A@?0A@EA@IAtlStringMgr@ATL@@8 DD FLAT:??_R0?AUIAtlStringMgr@ATL@@@8 ; ATL::IAtlStringMgr::`RTTI Base Class Descriptor at (0,-1,0,64)'
	DD	00H
	DD	00H
	DD	0ffffffffH
	DD	00H
	DD	040H
	DD	FLAT:??_R3IAtlStringMgr@ATL@@8
rdata$r	ENDS
;	COMDAT ??_R2IAtlMemMgr@ATL@@8
rdata$r	SEGMENT
??_R2IAtlMemMgr@ATL@@8 DD FLAT:??_R1A@?0A@EA@IAtlMemMgr@ATL@@8 ; ATL::IAtlMemMgr::`RTTI Base Class Array'
rdata$r	ENDS
;	COMDAT ??_R3IAtlMemMgr@ATL@@8
rdata$r	SEGMENT
??_R3IAtlMemMgr@ATL@@8 DD 00H				; ATL::IAtlMemMgr::`RTTI Class Hierarchy Descriptor'
	DD	00H
	DD	01H
	DD	FLAT:??_R2IAtlMemMgr@ATL@@8
rdata$r	ENDS
;	COMDAT ??_R0?AUIAtlMemMgr@ATL@@@8
data$r	SEGMENT
??_R0?AUIAtlMemMgr@ATL@@@8 DD FLAT:??_7type_info@@6B@	; ATL::IAtlMemMgr `RTTI Type Descriptor'
	DD	00H
	DB	'.?AUIAtlMemMgr@ATL@@', 00H
data$r	ENDS
;	COMDAT ??_R1A@?0A@EA@IAtlMemMgr@ATL@@8
rdata$r	SEGMENT
??_R1A@?0A@EA@IAtlMemMgr@ATL@@8 DD FLAT:??_R0?AUIAtlMemMgr@ATL@@@8 ; ATL::IAtlMemMgr::`RTTI Base Class Descriptor at (0,-1,0,64)'
	DD	00H
	DD	00H
	DD	0ffffffffH
	DD	00H
	DD	040H
	DD	FLAT:??_R3IAtlMemMgr@ATL@@8
rdata$r	ENDS
;	COMDAT ??_R1A@?0A@EA@CWin32Heap@ATL@@8
rdata$r	SEGMENT
??_R1A@?0A@EA@CWin32Heap@ATL@@8 DD FLAT:??_R0?AVCWin32Heap@ATL@@@8 ; ATL::CWin32Heap::`RTTI Base Class Descriptor at (0,-1,0,64)'
	DD	01H
	DD	00H
	DD	0ffffffffH
	DD	00H
	DD	040H
	DD	FLAT:??_R3CWin32Heap@ATL@@8
rdata$r	ENDS
;	COMDAT ??_R2CWin32Heap@ATL@@8
rdata$r	SEGMENT
??_R2CWin32Heap@ATL@@8 DD FLAT:??_R1A@?0A@EA@CWin32Heap@ATL@@8 ; ATL::CWin32Heap::`RTTI Base Class Array'
	DD	FLAT:??_R1A@?0A@EA@IAtlMemMgr@ATL@@8
rdata$r	ENDS
;	COMDAT ??_R3CWin32Heap@ATL@@8
rdata$r	SEGMENT
??_R3CWin32Heap@ATL@@8 DD 00H				; ATL::CWin32Heap::`RTTI Class Hierarchy Descriptor'
	DD	00H
	DD	02H
	DD	FLAT:??_R2CWin32Heap@ATL@@8
rdata$r	ENDS
;	COMDAT ??_R0?AVCWin32Heap@ATL@@@8
data$r	SEGMENT
??_R0?AVCWin32Heap@ATL@@@8 DD FLAT:??_7type_info@@6B@	; ATL::CWin32Heap `RTTI Type Descriptor'
	DD	00H
	DB	'.?AVCWin32Heap@ATL@@', 00H
data$r	ENDS
;	COMDAT ??_R4CWin32Heap@ATL@@6B@
rdata$r	SEGMENT
??_R4CWin32Heap@ATL@@6B@ DD 00H				; ATL::CWin32Heap::`RTTI Complete Object Locator'
	DD	00H
	DD	00H
	DD	FLAT:??_R0?AVCWin32Heap@ATL@@@8
	DD	FLAT:??_R3CWin32Heap@ATL@@8
rdata$r	ENDS
;	COMDAT ??_C@_0BD@OLBABOEK@vector?$DMT?$DO?5too?5long?$AA@
CONST	SEGMENT
??_C@_0BD@OLBABOEK@vector?$DMT?$DO?5too?5long?$AA@ DB 'vector<T> too long'
	DB	00H						; `string'
CONST	ENDS
;	COMDAT ??_7CTableFrameSink@@6BITableUserAction@@@
CONST	SEGMENT
??_7CTableFrameSink@@6BITableUserAction@@@ DD FLAT:??_R4CTableFrameSink@@6BITableUserAction@@@ ; CTableFrameSink::`vftable'
	DD	FLAT:?Release@CTableFrameSink@@W3AEXXZ
	DD	FLAT:?QueryInterface@CTableFrameSink@@W3AEPAXABU_GUID@@K@Z
	DD	FLAT:?OnActionUserOffLine@CTableFrameSink@@UAE_NGPAUIServerUserItem@@@Z
	DD	FLAT:?OnActionUserConnect@CTableFrameSink@@UAE_NGPAUIServerUserItem@@@Z
	DD	FLAT:?OnActionUserSitDown@CTableFrameSink@@UAE_NGPAUIServerUserItem@@_N@Z
	DD	FLAT:?OnActionUserStandUp@CTableFrameSink@@UAE_NGPAUIServerUserItem@@_N@Z
	DD	FLAT:?OnActionUserOnReady@CTableFrameSink@@UAE_NGPAUIServerUserItem@@PAXG@Z
CONST	ENDS
;	COMDAT ??_7CTableFrameSink@@6BITableFrameSink@@@
CONST	SEGMENT
??_7CTableFrameSink@@6BITableFrameSink@@@ DD FLAT:??_R4CTableFrameSink@@6BITableFrameSink@@@ ; CTableFrameSink::`vftable'
	DD	FLAT:?Release@CTableFrameSink@@UAEXXZ
	DD	FLAT:?QueryInterface@CTableFrameSink@@UAEPAXABU_GUID@@K@Z
	DD	FLAT:?RepositionSink@CTableFrameSink@@UAEXXZ
	DD	FLAT:?Initialization@CTableFrameSink@@UAE_NPAUIUnknownEx@@@Z
	DD	FLAT:?QueryConsumeQuota@CTableFrameSink@@UAE_JPAUIServerUserItem@@@Z
	DD	FLAT:?QueryLessEnterScore@CTableFrameSink@@UAE_JGPAUIServerUserItem@@@Z
	DD	FLAT:?QueryBuckleServiceCharge@CTableFrameSink@@UAE_NG@Z
	DD	FLAT:?OnEventGameStart@CTableFrameSink@@UAE_NXZ
	DD	FLAT:?OnEventGameConclude@CTableFrameSink@@UAE_NGPAUIServerUserItem@@E@Z
	DD	FLAT:?OnEventSendGameScene@CTableFrameSink@@UAE_NGPAUIServerUserItem@@E_N@Z
	DD	FLAT:?OnTimerMessage@CTableFrameSink@@UAE_NKI@Z
	DD	FLAT:?OnDataBaseMessage@CTableFrameSink@@UAE_NGPAXG@Z
	DD	FLAT:?OnUserScroeNotify@CTableFrameSink@@UAE_NGPAUIServerUserItem@@E@Z
	DD	FLAT:?OnGameMessage@CTableFrameSink@@UAE_NGPAXGPAUIServerUserItem@@@Z
	DD	FLAT:?OnFrameMessage@CTableFrameSink@@UAE_NGPAXGPAUIServerUserItem@@@Z
	DD	FLAT:?SetGameBaseScore@CTableFrameSink@@UAEXJ@Z
	DD	FLAT:??_ECTableFrameSink@@UAEPAXI@Z
CONST	ENDS
;	COMDAT ??_7ITableUserAction@@6B@
CONST	SEGMENT
??_7ITableUserAction@@6B@ DD FLAT:??_R4ITableUserAction@@6B@ ; ITableUserAction::`vftable'
	DD	FLAT:__purecall
	DD	FLAT:__purecall
	DD	FLAT:__purecall
	DD	FLAT:__purecall
	DD	FLAT:__purecall
	DD	FLAT:__purecall
	DD	FLAT:__purecall
CONST	ENDS
;	COMDAT ??_7ITableFrameSink@@6B@
CONST	SEGMENT
??_7ITableFrameSink@@6B@ DD FLAT:??_R4ITableFrameSink@@6B@ ; ITableFrameSink::`vftable'
	DD	FLAT:__purecall
	DD	FLAT:__purecall
	DD	FLAT:__purecall
	DD	FLAT:__purecall
	DD	FLAT:__purecall
	DD	FLAT:__purecall
	DD	FLAT:__purecall
	DD	FLAT:__purecall
	DD	FLAT:__purecall
	DD	FLAT:__purecall
	DD	FLAT:__purecall
	DD	FLAT:__purecall
	DD	FLAT:__purecall
	DD	FLAT:__purecall
	DD	FLAT:__purecall
	DD	FLAT:__purecall
CONST	ENDS
;	COMDAT ??_7IUnknownEx@@6B@
CONST	SEGMENT
??_7IUnknownEx@@6B@ DD FLAT:??_R4IUnknownEx@@6B@	; IUnknownEx::`vftable'
	DD	FLAT:__purecall
	DD	FLAT:__purecall
CONST	ENDS
;	COMDAT ??_7CAtlStringMgr@ATL@@6B@
CONST	SEGMENT
??_7CAtlStringMgr@ATL@@6B@ DD FLAT:??_R4CAtlStringMgr@ATL@@6B@ ; ATL::CAtlStringMgr::`vftable'
	DD	FLAT:?Allocate@CAtlStringMgr@ATL@@UAEPAUCStringData@2@HH@Z
	DD	FLAT:?Free@CAtlStringMgr@ATL@@UAEXPAUCStringData@2@@Z
	DD	FLAT:?Reallocate@CAtlStringMgr@ATL@@UAEPAUCStringData@2@PAU32@HH@Z
	DD	FLAT:?GetNilString@CAtlStringMgr@ATL@@UAEPAUCStringData@2@XZ
	DD	FLAT:?Clone@CAtlStringMgr@ATL@@UAEPAUIAtlStringMgr@2@XZ
	DD	FLAT:??_ECAtlStringMgr@ATL@@UAEPAXI@Z
CONST	ENDS
;	COMDAT ??_7CWin32Heap@ATL@@6B@
CONST	SEGMENT
??_7CWin32Heap@ATL@@6B@ DD FLAT:??_R4CWin32Heap@ATL@@6B@ ; ATL::CWin32Heap::`vftable'
	DD	FLAT:?Allocate@CWin32Heap@ATL@@UAEPAXI@Z
	DD	FLAT:?Free@CWin32Heap@ATL@@UAEXPAX@Z
	DD	FLAT:?Reallocate@CWin32Heap@ATL@@UAEPAXPAXI@Z
	DD	FLAT:?GetSize@CWin32Heap@ATL@@UAEIPAX@Z
	DD	FLAT:??_ECWin32Heap@ATL@@UAEPAXI@Z
CONST	ENDS
xdata$x	SEGMENT
__unwindtable$?WriteDebugInfo@CTableFrameSink@@IAEXPB_W@Z DD 0ffffffffH
	DD	FLAT:__unwindfunclet$?WriteDebugInfo@CTableFrameSink@@IAEXPB_W@Z$0
__unwindtable$?SendOperateNotify@CTableFrameSink@@IAE_NXZ DD 0ffffffffH
	DD	FLAT:__unwindfunclet$?SendOperateNotify@CTableFrameSink@@IAE_NXZ$0
__unwindtable$?OnUserOutCard@CTableFrameSink@@IAE_NGE_N@Z DD 0ffffffffH
	DD	FLAT:__unwindfunclet$?OnUserOutCard@CTableFrameSink@@IAE_NGE_N@Z$0
__unwindtable$?OnActionUserStandUp@CTableFrameSink@@UAE_NGPAUIServerUserItem@@_N@Z DD 0ffffffffH
	DD	FLAT:__unwindfunclet$?OnActionUserStandUp@CTableFrameSink@@UAE_NGPAUIServerUserItem@@_N@Z$0
__unwindtable$?OnActionUserSitDown@CTableFrameSink@@UAE_NGPAUIServerUserItem@@_N@Z DD 0ffffffffH
	DD	FLAT:__unwindfunclet$?OnActionUserSitDown@CTableFrameSink@@UAE_NGPAUIServerUserItem@@_N@Z$0
__unwindtable$?OnEventSendGameScene@CTableFrameSink@@UAE_NGPAUIServerUserItem@@E_N@Z DD 0ffffffffH
	DD	FLAT:__unwindfunclet$?OnEventSendGameScene@CTableFrameSink@@UAE_NGPAUIServerUserItem@@E_N@Z$0
__unwindtable$?OnEventGameConclude@CTableFrameSink@@UAE_NGPAUIServerUserItem@@E@Z DD 0ffffffffH
	DD	FLAT:__unwindfunclet$?OnEventGameConclude@CTableFrameSink@@UAE_NGPAUIServerUserItem@@E@Z$0
__unwindtable$?OnEventGameStart@CTableFrameSink@@UAE_NXZ DD 0ffffffffH
	DD	FLAT:__unwindfunclet$?OnEventGameStart@CTableFrameSink@@UAE_NXZ$0
__unwindtable$?OnUserTrustee@CTableFrameSink@@IAE_NG_N@Z DD 0ffffffffH
	DD	FLAT:__unwindfunclet$?OnUserTrustee@CTableFrameSink@@IAE_NG_N@Z$0
	DD	0ffffffffH
	DD	FLAT:__unwindfunclet$?OnUserTrustee@CTableFrameSink@@IAE_NG_N@Z$1
__unwindtable$?OnUserOperateCard@CTableFrameSink@@IAE_NGEQAE@Z DD 0ffffffffH
	DD	FLAT:__unwindfunclet$?OnUserOperateCard@CTableFrameSink@@IAE_NGEQAE@Z$0
	DD	0ffffffffH
	DD	FLAT:__unwindfunclet$?OnUserOperateCard@CTableFrameSink@@IAE_NGEQAE@Z$1
__unwindtable$?OnTimerMessage@CTableFrameSink@@UAE_NKI@Z DD 0ffffffffH
	DD	FLAT:__unwindfunclet$?OnTimerMessage@CTableFrameSink@@UAE_NKI@Z$0
	DD	0ffffffffH
	DD	FLAT:__unwindfunclet$?OnTimerMessage@CTableFrameSink@@UAE_NKI@Z$1
__ehfuncinfo$?WriteDebugInfo@CTableFrameSink@@IAEXPB_W@Z DD 019930522H
	DD	01H
	DD	FLAT:__unwindtable$?WriteDebugInfo@CTableFrameSink@@IAEXPB_W@Z
	DD	2 DUP(00H)
	DD	2 DUP(00H)
	DD	00H
	DD	01H
__ehfuncinfo$?SendOperateNotify@CTableFrameSink@@IAE_NXZ DD 019930522H
	DD	01H
	DD	FLAT:__unwindtable$?SendOperateNotify@CTableFrameSink@@IAE_NXZ
	DD	2 DUP(00H)
	DD	2 DUP(00H)
	DD	00H
	DD	01H
__ehfuncinfo$?OnUserTrustee@CTableFrameSink@@IAE_NG_N@Z DD 019930522H
	DD	02H
	DD	FLAT:__unwindtable$?OnUserTrustee@CTableFrameSink@@IAE_NG_N@Z
	DD	2 DUP(00H)
	DD	2 DUP(00H)
	DD	00H
	DD	01H
__ehfuncinfo$?OnUserOperateCard@CTableFrameSink@@IAE_NGEQAE@Z DD 019930522H
	DD	02H
	DD	FLAT:__unwindtable$?OnUserOperateCard@CTableFrameSink@@IAE_NGEQAE@Z
	DD	2 DUP(00H)
	DD	2 DUP(00H)
	DD	00H
	DD	01H
__ehfuncinfo$?OnUserOutCard@CTableFrameSink@@IAE_NGE_N@Z DD 019930522H
	DD	01H
	DD	FLAT:__unwindtable$?OnUserOutCard@CTableFrameSink@@IAE_NGE_N@Z
	DD	2 DUP(00H)
	DD	2 DUP(00H)
	DD	00H
	DD	01H
__ehfuncinfo$?OnActionUserStandUp@CTableFrameSink@@UAE_NGPAUIServerUserItem@@_N@Z DD 019930522H
	DD	01H
	DD	FLAT:__unwindtable$?OnActionUserStandUp@CTableFrameSink@@UAE_NGPAUIServerUserItem@@_N@Z
	DD	2 DUP(00H)
	DD	2 DUP(00H)
	DD	00H
	DD	01H
__ehfuncinfo$?OnActionUserSitDown@CTableFrameSink@@UAE_NGPAUIServerUserItem@@_N@Z DD 019930522H
	DD	01H
	DD	FLAT:__unwindtable$?OnActionUserSitDown@CTableFrameSink@@UAE_NGPAUIServerUserItem@@_N@Z
	DD	2 DUP(00H)
	DD	2 DUP(00H)
	DD	00H
	DD	01H
__ehfuncinfo$?OnTimerMessage@CTableFrameSink@@UAE_NKI@Z DD 019930522H
	DD	02H
	DD	FLAT:__unwindtable$?OnTimerMessage@CTableFrameSink@@UAE_NKI@Z
	DD	2 DUP(00H)
	DD	2 DUP(00H)
	DD	00H
	DD	01H
__ehfuncinfo$?OnEventSendGameScene@CTableFrameSink@@UAE_NGPAUIServerUserItem@@E_N@Z DD 019930522H
	DD	01H
	DD	FLAT:__unwindtable$?OnEventSendGameScene@CTableFrameSink@@UAE_NGPAUIServerUserItem@@E_N@Z
	DD	2 DUP(00H)
	DD	2 DUP(00H)
	DD	00H
	DD	01H
__ehfuncinfo$?OnEventGameConclude@CTableFrameSink@@UAE_NGPAUIServerUserItem@@E@Z DD 019930522H
	DD	01H
	DD	FLAT:__unwindtable$?OnEventGameConclude@CTableFrameSink@@UAE_NGPAUIServerUserItem@@E@Z
	DD	2 DUP(00H)
	DD	2 DUP(00H)
	DD	00H
	DD	01H
__ehfuncinfo$?OnEventGameStart@CTableFrameSink@@UAE_NXZ DD 019930522H
	DD	01H
	DD	FLAT:__unwindtable$?OnEventGameStart@CTableFrameSink@@UAE_NXZ
	DD	2 DUP(00H)
	DD	2 DUP(00H)
	DD	00H
	DD	01H
__ehfuncinfo$??1CTableFrameSink@@UAE@XZ DD 019930522H
	DD	00H
	DD	00H
	DD	2 DUP(00H)
	DD	2 DUP(00H)
	DD	00H
	DD	05H
__ehfuncinfo$??0CTableFrameSink@@QAE@XZ DD 019930522H
	DD	05H
	DD	FLAT:__unwindtable$??0CTableFrameSink@@QAE@XZ
	DD	2 DUP(00H)
	DD	2 DUP(00H)
	DD	00H
	DD	01H
__unwindtable$??0CTableFrameSink@@QAE@XZ DD 0ffffffffH
	DD	FLAT:__unwindfunclet$??0CTableFrameSink@@QAE@XZ$0
	DD	00H
	DD	FLAT:__unwindfunclet$??0CTableFrameSink@@QAE@XZ$1
	DD	01H
	DD	FLAT:__unwindfunclet$??0CTableFrameSink@@QAE@XZ$2
	DD	02H
	DD	FLAT:__unwindfunclet$??0CTableFrameSink@@QAE@XZ$3
	DD	03H
	DD	FLAT:__unwindfunclet$??0CTableFrameSink@@QAE@XZ$4
xdata$x	ENDS
;	COMDAT xdata$x
xdata$x	SEGMENT
__ehfuncinfo$?clear@?$vector@EV?$allocator@E@std@@@std@@QAEXXZ DD 019930522H
	DD	00H
	DD	00H
	DD	2 DUP(00H)
	DD	2 DUP(00H)
	DD	00H
	DD	05H
xdata$x	ENDS
;	COMDAT xdata$x
xdata$x	SEGMENT
__ehfuncinfo$??1?$vector@EV?$allocator@E@std@@@std@@QAE@XZ DD 019930522H
	DD	00H
	DD	00H
	DD	2 DUP(00H)
	DD	2 DUP(00H)
	DD	00H
	DD	05H
xdata$x	ENDS
;	COMDAT xdata$x
xdata$x	SEGMENT
__ehfuncinfo$??0?$vector@EV?$allocator@E@std@@@std@@QAE@XZ DD 019930522H
	DD	00H
	DD	00H
	DD	2 DUP(00H)
	DD	2 DUP(00H)
	DD	00H
	DD	05H
xdata$x	ENDS
;	COMDAT xdata$x
xdata$x	SEGMENT
__catchsym$?_Reallocate@?$vector@_JV?$allocator@_J@std@@@std@@IAEXI@Z$2 DD 040H
	DD	00H
	DD	00H
	DD	FLAT:__catch$?_Reallocate@?$vector@_JV?$allocator@_J@std@@@std@@IAEXI@Z$0
__unwindtable$?_Reallocate@?$vector@_JV?$allocator@_J@std@@@std@@IAEXI@Z DD 0ffffffffH
	DD	00H
	DD	0ffffffffH
	DD	00H
__tryblocktable$?_Reallocate@?$vector@_JV?$allocator@_J@std@@@std@@IAEXI@Z DD 00H
	DD	00H
	DD	01H
	DD	01H
	DD	FLAT:__catchsym$?_Reallocate@?$vector@_JV?$allocator@_J@std@@@std@@IAEXI@Z$2
__ehfuncinfo$?_Reallocate@?$vector@_JV?$allocator@_J@std@@@std@@IAEXI@Z DD 019930522H
	DD	02H
	DD	FLAT:__unwindtable$?_Reallocate@?$vector@_JV?$allocator@_J@std@@@std@@IAEXI@Z
	DD	01H
	DD	FLAT:__tryblocktable$?_Reallocate@?$vector@_JV?$allocator@_J@std@@@std@@IAEXI@Z
	DD	2 DUP(00H)
	DD	00H
	DD	01H
xdata$x	ENDS
;	COMDAT xdata$x
xdata$x	SEGMENT
__ehfuncinfo$?clear@?$vector@_JV?$allocator@_J@std@@@std@@QAEXXZ DD 019930522H
	DD	00H
	DD	00H
	DD	2 DUP(00H)
	DD	2 DUP(00H)
	DD	00H
	DD	05H
xdata$x	ENDS
;	COMDAT xdata$x
xdata$x	SEGMENT
__ehfuncinfo$?begin@?$vector@_JV?$allocator@_J@std@@@std@@QAE?AV?$_Vector_iterator@V?$_Vector_val@U?$_Simple_types@_J@std@@@std@@@2@XZ DD 019930522H
	DD	00H
	DD	00H
	DD	2 DUP(00H)
	DD	2 DUP(00H)
	DD	00H
	DD	05H
xdata$x	ENDS
;	COMDAT xdata$x
xdata$x	SEGMENT
__ehfuncinfo$??1?$vector@_JV?$allocator@_J@std@@@std@@QAE@XZ DD 019930522H
	DD	00H
	DD	00H
	DD	2 DUP(00H)
	DD	2 DUP(00H)
	DD	00H
	DD	05H
xdata$x	ENDS
;	COMDAT xdata$x
xdata$x	SEGMENT
__ehfuncinfo$??0?$vector@_JV?$allocator@_J@std@@@std@@QAE@XZ DD 019930522H
	DD	00H
	DD	00H
	DD	2 DUP(00H)
	DD	2 DUP(00H)
	DD	00H
	DD	05H
xdata$x	ENDS
;	COMDAT xdata$x
xdata$x	SEGMENT
__ehfuncinfo$??1CAtlWinModule@ATL@@QAE@XZ DD 019930522H
	DD	00H
	DD	00H
	DD	2 DUP(00H)
	DD	2 DUP(00H)
	DD	00H
	DD	05H
xdata$x	ENDS
;	COMDAT xdata$x
xdata$x	SEGMENT
__ehfuncinfo$??1CAtlComModule@ATL@@QAE@XZ DD 019930522H
	DD	00H
	DD	00H
	DD	2 DUP(00H)
	DD	2 DUP(00H)
	DD	00H
	DD	05H
xdata$x	ENDS
;	COMDAT xdata$x
xdata$x	SEGMENT
__unwindtable$??0_ATL_WIN_MODULE70@ATL@@QAE@XZ DD 0ffffffffH
	DD	FLAT:__unwindfunclet$??0_ATL_WIN_MODULE70@ATL@@QAE@XZ$0
__ehfuncinfo$??0_ATL_WIN_MODULE70@ATL@@QAE@XZ DD 019930522H
	DD	01H
	DD	FLAT:__unwindtable$??0_ATL_WIN_MODULE70@ATL@@QAE@XZ
	DD	2 DUP(00H)
	DD	2 DUP(00H)
	DD	00H
	DD	01H
xdata$x	ENDS
;	COMDAT xdata$x
xdata$x	SEGMENT
__ehfuncinfo$??1?$CSimpleArray@GV?$CSimpleArrayEqualHelper@G@ATL@@@ATL@@QAE@XZ DD 019930522H
	DD	00H
	DD	00H
	DD	2 DUP(00H)
	DD	2 DUP(00H)
	DD	00H
	DD	05H
xdata$x	ENDS
;	COMDAT CRT$XCU
CRT$XCU	SEGMENT
?atlTraceCOM$initializer$@ATL@@3P6AXXZA DD FLAT:??__EatlTraceCOM@ATL@@YAXXZ ; ATL::atlTraceCOM$initializer$
CRT$XCU	ENDS
;	COMDAT CRT$XCU
CRT$XCU	SEGMENT
?atlTraceQI$initializer$@ATL@@3P6AXXZA DD FLAT:??__EatlTraceQI@ATL@@YAXXZ ; ATL::atlTraceQI$initializer$
CRT$XCU	ENDS
;	COMDAT CRT$XCU
CRT$XCU	SEGMENT
?atlTraceRegistrar$initializer$@ATL@@3P6AXXZA DD FLAT:??__EatlTraceRegistrar@ATL@@YAXXZ ; ATL::atlTraceRegistrar$initializer$
CRT$XCU	ENDS
;	COMDAT CRT$XCU
CRT$XCU	SEGMENT
?atlTraceRefcount$initializer$@ATL@@3P6AXXZA DD FLAT:??__EatlTraceRefcount@ATL@@YAXXZ ; ATL::atlTraceRefcount$initializer$
CRT$XCU	ENDS
;	COMDAT CRT$XCU
CRT$XCU	SEGMENT
?atlTraceWindowing$initializer$@ATL@@3P6AXXZA DD FLAT:??__EatlTraceWindowing@ATL@@YAXXZ ; ATL::atlTraceWindowing$initializer$
CRT$XCU	ENDS
;	COMDAT CRT$XCU
CRT$XCU	SEGMENT
?atlTraceControls$initializer$@ATL@@3P6AXXZA DD FLAT:??__EatlTraceControls@ATL@@YAXXZ ; ATL::atlTraceControls$initializer$
CRT$XCU	ENDS
;	COMDAT CRT$XCU
CRT$XCU	SEGMENT
?atlTraceHosting$initializer$@ATL@@3P6AXXZA DD FLAT:??__EatlTraceHosting@ATL@@YAXXZ ; ATL::atlTraceHosting$initializer$
CRT$XCU	ENDS
;	COMDAT CRT$XCU
CRT$XCU	SEGMENT
?atlTraceDBClient$initializer$@ATL@@3P6AXXZA DD FLAT:??__EatlTraceDBClient@ATL@@YAXXZ ; ATL::atlTraceDBClient$initializer$
CRT$XCU	ENDS
;	COMDAT CRT$XCU
CRT$XCU	SEGMENT
?atlTraceDBProvider$initializer$@ATL@@3P6AXXZA DD FLAT:??__EatlTraceDBProvider@ATL@@YAXXZ ; ATL::atlTraceDBProvider$initializer$
CRT$XCU	ENDS
;	COMDAT CRT$XCU
CRT$XCU	SEGMENT
?atlTraceSnapin$initializer$@ATL@@3P6AXXZA DD FLAT:??__EatlTraceSnapin@ATL@@YAXXZ ; ATL::atlTraceSnapin$initializer$
CRT$XCU	ENDS
;	COMDAT CRT$XCU
CRT$XCU	SEGMENT
?atlTraceNotImpl$initializer$@ATL@@3P6AXXZA DD FLAT:??__EatlTraceNotImpl@ATL@@YAXXZ ; ATL::atlTraceNotImpl$initializer$
CRT$XCU	ENDS
;	COMDAT CRT$XCU
CRT$XCU	SEGMENT
?atlTraceAllocation$initializer$@ATL@@3P6AXXZA DD FLAT:??__EatlTraceAllocation@ATL@@YAXXZ ; ATL::atlTraceAllocation$initializer$
CRT$XCU	ENDS
;	COMDAT CRT$XCU
CRT$XCU	SEGMENT
?atlTraceException$initializer$@ATL@@3P6AXXZA DD FLAT:??__EatlTraceException@ATL@@YAXXZ ; ATL::atlTraceException$initializer$
CRT$XCU	ENDS
;	COMDAT CRT$XCU
CRT$XCU	SEGMENT
?atlTraceTime$initializer$@ATL@@3P6AXXZA DD FLAT:??__EatlTraceTime@ATL@@YAXXZ ; ATL::atlTraceTime$initializer$
CRT$XCU	ENDS
;	COMDAT CRT$XCU
CRT$XCU	SEGMENT
?atlTraceCache$initializer$@ATL@@3P6AXXZA DD FLAT:??__EatlTraceCache@ATL@@YAXXZ ; ATL::atlTraceCache$initializer$
CRT$XCU	ENDS
;	COMDAT CRT$XCU
CRT$XCU	SEGMENT
?atlTraceStencil$initializer$@ATL@@3P6AXXZA DD FLAT:??__EatlTraceStencil@ATL@@YAXXZ ; ATL::atlTraceStencil$initializer$
CRT$XCU	ENDS
;	COMDAT CRT$XCU
CRT$XCU	SEGMENT
?atlTraceString$initializer$@ATL@@3P6AXXZA DD FLAT:??__EatlTraceString@ATL@@YAXXZ ; ATL::atlTraceString$initializer$
CRT$XCU	ENDS
;	COMDAT CRT$XCU
CRT$XCU	SEGMENT
?atlTraceMap$initializer$@ATL@@3P6AXXZA DD FLAT:??__EatlTraceMap@ATL@@YAXXZ ; ATL::atlTraceMap$initializer$
CRT$XCU	ENDS
;	COMDAT CRT$XCU
CRT$XCU	SEGMENT
?atlTraceUtil$initializer$@ATL@@3P6AXXZA DD FLAT:??__EatlTraceUtil@ATL@@YAXXZ ; ATL::atlTraceUtil$initializer$
CRT$XCU	ENDS
;	COMDAT CRT$XCU
CRT$XCU	SEGMENT
?atlTraceSecurity$initializer$@ATL@@3P6AXXZA DD FLAT:??__EatlTraceSecurity@ATL@@YAXXZ ; ATL::atlTraceSecurity$initializer$
CRT$XCU	ENDS
;	COMDAT CRT$XCU
CRT$XCU	SEGMENT
?atlTraceSync$initializer$@ATL@@3P6AXXZA DD FLAT:??__EatlTraceSync@ATL@@YAXXZ ; ATL::atlTraceSync$initializer$
CRT$XCU	ENDS
;	COMDAT CRT$XCU
CRT$XCU	SEGMENT
?atlTraceISAPI$initializer$@ATL@@3P6AXXZA DD FLAT:??__EatlTraceISAPI@ATL@@YAXXZ ; ATL::atlTraceISAPI$initializer$
CRT$XCU	ENDS
;	COMDAT CRT$XCU
CRT$XCU	SEGMENT
?_AtlComModule$initializer$@ATL@@3P6AXXZA DD FLAT:??__E_AtlComModule@ATL@@YAXXZ ; ATL::_AtlComModule$initializer$
CRT$XCU	ENDS
;	COMDAT CRT$XCU
CRT$XCU	SEGMENT
?_AtlWinModule$initializer$@ATL@@3P6AXXZA DD FLAT:??__E_AtlWinModule@ATL@@YAXXZ ; ATL::_AtlWinModule$initializer$
CRT$XCU	ENDS
;	COMDAT CRT$XCU
CRT$XCU	SEGMENT
??isInitialized$initializer$@CAtlStringMgr@ATL@@0P6AXXZA@@3P6AXXZA DD FLAT:??__E?isInitialized@CAtlStringMgr@ATL@@0_NA@@YAXXZ ; ??isInitialized$initializer$@CAtlStringMgr@ATL@@0P6AXXZA@@3P6AXXZA
CRT$XCU	ENDS
;	COMDAT CRT$XCU
CRT$XCU	SEGMENT
??isCImageStaticInitialized$initializer$@CImage@ATL@@0P6AXXZA@@3P6AXXZA DD FLAT:??__E?isCImageStaticInitialized@CImage@ATL@@0_NA@@YAXXZ ; ??isCImageStaticInitialized$initializer$@CImage@ATL@@0P6AXXZA@@3P6AXXZA
CRT$XCU	ENDS
; Function compile flags: /Odsp
;	COMDAT ?QueryInterface@CTableFrameSink@@W3AEPAXABU_GUID@@K@Z
_TEXT	SEGMENT
?QueryInterface@CTableFrameSink@@W3AEPAXABU_GUID@@K@Z PROC ; [thunk]:CTableFrameSink::QueryInterface`adjustor{4}', COMDAT
  00000	83 e9 04	 sub	 ecx, 4
  00003	e9 00 00 00 00	 jmp	 ?QueryInterface@CTableFrameSink@@UAEPAXABU_GUID@@K@Z ; CTableFrameSink::QueryInterface
?QueryInterface@CTableFrameSink@@W3AEPAXABU_GUID@@K@Z ENDP ; [thunk]:CTableFrameSink::QueryInterface`adjustor{4}'
_TEXT	ENDS
; Function compile flags: /Odsp
;	COMDAT ?Release@CTableFrameSink@@W3AEXXZ
_TEXT	SEGMENT
?Release@CTableFrameSink@@W3AEXXZ PROC			; [thunk]:CTableFrameSink::Release`adjustor{4}', COMDAT
  00000	83 e9 04	 sub	 ecx, 4
  00003	e9 00 00 00 00	 jmp	 ?Release@CTableFrameSink@@UAEXXZ ; CTableFrameSink::Release
?Release@CTableFrameSink@@W3AEXXZ ENDP			; [thunk]:CTableFrameSink::Release`adjustor{4}'
_TEXT	ENDS
; Function compile flags: /Odtp
; File c:\program files (x86)\microsoft visual studio 14.0\vc\include\xmemory
;	COMDAT ??$_Uninitialized_move_al_unchecked1@_J_JV?$allocator@_J@std@@@std@@YAPA_JPA_J00AAU?$_Wrap_alloc@V?$allocator@_J@std@@@0@U_Really_trivial_ptr_iterator_tag@0@U?$integral_constant@_N$00@0@@Z
_TEXT	SEGMENT
__First$ = 8						; size = 4
__Last$ = 12						; size = 4
__Dest$ = 16						; size = 4
___formal$ = 20						; size = 4
___formal$ = 24						; size = 1
___formal$ = 28						; size = 1
??$_Uninitialized_move_al_unchecked1@_J_JV?$allocator@_J@std@@@std@@YAPA_JPA_J00AAU?$_Wrap_alloc@V?$allocator@_J@std@@@0@U_Really_trivial_ptr_iterator_tag@0@U?$integral_constant@_N$00@0@@Z PROC ; std::_Uninitialized_move_al_unchecked1<__int64,__int64,std::allocator<__int64> >, COMDAT

; 292  : 	{	// move [_First, _Last) to raw _Dest, using default _Alloc construct, memmove optimization

  00000	55		 push	 ebp
  00001	8b ec		 mov	 ebp, esp

; 293  : 	return (_Copy_memmove(_First, _Last, _Dest));

  00003	8b 45 10	 mov	 eax, DWORD PTR __Dest$[ebp]
  00006	50		 push	 eax
  00007	8b 4d 0c	 mov	 ecx, DWORD PTR __Last$[ebp]
  0000a	51		 push	 ecx
  0000b	8b 55 08	 mov	 edx, DWORD PTR __First$[ebp]
  0000e	52		 push	 edx
  0000f	e8 00 00 00 00	 call	 ??$_Copy_memmove@PA_JPA_J@std@@YAPA_JPA_J00@Z ; std::_Copy_memmove<__int64 *,__int64 *>
  00014	83 c4 0c	 add	 esp, 12			; 0000000cH

; 294  : 	}

  00017	5d		 pop	 ebp
  00018	c3		 ret	 0
??$_Uninitialized_move_al_unchecked1@_J_JV?$allocator@_J@std@@@std@@YAPA_JPA_J00AAU?$_Wrap_alloc@V?$allocator@_J@std@@@0@U_Really_trivial_ptr_iterator_tag@0@U?$integral_constant@_N$00@0@@Z ENDP ; std::_Uninitialized_move_al_unchecked1<__int64,__int64,std::allocator<__int64> >
_TEXT	ENDS
; Function compile flags: /Odtp
; File c:\program files (x86)\microsoft visual studio 14.0\vc\include\xutility
;	COMDAT ??$_Rechecked@PA_JPA_J@std@@YAAAPA_JAAPA_JPA_J@Z
_TEXT	SEGMENT
__Dest$ = 8						; size = 4
__Src$ = 12						; size = 4
??$_Rechecked@PA_JPA_J@std@@YAAAPA_JAAPA_JPA_J@Z PROC	; std::_Rechecked<__int64 *,__int64 *>, COMDAT

; 457  : 	{	// reset checked from unchecked, generic

  00000	55		 push	 ebp
  00001	8b ec		 mov	 ebp, esp

; 458  : 	_Dest = _Src;

  00003	8b 45 08	 mov	 eax, DWORD PTR __Dest$[ebp]
  00006	8b 4d 0c	 mov	 ecx, DWORD PTR __Src$[ebp]
  00009	89 08		 mov	 DWORD PTR [eax], ecx

; 459  : 	return (_Dest);

  0000b	8b 45 08	 mov	 eax, DWORD PTR __Dest$[ebp]

; 460  : 	}

  0000e	5d		 pop	 ebp
  0000f	c3		 ret	 0
??$_Rechecked@PA_JPA_J@std@@YAAAPA_JAAPA_JPA_J@Z ENDP	; std::_Rechecked<__int64 *,__int64 *>
_TEXT	ENDS
; Function compile flags: /Odtp
; File c:\program files (x86)\microsoft visual studio 14.0\vc\include\xmemory
;	COMDAT ??$_Uninitialized_move_al_unchecked@PA_JPA_JV?$allocator@_J@std@@@std@@YAPA_JPA_J00AAU?$_Wrap_alloc@V?$allocator@_J@std@@@0@@Z
_TEXT	SEGMENT
$T1 = -2						; size = 1
$T2 = -1						; size = 1
__First$ = 8						; size = 4
__Last$ = 12						; size = 4
__Dest$ = 16						; size = 4
__Al$ = 20						; size = 4
??$_Uninitialized_move_al_unchecked@PA_JPA_JV?$allocator@_J@std@@@std@@YAPA_JPA_J00AAU?$_Wrap_alloc@V?$allocator@_J@std@@@0@@Z PROC ; std::_Uninitialized_move_al_unchecked<__int64 *,__int64 *,std::allocator<__int64> >, COMDAT

; 301  : 	{	// move [_First, _Last) to raw _Dest, using _Al, choose optimization

  00000	55		 push	 ebp
  00001	8b ec		 mov	 ebp, esp
  00003	51		 push	 ecx

; 302  : 	typedef decltype(_STD move(*_First)) _Src_type; // TRANSITION MODULES VSO#222794
; 303  : 	return (_Uninitialized_move_al_unchecked1(_First, _Last, _Dest, _Al,

  00004	0f b6 45 ff	 movzx	 eax, BYTE PTR $T2[ebp]
  00008	50		 push	 eax
  00009	8d 4d 10	 lea	 ecx, DWORD PTR __Dest$[ebp]
  0000c	51		 push	 ecx
  0000d	8d 55 08	 lea	 edx, DWORD PTR __First$[ebp]
  00010	52		 push	 edx
  00011	8d 45 fe	 lea	 eax, DWORD PTR $T1[ebp]
  00014	50		 push	 eax
  00015	e8 00 00 00 00	 call	 ??$_Ptr_move_cat@_J_J@std@@YA?AU_Really_trivial_ptr_iterator_tag@0@ABQA_J0@Z ; std::_Ptr_move_cat<__int64,__int64>
  0001a	83 c4 0c	 add	 esp, 12			; 0000000cH
  0001d	8a 08		 mov	 cl, BYTE PTR [eax]
  0001f	0f b6 d1	 movzx	 edx, cl
  00022	52		 push	 edx
  00023	8b 45 14	 mov	 eax, DWORD PTR __Al$[ebp]
  00026	50		 push	 eax
  00027	8b 4d 10	 mov	 ecx, DWORD PTR __Dest$[ebp]
  0002a	51		 push	 ecx
  0002b	8b 55 0c	 mov	 edx, DWORD PTR __Last$[ebp]
  0002e	52		 push	 edx
  0002f	8b 45 08	 mov	 eax, DWORD PTR __First$[ebp]
  00032	50		 push	 eax
  00033	e8 00 00 00 00	 call	 ??$_Uninitialized_move_al_unchecked1@_J_JV?$allocator@_J@std@@@std@@YAPA_JPA_J00AAU?$_Wrap_alloc@V?$allocator@_J@std@@@0@U_Really_trivial_ptr_iterator_tag@0@U?$integral_constant@_N$00@0@@Z ; std::_Uninitialized_move_al_unchecked1<__int64,__int64,std::allocator<__int64> >
  00038	83 c4 18	 add	 esp, 24			; 00000018H

; 304  : 		_Ptr_move_cat(_First, _Dest),
; 305  : 		_Uses_default_construct_t<_Alloc, decltype(_Unfancy(_Dest)), _Src_type>()));
; 306  : 	}

  0003b	8b e5		 mov	 esp, ebp
  0003d	5d		 pop	 ebp
  0003e	c3		 ret	 0
??$_Uninitialized_move_al_unchecked@PA_JPA_JV?$allocator@_J@std@@@std@@YAPA_JPA_J00AAU?$_Wrap_alloc@V?$allocator@_J@std@@@0@@Z ENDP ; std::_Uninitialized_move_al_unchecked<__int64 *,__int64 *,std::allocator<__int64> >
_TEXT	ENDS
; Function compile flags: /Odtp
; File c:\program files (x86)\microsoft visual studio 14.0\vc\include\xutility
;	COMDAT ??$_Unchecked@PA_J@std@@YAPA_JPA_J@Z
_TEXT	SEGMENT
__Src$ = 8						; size = 4
??$_Unchecked@PA_J@std@@YAPA_JPA_J@Z PROC		; std::_Unchecked<__int64 *>, COMDAT

; 427  : 	{	// construct unchecked from checked, generic

  00000	55		 push	 ebp
  00001	8b ec		 mov	 ebp, esp

; 428  : 	return (_Src);

  00003	8b 45 08	 mov	 eax, DWORD PTR __Src$[ebp]

; 429  : 	}

  00006	5d		 pop	 ebp
  00007	c3		 ret	 0
??$_Unchecked@PA_J@std@@YAPA_JPA_J@Z ENDP		; std::_Unchecked<__int64 *>
_TEXT	ENDS
; Function compile flags: /Odtp
; File c:\program files (x86)\microsoft visual studio 14.0\vc\include\xmemory0
;	COMDAT ??$construct@_JAB_J@?$allocator@_J@std@@QAEXPA_JAB_J@Z
_TEXT	SEGMENT
_this$ = -12						; size = 4
tv73 = -8						; size = 4
$T1 = -4						; size = 4
__Ptr$ = 8						; size = 4
_<_Args_0>$ = 12					; size = 4
??$construct@_JAB_J@?$allocator@_J@std@@QAEXPA_JAB_J@Z PROC ; std::allocator<__int64>::construct<__int64,__int64 const &>, COMDAT
; _this$ = ecx

; 736  : 		{	// construct _Objty(_Types...) at _Ptr

  00000	55		 push	 ebp
  00001	8b ec		 mov	 ebp, esp
  00003	83 ec 0c	 sub	 esp, 12			; 0000000cH
  00006	89 4d f4	 mov	 DWORD PTR _this$[ebp], ecx

; 737  : 		::new ((void *)_Ptr) _Objty(_STD forward<_Types>(_Args)...);

  00009	8b 45 08	 mov	 eax, DWORD PTR __Ptr$[ebp]
  0000c	50		 push	 eax
  0000d	6a 08		 push	 8
  0000f	e8 00 00 00 00	 call	 ??2@YAPAXIPAX@Z		; operator new
  00014	83 c4 08	 add	 esp, 8
  00017	89 45 fc	 mov	 DWORD PTR $T1[ebp], eax
  0001a	83 7d fc 00	 cmp	 DWORD PTR $T1[ebp], 0
  0001e	74 21		 je	 SHORT $LN3@construct
  00020	8b 4d 0c	 mov	 ecx, DWORD PTR _<_Args_0>$[ebp]
  00023	51		 push	 ecx
  00024	e8 00 00 00 00	 call	 ??$forward@AB_J@std@@YAAB_JAB_J@Z ; std::forward<__int64 const &>
  00029	83 c4 04	 add	 esp, 4
  0002c	8b 55 fc	 mov	 edx, DWORD PTR $T1[ebp]
  0002f	8b 08		 mov	 ecx, DWORD PTR [eax]
  00031	89 0a		 mov	 DWORD PTR [edx], ecx
  00033	8b 40 04	 mov	 eax, DWORD PTR [eax+4]
  00036	89 42 04	 mov	 DWORD PTR [edx+4], eax
  00039	8b 4d fc	 mov	 ecx, DWORD PTR $T1[ebp]
  0003c	89 4d f8	 mov	 DWORD PTR tv73[ebp], ecx
  0003f	eb 07		 jmp	 SHORT $LN1@construct
$LN3@construct:
  00041	c7 45 f8 00 00
	00 00		 mov	 DWORD PTR tv73[ebp], 0
$LN1@construct:

; 738  : 		}

  00048	8b e5		 mov	 esp, ebp
  0004a	5d		 pop	 ebp
  0004b	c2 08 00	 ret	 8
??$construct@_JAB_J@?$allocator@_J@std@@QAEXPA_JAB_J@Z ENDP ; std::allocator<__int64>::construct<__int64,__int64 const &>
_TEXT	ENDS
; Function compile flags: /Odtp
; File c:\program files (x86)\microsoft visual studio 14.0\vc\include\xmemory0
;	COMDAT ??$construct@_JAA_J@?$allocator@_J@std@@QAEXPA_JAA_J@Z
_TEXT	SEGMENT
_this$ = -12						; size = 4
tv73 = -8						; size = 4
$T1 = -4						; size = 4
__Ptr$ = 8						; size = 4
_<_Args_0>$ = 12					; size = 4
??$construct@_JAA_J@?$allocator@_J@std@@QAEXPA_JAA_J@Z PROC ; std::allocator<__int64>::construct<__int64,__int64 &>, COMDAT
; _this$ = ecx

; 736  : 		{	// construct _Objty(_Types...) at _Ptr

  00000	55		 push	 ebp
  00001	8b ec		 mov	 ebp, esp
  00003	83 ec 0c	 sub	 esp, 12			; 0000000cH
  00006	89 4d f4	 mov	 DWORD PTR _this$[ebp], ecx

; 737  : 		::new ((void *)_Ptr) _Objty(_STD forward<_Types>(_Args)...);

  00009	8b 45 08	 mov	 eax, DWORD PTR __Ptr$[ebp]
  0000c	50		 push	 eax
  0000d	6a 08		 push	 8
  0000f	e8 00 00 00 00	 call	 ??2@YAPAXIPAX@Z		; operator new
  00014	83 c4 08	 add	 esp, 8
  00017	89 45 fc	 mov	 DWORD PTR $T1[ebp], eax
  0001a	83 7d fc 00	 cmp	 DWORD PTR $T1[ebp], 0
  0001e	74 21		 je	 SHORT $LN3@construct
  00020	8b 4d 0c	 mov	 ecx, DWORD PTR _<_Args_0>$[ebp]
  00023	51		 push	 ecx
  00024	e8 00 00 00 00	 call	 ??$forward@AA_J@std@@YAAA_JAA_J@Z ; std::forward<__int64 &>
  00029	83 c4 04	 add	 esp, 4
  0002c	8b 55 fc	 mov	 edx, DWORD PTR $T1[ebp]
  0002f	8b 08		 mov	 ecx, DWORD PTR [eax]
  00031	89 0a		 mov	 DWORD PTR [edx], ecx
  00033	8b 40 04	 mov	 eax, DWORD PTR [eax+4]
  00036	89 42 04	 mov	 DWORD PTR [edx+4], eax
  00039	8b 4d fc	 mov	 ecx, DWORD PTR $T1[ebp]
  0003c	89 4d f8	 mov	 DWORD PTR tv73[ebp], ecx
  0003f	eb 07		 jmp	 SHORT $LN1@construct
$LN3@construct:
  00041	c7 45 f8 00 00
	00 00		 mov	 DWORD PTR tv73[ebp], 0
$LN1@construct:

; 738  : 		}

  00048	8b e5		 mov	 esp, ebp
  0004a	5d		 pop	 ebp
  0004b	c2 08 00	 ret	 8
??$construct@_JAA_J@?$allocator@_J@std@@QAEXPA_JAA_J@Z ENDP ; std::allocator<__int64>::construct<__int64,__int64 &>
_TEXT	ENDS
; Function compile flags: /Odtp
; File c:\program files (x86)\microsoft visual studio 14.0\vc\include\xutility
;	COMDAT ??$_Copy_memmove@PA_JPA_J@std@@YAPA_JPA_J00@Z
_TEXT	SEGMENT
__Last_ch$ = -16					; size = 4
__Count$ = -12						; size = 4
__Dest_ch$ = -8						; size = 4
__First_ch$ = -4					; size = 4
__First$ = 8						; size = 4
__Last$ = 12						; size = 4
__Dest$ = 16						; size = 4
??$_Copy_memmove@PA_JPA_J@std@@YAPA_JPA_J00@Z PROC	; std::_Copy_memmove<__int64 *,__int64 *>, COMDAT

; 2301 : 	{	// implement copy-like function as memmove

  00000	55		 push	 ebp
  00001	8b ec		 mov	 ebp, esp
  00003	83 ec 10	 sub	 esp, 16			; 00000010H

; 2302 : 	const char * const _First_ch = reinterpret_cast<const char *>(_First);

  00006	8b 45 08	 mov	 eax, DWORD PTR __First$[ebp]
  00009	89 45 fc	 mov	 DWORD PTR __First_ch$[ebp], eax

; 2303 : 	const char * const _Last_ch = reinterpret_cast<const char *>(_Last);

  0000c	8b 4d 0c	 mov	 ecx, DWORD PTR __Last$[ebp]
  0000f	89 4d f0	 mov	 DWORD PTR __Last_ch$[ebp], ecx

; 2304 : 	char * const _Dest_ch = reinterpret_cast<char *>(_Dest);

  00012	8b 55 10	 mov	 edx, DWORD PTR __Dest$[ebp]
  00015	89 55 f8	 mov	 DWORD PTR __Dest_ch$[ebp], edx

; 2305 : 	const size_t _Count = _Last_ch - _First_ch;

  00018	8b 45 f0	 mov	 eax, DWORD PTR __Last_ch$[ebp]
  0001b	2b 45 fc	 sub	 eax, DWORD PTR __First_ch$[ebp]
  0001e	89 45 f4	 mov	 DWORD PTR __Count$[ebp], eax

; 2306 : 	_CSTD memmove(_Dest_ch, _First_ch, _Count);

  00021	8b 4d f4	 mov	 ecx, DWORD PTR __Count$[ebp]
  00024	51		 push	 ecx
  00025	8b 55 fc	 mov	 edx, DWORD PTR __First_ch$[ebp]
  00028	52		 push	 edx
  00029	8b 45 f8	 mov	 eax, DWORD PTR __Dest_ch$[ebp]
  0002c	50		 push	 eax
  0002d	ff 15 00 00 00
	00		 call	 DWORD PTR __imp__memmove
  00033	83 c4 0c	 add	 esp, 12			; 0000000cH

; 2307 : 	return (reinterpret_cast<_OutIt>(_Dest_ch + _Count));

  00036	8b 45 f8	 mov	 eax, DWORD PTR __Dest_ch$[ebp]
  00039	03 45 f4	 add	 eax, DWORD PTR __Count$[ebp]

; 2308 : 	}

  0003c	8b e5		 mov	 esp, ebp
  0003e	5d		 pop	 ebp
  0003f	c3		 ret	 0
??$_Copy_memmove@PA_JPA_J@std@@YAPA_JPA_J00@Z ENDP	; std::_Copy_memmove<__int64 *,__int64 *>
_TEXT	ENDS
; Function compile flags: /Odtp
; File c:\program files (x86)\microsoft visual studio 14.0\vc\include\xmemory
;	COMDAT ??$_Uninitialized_move@PA_JPA_JV?$allocator@_J@std@@@std@@YAPA_JPA_J00AAU?$_Wrap_alloc@V?$allocator@_J@std@@@0@@Z
_TEXT	SEGMENT
__First$ = 8						; size = 4
__Last$ = 12						; size = 4
__Dest$ = 16						; size = 4
__Al$ = 20						; size = 4
??$_Uninitialized_move@PA_JPA_JV?$allocator@_J@std@@@std@@YAPA_JPA_J00AAU?$_Wrap_alloc@V?$allocator@_J@std@@@0@@Z PROC ; std::_Uninitialized_move<__int64 *,__int64 *,std::allocator<__int64> >, COMDAT

; 313  : 	{	// move [_First, _Last) to raw _Dest, using _Al

  00000	55		 push	 ebp
  00001	8b ec		 mov	 ebp, esp

; 314  : 		// note: only called internally from elsewhere in the STL, debug checks
; 315  : 		// and deprecation warnings omitted
; 316  : 	return (_Rechecked(_Dest,

  00003	8b 45 14	 mov	 eax, DWORD PTR __Al$[ebp]
  00006	50		 push	 eax
  00007	8b 4d 10	 mov	 ecx, DWORD PTR __Dest$[ebp]
  0000a	51		 push	 ecx
  0000b	e8 00 00 00 00	 call	 ??$_Unchecked@PA_J@std@@YAPA_JPA_J@Z ; std::_Unchecked<__int64 *>
  00010	83 c4 04	 add	 esp, 4
  00013	50		 push	 eax
  00014	8b 55 0c	 mov	 edx, DWORD PTR __Last$[ebp]
  00017	52		 push	 edx
  00018	e8 00 00 00 00	 call	 ??$_Unchecked@PA_J@std@@YAPA_JPA_J@Z ; std::_Unchecked<__int64 *>
  0001d	83 c4 04	 add	 esp, 4
  00020	50		 push	 eax
  00021	8b 45 08	 mov	 eax, DWORD PTR __First$[ebp]
  00024	50		 push	 eax
  00025	e8 00 00 00 00	 call	 ??$_Unchecked@PA_J@std@@YAPA_JPA_J@Z ; std::_Unchecked<__int64 *>
  0002a	83 c4 04	 add	 esp, 4
  0002d	50		 push	 eax
  0002e	e8 00 00 00 00	 call	 ??$_Uninitialized_move_al_unchecked@PA_JPA_JV?$allocator@_J@std@@@std@@YAPA_JPA_J00AAU?$_Wrap_alloc@V?$allocator@_J@std@@@0@@Z ; std::_Uninitialized_move_al_unchecked<__int64 *,__int64 *,std::allocator<__int64> >
  00033	83 c4 10	 add	 esp, 16			; 00000010H
  00036	50		 push	 eax
  00037	8d 4d 10	 lea	 ecx, DWORD PTR __Dest$[ebp]
  0003a	51		 push	 ecx
  0003b	e8 00 00 00 00	 call	 ??$_Rechecked@PA_JPA_J@std@@YAAAPA_JAAPA_JPA_J@Z ; std::_Rechecked<__int64 *,__int64 *>
  00040	83 c4 08	 add	 esp, 8
  00043	8b 00		 mov	 eax, DWORD PTR [eax]

; 317  : 		_Uninitialized_move_al_unchecked(_Unchecked(_First), _Unchecked(_Last),
; 318  : 			_Unchecked(_Dest), _Al)));
; 319  : 	}

  00045	5d		 pop	 ebp
  00046	c3		 ret	 0
??$_Uninitialized_move@PA_JPA_JV?$allocator@_J@std@@@std@@YAPA_JPA_J00AAU?$_Wrap_alloc@V?$allocator@_J@std@@@0@@Z ENDP ; std::_Uninitialized_move<__int64 *,__int64 *,std::allocator<__int64> >
_TEXT	ENDS
; Function compile flags: /Odtp
; File c:\program files (x86)\microsoft visual studio 14.0\vc\include\xmemory0
;	COMDAT ??$_Destroy_range1@V?$allocator@_J@std@@PA_J@std@@YAXPA_J0AAU?$_Wrap_alloc@V?$allocator@_J@std@@@0@U?$integral_constant@_N$00@0@@Z
_TEXT	SEGMENT
___formal$ = 8						; size = 4
___formal$ = 12						; size = 4
___formal$ = 16						; size = 4
___formal$ = 20						; size = 1
??$_Destroy_range1@V?$allocator@_J@std@@PA_J@std@@YAXPA_J0AAU?$_Wrap_alloc@V?$allocator@_J@std@@@0@U?$integral_constant@_N$00@0@@Z PROC ; std::_Destroy_range1<std::allocator<__int64>,__int64 *>, COMDAT

; 1107 : 	{	// destroy [_First, _Last), trivially destructible and default destroy

  00000	55		 push	 ebp
  00001	8b ec		 mov	 ebp, esp

; 1108 : 		// nothing to do
; 1109 : 	}

  00003	5d		 pop	 ebp
  00004	c3		 ret	 0
??$_Destroy_range1@V?$allocator@_J@std@@PA_J@std@@YAXPA_J0AAU?$_Wrap_alloc@V?$allocator@_J@std@@@0@U?$integral_constant@_N$00@0@@Z ENDP ; std::_Destroy_range1<std::allocator<__int64>,__int64 *>
_TEXT	ENDS
; Function compile flags: /Odtp
; File c:\program files (x86)\microsoft visual studio 14.0\vc\include\xmemory0
;	COMDAT ??$_Destroy_range1@V?$allocator@E@std@@PAE@std@@YAXPAE0AAU?$_Wrap_alloc@V?$allocator@E@std@@@0@U?$integral_constant@_N$00@0@@Z
_TEXT	SEGMENT
___formal$ = 8						; size = 4
___formal$ = 12						; size = 4
___formal$ = 16						; size = 4
___formal$ = 20						; size = 1
??$_Destroy_range1@V?$allocator@E@std@@PAE@std@@YAXPAE0AAU?$_Wrap_alloc@V?$allocator@E@std@@@0@U?$integral_constant@_N$00@0@@Z PROC ; std::_Destroy_range1<std::allocator<unsigned char>,unsigned char *>, COMDAT

; 1107 : 	{	// destroy [_First, _Last), trivially destructible and default destroy

  00000	55		 push	 ebp
  00001	8b ec		 mov	 ebp, esp

; 1108 : 		// nothing to do
; 1109 : 	}

  00003	5d		 pop	 ebp
  00004	c3		 ret	 0
??$_Destroy_range1@V?$allocator@E@std@@PAE@std@@YAXPAE0AAU?$_Wrap_alloc@V?$allocator@E@std@@@0@U?$integral_constant@_N$00@0@@Z ENDP ; std::_Destroy_range1<std::allocator<unsigned char>,unsigned char *>
_TEXT	ENDS
; Function compile flags: /Odtp
; File c:\program files (x86)\microsoft visual studio 14.0\vc\include\xmemory0
;	COMDAT ??$construct@_JAB_J@?$allocator_traits@V?$allocator@_J@std@@@std@@SAXAAV?$allocator@_J@1@PA_JAB_J@Z
_TEXT	SEGMENT
__Al$ = 8						; size = 4
__Ptr$ = 12						; size = 4
_<_Args_0>$ = 16					; size = 4
??$construct@_JAB_J@?$allocator_traits@V?$allocator@_J@std@@@std@@SAXAAV?$allocator@_J@1@PA_JAB_J@Z PROC ; std::allocator_traits<std::allocator<__int64> >::construct<__int64,__int64 const &>, COMDAT

; 856  : 		{	// construct _Objty(_Types...) at _Ptr

  00000	55		 push	 ebp
  00001	8b ec		 mov	 ebp, esp

; 857  : 		_Al.construct(_Ptr, _STD forward<_Types>(_Args)...);

  00003	8b 45 10	 mov	 eax, DWORD PTR _<_Args_0>$[ebp]
  00006	50		 push	 eax
  00007	e8 00 00 00 00	 call	 ??$forward@AB_J@std@@YAAB_JAB_J@Z ; std::forward<__int64 const &>
  0000c	83 c4 04	 add	 esp, 4
  0000f	50		 push	 eax
  00010	8b 4d 0c	 mov	 ecx, DWORD PTR __Ptr$[ebp]
  00013	51		 push	 ecx
  00014	8b 4d 08	 mov	 ecx, DWORD PTR __Al$[ebp]
  00017	e8 00 00 00 00	 call	 ??$construct@_JAB_J@?$allocator@_J@std@@QAEXPA_JAB_J@Z ; std::allocator<__int64>::construct<__int64,__int64 const &>

; 858  : 		}

  0001c	5d		 pop	 ebp
  0001d	c3		 ret	 0
??$construct@_JAB_J@?$allocator_traits@V?$allocator@_J@std@@@std@@SAXAAV?$allocator@_J@1@PA_JAB_J@Z ENDP ; std::allocator_traits<std::allocator<__int64> >::construct<__int64,__int64 const &>
_TEXT	ENDS
; Function compile flags: /Odtp
; File c:\program files (x86)\microsoft visual studio 14.0\vc\include\type_traits
;	COMDAT ??$forward@AB_J@std@@YAAB_JAB_J@Z
_TEXT	SEGMENT
__Arg$ = 8						; size = 4
??$forward@AB_J@std@@YAAB_JAB_J@Z PROC			; std::forward<__int64 const &>, COMDAT

; 1275 : 	{	// forward an lvalue as either an lvalue or an rvalue

  00000	55		 push	 ebp
  00001	8b ec		 mov	 ebp, esp

; 1276 : 	return (static_cast<_Ty&&>(_Arg));

  00003	8b 45 08	 mov	 eax, DWORD PTR __Arg$[ebp]

; 1277 : 	}

  00006	5d		 pop	 ebp
  00007	c3		 ret	 0
??$forward@AB_J@std@@YAAB_JAB_J@Z ENDP			; std::forward<__int64 const &>
_TEXT	ENDS
; Function compile flags: /Odtp
; File c:\program files (x86)\microsoft visual studio 14.0\vc\include\xmemory0
;	COMDAT ??$construct@_JAA_J@?$allocator_traits@V?$allocator@_J@std@@@std@@SAXAAV?$allocator@_J@1@PA_JAA_J@Z
_TEXT	SEGMENT
__Al$ = 8						; size = 4
__Ptr$ = 12						; size = 4
_<_Args_0>$ = 16					; size = 4
??$construct@_JAA_J@?$allocator_traits@V?$allocator@_J@std@@@std@@SAXAAV?$allocator@_J@1@PA_JAA_J@Z PROC ; std::allocator_traits<std::allocator<__int64> >::construct<__int64,__int64 &>, COMDAT

; 856  : 		{	// construct _Objty(_Types...) at _Ptr

  00000	55		 push	 ebp
  00001	8b ec		 mov	 ebp, esp

; 857  : 		_Al.construct(_Ptr, _STD forward<_Types>(_Args)...);

  00003	8b 45 10	 mov	 eax, DWORD PTR _<_Args_0>$[ebp]
  00006	50		 push	 eax
  00007	e8 00 00 00 00	 call	 ??$forward@AA_J@std@@YAAA_JAA_J@Z ; std::forward<__int64 &>
  0000c	83 c4 04	 add	 esp, 4
  0000f	50		 push	 eax
  00010	8b 4d 0c	 mov	 ecx, DWORD PTR __Ptr$[ebp]
  00013	51		 push	 ecx
  00014	8b 4d 08	 mov	 ecx, DWORD PTR __Al$[ebp]
  00017	e8 00 00 00 00	 call	 ??$construct@_JAA_J@?$allocator@_J@std@@QAEXPA_JAA_J@Z ; std::allocator<__int64>::construct<__int64,__int64 &>

; 858  : 		}

  0001c	5d		 pop	 ebp
  0001d	c3		 ret	 0
??$construct@_JAA_J@?$allocator_traits@V?$allocator@_J@std@@@std@@SAXAAV?$allocator@_J@1@PA_JAA_J@Z ENDP ; std::allocator_traits<std::allocator<__int64> >::construct<__int64,__int64 &>
_TEXT	ENDS
; Function compile flags: /Odtp
; File c:\program files (x86)\microsoft visual studio 14.0\vc\include\type_traits
;	COMDAT ??$forward@AA_J@std@@YAAA_JAA_J@Z
_TEXT	SEGMENT
__Arg$ = 8						; size = 4
??$forward@AA_J@std@@YAAA_JAA_J@Z PROC			; std::forward<__int64 &>, COMDAT

; 1275 : 	{	// forward an lvalue as either an lvalue or an rvalue

  00000	55		 push	 ebp
  00001	8b ec		 mov	 ebp, esp

; 1276 : 	return (static_cast<_Ty&&>(_Arg));

  00003	8b 45 08	 mov	 eax, DWORD PTR __Arg$[ebp]

; 1277 : 	}

  00006	5d		 pop	 ebp
  00007	c3		 ret	 0
??$forward@AA_J@std@@YAAA_JAA_J@Z ENDP			; std::forward<__int64 &>
_TEXT	ENDS
; Function compile flags: /Odtp
; File c:\program files (x86)\microsoft visual studio 14.0\vc\include\xutility
;	COMDAT ??$_Move_unchecked1@PA_JPA_J@std@@YAPA_JPA_J00U_Trivially_copyable_ptr_iterator_tag@0@@Z
_TEXT	SEGMENT
__First$ = 8						; size = 4
__Last$ = 12						; size = 4
__Dest$ = 16						; size = 4
___formal$ = 20						; size = 1
??$_Move_unchecked1@PA_JPA_J@std@@YAPA_JPA_J00U_Trivially_copyable_ptr_iterator_tag@0@@Z PROC ; std::_Move_unchecked1<__int64 *,__int64 *>, COMDAT

; 2589 : 	{	// move [_First, _Last) to [_Dest, ...), memmove optimization

  00000	55		 push	 ebp
  00001	8b ec		 mov	 ebp, esp

; 2590 : 	return (_Copy_memmove(_First, _Last, _Dest));

  00003	8b 45 10	 mov	 eax, DWORD PTR __Dest$[ebp]
  00006	50		 push	 eax
  00007	8b 4d 0c	 mov	 ecx, DWORD PTR __Last$[ebp]
  0000a	51		 push	 ecx
  0000b	8b 55 08	 mov	 edx, DWORD PTR __First$[ebp]
  0000e	52		 push	 edx
  0000f	e8 00 00 00 00	 call	 ??$_Copy_memmove@PA_JPA_J@std@@YAPA_JPA_J00@Z ; std::_Copy_memmove<__int64 *,__int64 *>
  00014	83 c4 0c	 add	 esp, 12			; 0000000cH

; 2591 : 	}

  00017	5d		 pop	 ebp
  00018	c3		 ret	 0
??$_Move_unchecked1@PA_JPA_J@std@@YAPA_JPA_J00U_Trivially_copyable_ptr_iterator_tag@0@@Z ENDP ; std::_Move_unchecked1<__int64 *,__int64 *>
_TEXT	ENDS
; Function compile flags: /Odtp
; File c:\program files (x86)\microsoft visual studio 14.0\vc\include\xutility
;	COMDAT ??$_Ptr_move_cat@_J_J@std@@YA?AU_Really_trivial_ptr_iterator_tag@0@ABQA_J0@Z
_TEXT	SEGMENT
___$ReturnUdt$ = 8					; size = 4
___formal$ = 12						; size = 4
___formal$ = 16						; size = 4
??$_Ptr_move_cat@_J_J@std@@YA?AU_Really_trivial_ptr_iterator_tag@0@ABQA_J0@Z PROC ; std::_Ptr_move_cat<__int64,__int64>, COMDAT

; 809  : 	{	// return pointer move optimization category for pointers

  00000	55		 push	 ebp
  00001	8b ec		 mov	 ebp, esp

; 810  : 	return {};

  00003	8b 45 08	 mov	 eax, DWORD PTR ___$ReturnUdt$[ebp]

; 811  : 	}

  00006	5d		 pop	 ebp
  00007	c3		 ret	 0
??$_Ptr_move_cat@_J_J@std@@YA?AU_Really_trivial_ptr_iterator_tag@0@ABQA_J0@Z ENDP ; std::_Ptr_move_cat<__int64,__int64>
_TEXT	ENDS
; Function compile flags: /Odtp
; File c:\program files (x86)\microsoft visual studio 14.0\vc\include\vector
;	COMDAT ??$_Umove@PA_J@?$vector@_JV?$allocator@_J@std@@@std@@IAEPA_JPA_J00@Z
_TEXT	SEGMENT
_this$ = -4						; size = 4
__First$ = 8						; size = 4
__Last$ = 12						; size = 4
__Ptr$ = 16						; size = 4
??$_Umove@PA_J@?$vector@_JV?$allocator@_J@std@@@std@@IAEPA_JPA_J00@Z PROC ; std::vector<__int64,std::allocator<__int64> >::_Umove<__int64 *>, COMDAT
; _this$ = ecx

; 1658 : 		{	// move initializing [_First, _Last), using allocator

  00000	55		 push	 ebp
  00001	8b ec		 mov	 ebp, esp
  00003	51		 push	 ecx
  00004	89 4d fc	 mov	 DWORD PTR _this$[ebp], ecx

; 1659 : 		return (_Uninitialized_move(_First, _Last,

  00007	8b 4d fc	 mov	 ecx, DWORD PTR _this$[ebp]
  0000a	e8 00 00 00 00	 call	 ?_Getal@?$_Vector_alloc@U?$_Vec_base_types@_JV?$allocator@_J@std@@@std@@@std@@QAEAAU?$_Wrap_alloc@V?$allocator@_J@std@@@2@XZ ; std::_Vector_alloc<std::_Vec_base_types<__int64,std::allocator<__int64> > >::_Getal
  0000f	50		 push	 eax
  00010	8b 45 10	 mov	 eax, DWORD PTR __Ptr$[ebp]
  00013	50		 push	 eax
  00014	8b 4d 0c	 mov	 ecx, DWORD PTR __Last$[ebp]
  00017	51		 push	 ecx
  00018	8b 55 08	 mov	 edx, DWORD PTR __First$[ebp]
  0001b	52		 push	 edx
  0001c	e8 00 00 00 00	 call	 ??$_Uninitialized_move@PA_JPA_JV?$allocator@_J@std@@@std@@YAPA_JPA_J00AAU?$_Wrap_alloc@V?$allocator@_J@std@@@0@@Z ; std::_Uninitialized_move<__int64 *,__int64 *,std::allocator<__int64> >
  00021	83 c4 10	 add	 esp, 16			; 00000010H

; 1660 : 			_Ptr, this->_Getal()));
; 1661 : 		}

  00024	8b e5		 mov	 esp, ebp
  00026	5d		 pop	 ebp
  00027	c2 0c 00	 ret	 12			; 0000000cH
??$_Umove@PA_J@?$vector@_JV?$allocator@_J@std@@@std@@IAEPA_JPA_J00@Z ENDP ; std::vector<__int64,std::allocator<__int64> >::_Umove<__int64 *>
_TEXT	ENDS
; Function compile flags: /Odtp
; File c:\program files (x86)\microsoft visual studio 14.0\vc\include\xmemory0
;	COMDAT ??$_Destroy_range@V?$allocator@_J@std@@PA_J@std@@YAXPA_J0AAU?$_Wrap_alloc@V?$allocator@_J@std@@@0@@Z
_TEXT	SEGMENT
$T1 = -1						; size = 1
__First$ = 8						; size = 4
__Last$ = 12						; size = 4
__Al$ = 16						; size = 4
??$_Destroy_range@V?$allocator@_J@std@@PA_J@std@@YAXPA_J0AAU?$_Wrap_alloc@V?$allocator@_J@std@@@0@@Z PROC ; std::_Destroy_range<std::allocator<__int64>,__int64 *>, COMDAT

; 1114 : 	{	// destroy [_First, _Last), choose optimization

  00000	55		 push	 ebp
  00001	8b ec		 mov	 ebp, esp
  00003	51		 push	 ecx

; 1115 : 		// note that this is an optimization for debug mode codegen;
; 1116 : 		// in release mode the BE removes all of this
; 1117 : 	typedef typename _Alloc::value_type _Val;
; 1118 : 	_Destroy_range1(_First, _Last, _Al, typename conjunction<

  00004	0f b6 45 ff	 movzx	 eax, BYTE PTR $T1[ebp]
  00008	50		 push	 eax
  00009	8b 4d 10	 mov	 ecx, DWORD PTR __Al$[ebp]
  0000c	51		 push	 ecx
  0000d	8b 55 0c	 mov	 edx, DWORD PTR __Last$[ebp]
  00010	52		 push	 edx
  00011	8b 45 08	 mov	 eax, DWORD PTR __First$[ebp]
  00014	50		 push	 eax
  00015	e8 00 00 00 00	 call	 ??$_Destroy_range1@V?$allocator@_J@std@@PA_J@std@@YAXPA_J0AAU?$_Wrap_alloc@V?$allocator@_J@std@@@0@U?$integral_constant@_N$00@0@@Z ; std::_Destroy_range1<std::allocator<__int64>,__int64 *>
  0001a	83 c4 10	 add	 esp, 16			; 00000010H

; 1119 : 		is_trivially_destructible<_Val>,
; 1120 : 		_Uses_default_destroy<_Alloc, _Val *>>::type());
; 1121 : 	}

  0001d	8b e5		 mov	 esp, ebp
  0001f	5d		 pop	 ebp
  00020	c3		 ret	 0
??$_Destroy_range@V?$allocator@_J@std@@PA_J@std@@YAXPA_J0AAU?$_Wrap_alloc@V?$allocator@_J@std@@@0@@Z ENDP ; std::_Destroy_range<std::allocator<__int64>,__int64 *>
_TEXT	ENDS
; Function compile flags: /Odtp
; File c:\program files (x86)\microsoft visual studio 14.0\vc\include\xutility
;	COMDAT ??$?0$$V@?$_Compressed_pair@U?$_Wrap_alloc@V?$allocator@_J@std@@@std@@V?$_Vector_val@U?$_Simple_types@_J@std@@@2@$00@std@@QAE@U_Zero_then_variadic_args_t@1@@Z
_TEXT	SEGMENT
_this$ = -4						; size = 4
___formal$ = 8						; size = 1
??$?0$$V@?$_Compressed_pair@U?$_Wrap_alloc@V?$allocator@_J@std@@@std@@V?$_Vector_val@U?$_Simple_types@_J@std@@@2@$00@std@@QAE@U_Zero_then_variadic_args_t@1@@Z PROC ; std::_Compressed_pair<std::_Wrap_alloc<std::allocator<__int64> >,std::_Vector_val<std::_Simple_types<__int64> >,1>::_Compressed_pair<std::_Wrap_alloc<std::allocator<__int64> >,std::_Vector_val<std::_Simple_types<__int64> >,1><>, COMDAT
; _this$ = ecx

; 280  : 		{	// construct from forwarded values

  00000	55		 push	 ebp
  00001	8b ec		 mov	 ebp, esp
  00003	51		 push	 ecx
  00004	89 4d fc	 mov	 DWORD PTR _this$[ebp], ecx

; 279  : 		: _Ty1(), _Myval2(_STD forward<_Other2>(_Val2)...)

  00007	8b 4d fc	 mov	 ecx, DWORD PTR _this$[ebp]
  0000a	e8 00 00 00 00	 call	 ??0?$_Wrap_alloc@V?$allocator@_J@std@@@std@@QAE@XZ ; std::_Wrap_alloc<std::allocator<__int64> >::_Wrap_alloc<std::allocator<__int64> >
  0000f	8b 4d fc	 mov	 ecx, DWORD PTR _this$[ebp]
  00012	e8 00 00 00 00	 call	 ??0?$_Vector_val@U?$_Simple_types@_J@std@@@std@@QAE@XZ ; std::_Vector_val<std::_Simple_types<__int64> >::_Vector_val<std::_Simple_types<__int64> >

; 281  : 		}

  00017	8b 45 fc	 mov	 eax, DWORD PTR _this$[ebp]
  0001a	8b e5		 mov	 esp, ebp
  0001c	5d		 pop	 ebp
  0001d	c2 04 00	 ret	 4
??$?0$$V@?$_Compressed_pair@U?$_Wrap_alloc@V?$allocator@_J@std@@@std@@V?$_Vector_val@U?$_Simple_types@_J@std@@@2@$00@std@@QAE@U_Zero_then_variadic_args_t@1@@Z ENDP ; std::_Compressed_pair<std::_Wrap_alloc<std::allocator<__int64> >,std::_Vector_val<std::_Simple_types<__int64> >,1>::_Compressed_pair<std::_Wrap_alloc<std::allocator<__int64> >,std::_Vector_val<std::_Simple_types<__int64> >,1><>
_TEXT	ENDS
; Function compile flags: /Odtp
; File c:\program files (x86)\microsoft visual studio 14.0\vc\include\xmemory0
;	COMDAT ??$_Destroy_range@V?$allocator@E@std@@PAE@std@@YAXPAE0AAU?$_Wrap_alloc@V?$allocator@E@std@@@0@@Z
_TEXT	SEGMENT
$T1 = -1						; size = 1
__First$ = 8						; size = 4
__Last$ = 12						; size = 4
__Al$ = 16						; size = 4
??$_Destroy_range@V?$allocator@E@std@@PAE@std@@YAXPAE0AAU?$_Wrap_alloc@V?$allocator@E@std@@@0@@Z PROC ; std::_Destroy_range<std::allocator<unsigned char>,unsigned char *>, COMDAT

; 1114 : 	{	// destroy [_First, _Last), choose optimization

  00000	55		 push	 ebp
  00001	8b ec		 mov	 ebp, esp
  00003	51		 push	 ecx

; 1115 : 		// note that this is an optimization for debug mode codegen;
; 1116 : 		// in release mode the BE removes all of this
; 1117 : 	typedef typename _Alloc::value_type _Val;
; 1118 : 	_Destroy_range1(_First, _Last, _Al, typename conjunction<

  00004	0f b6 45 ff	 movzx	 eax, BYTE PTR $T1[ebp]
  00008	50		 push	 eax
  00009	8b 4d 10	 mov	 ecx, DWORD PTR __Al$[ebp]
  0000c	51		 push	 ecx
  0000d	8b 55 0c	 mov	 edx, DWORD PTR __Last$[ebp]
  00010	52		 push	 edx
  00011	8b 45 08	 mov	 eax, DWORD PTR __First$[ebp]
  00014	50		 push	 eax
  00015	e8 00 00 00 00	 call	 ??$_Destroy_range1@V?$allocator@E@std@@PAE@std@@YAXPAE0AAU?$_Wrap_alloc@V?$allocator@E@std@@@0@U?$integral_constant@_N$00@0@@Z ; std::_Destroy_range1<std::allocator<unsigned char>,unsigned char *>
  0001a	83 c4 10	 add	 esp, 16			; 00000010H

; 1119 : 		is_trivially_destructible<_Val>,
; 1120 : 		_Uses_default_destroy<_Alloc, _Val *>>::type());
; 1121 : 	}

  0001d	8b e5		 mov	 esp, ebp
  0001f	5d		 pop	 ebp
  00020	c3		 ret	 0
??$_Destroy_range@V?$allocator@E@std@@PAE@std@@YAXPAE0AAU?$_Wrap_alloc@V?$allocator@E@std@@@0@@Z ENDP ; std::_Destroy_range<std::allocator<unsigned char>,unsigned char *>
_TEXT	ENDS
; Function compile flags: /Odtp
; File c:\program files (x86)\microsoft visual studio 14.0\vc\include\xutility
;	COMDAT ??$?0$$V@?$_Compressed_pair@U?$_Wrap_alloc@V?$allocator@E@std@@@std@@V?$_Vector_val@U?$_Simple_types@E@std@@@2@$00@std@@QAE@U_Zero_then_variadic_args_t@1@@Z
_TEXT	SEGMENT
_this$ = -4						; size = 4
___formal$ = 8						; size = 1
??$?0$$V@?$_Compressed_pair@U?$_Wrap_alloc@V?$allocator@E@std@@@std@@V?$_Vector_val@U?$_Simple_types@E@std@@@2@$00@std@@QAE@U_Zero_then_variadic_args_t@1@@Z PROC ; std::_Compressed_pair<std::_Wrap_alloc<std::allocator<unsigned char> >,std::_Vector_val<std::_Simple_types<unsigned char> >,1>::_Compressed_pair<std::_Wrap_alloc<std::allocator<unsigned char> >,std::_Vector_val<std::_Simple_types<unsigned char> >,1><>, COMDAT
; _this$ = ecx

; 280  : 		{	// construct from forwarded values

  00000	55		 push	 ebp
  00001	8b ec		 mov	 ebp, esp
  00003	51		 push	 ecx
  00004	89 4d fc	 mov	 DWORD PTR _this$[ebp], ecx

; 279  : 		: _Ty1(), _Myval2(_STD forward<_Other2>(_Val2)...)

  00007	8b 4d fc	 mov	 ecx, DWORD PTR _this$[ebp]
  0000a	e8 00 00 00 00	 call	 ??0?$_Wrap_alloc@V?$allocator@E@std@@@std@@QAE@XZ ; std::_Wrap_alloc<std::allocator<unsigned char> >::_Wrap_alloc<std::allocator<unsigned char> >
  0000f	8b 4d fc	 mov	 ecx, DWORD PTR _this$[ebp]
  00012	e8 00 00 00 00	 call	 ??0?$_Vector_val@U?$_Simple_types@E@std@@@std@@QAE@XZ ; std::_Vector_val<std::_Simple_types<unsigned char> >::_Vector_val<std::_Simple_types<unsigned char> >

; 281  : 		}

  00017	8b 45 fc	 mov	 eax, DWORD PTR _this$[ebp]
  0001a	8b e5		 mov	 esp, ebp
  0001c	5d		 pop	 ebp
  0001d	c2 04 00	 ret	 4
??$?0$$V@?$_Compressed_pair@U?$_Wrap_alloc@V?$allocator@E@std@@@std@@V?$_Vector_val@U?$_Simple_types@E@std@@@2@$00@std@@QAE@U_Zero_then_variadic_args_t@1@@Z ENDP ; std::_Compressed_pair<std::_Wrap_alloc<std::allocator<unsigned char> >,std::_Vector_val<std::_Simple_types<unsigned char> >,1>::_Compressed_pair<std::_Wrap_alloc<std::allocator<unsigned char> >,std::_Vector_val<std::_Simple_types<unsigned char> >,1><>
_TEXT	ENDS
; Function compile flags: /Odtp
; File c:\program files (x86)\microsoft visual studio 14.0\vc\include\xmemory0
;	COMDAT ??$construct@_JAB_J@?$_Wrap_alloc@V?$allocator@_J@std@@@std@@QAEXPA_JAB_J@Z
_TEXT	SEGMENT
_this$ = -4						; size = 4
__Ptr$ = 8						; size = 4
_<_Args_0>$ = 12					; size = 4
??$construct@_JAB_J@?$_Wrap_alloc@V?$allocator@_J@std@@@std@@QAEXPA_JAB_J@Z PROC ; std::_Wrap_alloc<std::allocator<__int64> >::construct<__int64,__int64 const &>, COMDAT
; _this$ = ecx

; 994  : 		{	// construct _Ty(_Types...) at _Ptr

  00000	55		 push	 ebp
  00001	8b ec		 mov	 ebp, esp
  00003	51		 push	 ecx
  00004	89 4d fc	 mov	 DWORD PTR _this$[ebp], ecx

; 995  : 		_Mytraits::construct(*this, _Ptr,

  00007	8b 45 0c	 mov	 eax, DWORD PTR _<_Args_0>$[ebp]
  0000a	50		 push	 eax
  0000b	e8 00 00 00 00	 call	 ??$forward@AB_J@std@@YAAB_JAB_J@Z ; std::forward<__int64 const &>
  00010	83 c4 04	 add	 esp, 4
  00013	50		 push	 eax
  00014	8b 4d 08	 mov	 ecx, DWORD PTR __Ptr$[ebp]
  00017	51		 push	 ecx
  00018	8b 55 fc	 mov	 edx, DWORD PTR _this$[ebp]
  0001b	52		 push	 edx
  0001c	e8 00 00 00 00	 call	 ??$construct@_JAB_J@?$allocator_traits@V?$allocator@_J@std@@@std@@SAXAAV?$allocator@_J@1@PA_JAB_J@Z ; std::allocator_traits<std::allocator<__int64> >::construct<__int64,__int64 const &>
  00021	83 c4 0c	 add	 esp, 12			; 0000000cH

; 996  : 			_STD forward<_Types>(_Args)...);
; 997  : 		}

  00024	8b e5		 mov	 esp, ebp
  00026	5d		 pop	 ebp
  00027	c2 08 00	 ret	 8
??$construct@_JAB_J@?$_Wrap_alloc@V?$allocator@_J@std@@@std@@QAEXPA_JAB_J@Z ENDP ; std::_Wrap_alloc<std::allocator<__int64> >::construct<__int64,__int64 const &>
_TEXT	ENDS
; Function compile flags: /Odtp
; File c:\program files (x86)\microsoft visual studio 14.0\vc\include\xmemory0
;	COMDAT ??$construct@_JAA_J@?$_Wrap_alloc@V?$allocator@_J@std@@@std@@QAEXPA_JAA_J@Z
_TEXT	SEGMENT
_this$ = -4						; size = 4
__Ptr$ = 8						; size = 4
_<_Args_0>$ = 12					; size = 4
??$construct@_JAA_J@?$_Wrap_alloc@V?$allocator@_J@std@@@std@@QAEXPA_JAA_J@Z PROC ; std::_Wrap_alloc<std::allocator<__int64> >::construct<__int64,__int64 &>, COMDAT
; _this$ = ecx

; 994  : 		{	// construct _Ty(_Types...) at _Ptr

  00000	55		 push	 ebp
  00001	8b ec		 mov	 ebp, esp
  00003	51		 push	 ecx
  00004	89 4d fc	 mov	 DWORD PTR _this$[ebp], ecx

; 995  : 		_Mytraits::construct(*this, _Ptr,

  00007	8b 45 0c	 mov	 eax, DWORD PTR _<_Args_0>$[ebp]
  0000a	50		 push	 eax
  0000b	e8 00 00 00 00	 call	 ??$forward@AA_J@std@@YAAA_JAA_J@Z ; std::forward<__int64 &>
  00010	83 c4 04	 add	 esp, 4
  00013	50		 push	 eax
  00014	8b 4d 08	 mov	 ecx, DWORD PTR __Ptr$[ebp]
  00017	51		 push	 ecx
  00018	8b 55 fc	 mov	 edx, DWORD PTR _this$[ebp]
  0001b	52		 push	 edx
  0001c	e8 00 00 00 00	 call	 ??$construct@_JAA_J@?$allocator_traits@V?$allocator@_J@std@@@std@@SAXAAV?$allocator@_J@1@PA_JAA_J@Z ; std::allocator_traits<std::allocator<__int64> >::construct<__int64,__int64 &>
  00021	83 c4 0c	 add	 esp, 12			; 0000000cH

; 996  : 			_STD forward<_Types>(_Args)...);
; 997  : 		}

  00024	8b e5		 mov	 esp, ebp
  00026	5d		 pop	 ebp
  00027	c2 08 00	 ret	 8
??$construct@_JAA_J@?$_Wrap_alloc@V?$allocator@_J@std@@@std@@QAEXPA_JAA_J@Z ENDP ; std::_Wrap_alloc<std::allocator<__int64> >::construct<__int64,__int64 &>
_TEXT	ENDS
; Function compile flags: /Odtp
; File c:\program files (x86)\microsoft visual studio 14.0\vc\include\xstddef
;	COMDAT ??$_Unfancy@_J@std@@YAPA_JPA_J@Z
_TEXT	SEGMENT
__Ptr$ = 8						; size = 4
??$_Unfancy@_J@std@@YAPA_JPA_J@Z PROC			; std::_Unfancy<__int64>, COMDAT

; 739  : 	{	// do nothing for plain pointers

  00000	55		 push	 ebp
  00001	8b ec		 mov	 ebp, esp

; 740  : 	return (_Ptr);

  00003	8b 45 08	 mov	 eax, DWORD PTR __Ptr$[ebp]

; 741  : 	}

  00006	5d		 pop	 ebp
  00007	c3		 ret	 0
??$_Unfancy@_J@std@@YAPA_JPA_J@Z ENDP			; std::_Unfancy<__int64>
_TEXT	ENDS
; Function compile flags: /Odtp
; File c:\program files (x86)\microsoft visual studio 14.0\vc\include\xstddef
;	COMDAT ??$addressof@$$CB_J@std@@YAPB_JAB_J@Z
_TEXT	SEGMENT
__Val$ = 8						; size = 4
??$addressof@$$CB_J@std@@YAPB_JAB_J@Z PROC		; std::addressof<__int64 const >, COMDAT

; 724  : 	{	// return address of _Val

  00000	55		 push	 ebp
  00001	8b ec		 mov	 ebp, esp

; 725  : 	return (__builtin_addressof(_Val));

  00003	8b 45 08	 mov	 eax, DWORD PTR __Val$[ebp]

; 726  : 	}

  00006	5d		 pop	 ebp
  00007	c3		 ret	 0
??$addressof@$$CB_J@std@@YAPB_JAB_J@Z ENDP		; std::addressof<__int64 const >
_TEXT	ENDS
; Function compile flags: /Odtp
; File c:\program files (x86)\microsoft visual studio 14.0\vc\include\xutility
;	COMDAT ??$_Move_unchecked@PA_JPA_J@std@@YAPA_JPA_J00@Z
_TEXT	SEGMENT
$T1 = -2						; size = 1
$T2 = -1						; size = 1
__First$ = 8						; size = 4
__Last$ = 12						; size = 4
__Dest$ = 16						; size = 4
??$_Move_unchecked@PA_JPA_J@std@@YAPA_JPA_J00@Z PROC	; std::_Move_unchecked<__int64 *,__int64 *>, COMDAT

; 2597 : 	{	// move [_First, _Last) to [_Dest, ...), choose optimization

  00000	55		 push	 ebp
  00001	8b ec		 mov	 ebp, esp
  00003	51		 push	 ecx

; 2598 : 	return (_Move_unchecked1(_First, _Last,

  00004	8d 45 10	 lea	 eax, DWORD PTR __Dest$[ebp]
  00007	50		 push	 eax
  00008	8d 4d 08	 lea	 ecx, DWORD PTR __First$[ebp]
  0000b	51		 push	 ecx
  0000c	8d 55 ff	 lea	 edx, DWORD PTR $T2[ebp]
  0000f	52		 push	 edx
  00010	e8 00 00 00 00	 call	 ??$_Ptr_move_cat@_J_J@std@@YA?AU_Really_trivial_ptr_iterator_tag@0@ABQA_J0@Z ; std::_Ptr_move_cat<__int64,__int64>
  00015	83 c4 0c	 add	 esp, 12			; 0000000cH
  00018	0f b6 45 fe	 movzx	 eax, BYTE PTR $T1[ebp]
  0001c	50		 push	 eax
  0001d	8b 4d 10	 mov	 ecx, DWORD PTR __Dest$[ebp]
  00020	51		 push	 ecx
  00021	8b 55 0c	 mov	 edx, DWORD PTR __Last$[ebp]
  00024	52		 push	 edx
  00025	8b 45 08	 mov	 eax, DWORD PTR __First$[ebp]
  00028	50		 push	 eax
  00029	e8 00 00 00 00	 call	 ??$_Move_unchecked1@PA_JPA_J@std@@YAPA_JPA_J00U_Trivially_copyable_ptr_iterator_tag@0@@Z ; std::_Move_unchecked1<__int64 *,__int64 *>
  0002e	83 c4 10	 add	 esp, 16			; 00000010H

; 2599 : 		_Dest, _Ptr_move_cat(_First, _Dest)));
; 2600 : 	}

  00031	8b e5		 mov	 esp, ebp
  00033	5d		 pop	 ebp
  00034	c3		 ret	 0
??$_Move_unchecked@PA_JPA_J@std@@YAPA_JPA_J00@Z ENDP	; std::_Move_unchecked<__int64 *,__int64 *>
_TEXT	ENDS
; Function compile flags: /Odtp
; File c:\program files (x86)\microsoft visual studio 14.0\vc\include\vector
;	COMDAT ??0?$_Vector_iterator@V?$_Vector_val@U?$_Simple_types@_J@std@@@std@@@std@@QAE@PA_JPBU_Container_base0@1@@Z
_TEXT	SEGMENT
_this$ = -4						; size = 4
__Parg$ = 8						; size = 4
__Pvector$ = 12						; size = 4
??0?$_Vector_iterator@V?$_Vector_val@U?$_Simple_types@_J@std@@@std@@@std@@QAE@PA_JPBU_Container_base0@1@@Z PROC ; std::_Vector_iterator<std::_Vector_val<std::_Simple_types<__int64> > >::_Vector_iterator<std::_Vector_val<std::_Simple_types<__int64> > >, COMDAT
; _this$ = ecx

; 313  : 		{	// construct with pointer _Parg

  00000	55		 push	 ebp
  00001	8b ec		 mov	 ebp, esp
  00003	51		 push	 ecx
  00004	89 4d fc	 mov	 DWORD PTR _this$[ebp], ecx

; 312  : 		: _Mybase(_Parg, _Pvector)

  00007	8b 45 0c	 mov	 eax, DWORD PTR __Pvector$[ebp]
  0000a	50		 push	 eax
  0000b	8b 4d 08	 mov	 ecx, DWORD PTR __Parg$[ebp]
  0000e	51		 push	 ecx
  0000f	8b 4d fc	 mov	 ecx, DWORD PTR _this$[ebp]
  00012	e8 00 00 00 00	 call	 ??0?$_Vector_const_iterator@V?$_Vector_val@U?$_Simple_types@_J@std@@@std@@@std@@QAE@PA_JPBU_Container_base0@1@@Z ; std::_Vector_const_iterator<std::_Vector_val<std::_Simple_types<__int64> > >::_Vector_const_iterator<std::_Vector_val<std::_Simple_types<__int64> > >

; 314  : 		}

  00017	8b 45 fc	 mov	 eax, DWORD PTR _this$[ebp]
  0001a	8b e5		 mov	 esp, ebp
  0001c	5d		 pop	 ebp
  0001d	c2 08 00	 ret	 8
??0?$_Vector_iterator@V?$_Vector_val@U?$_Simple_types@_J@std@@@std@@@std@@QAE@PA_JPBU_Container_base0@1@@Z ENDP ; std::_Vector_iterator<std::_Vector_val<std::_Simple_types<__int64> > >::_Vector_iterator<std::_Vector_val<std::_Simple_types<__int64> > >
_TEXT	ENDS
; Function compile flags: /Odtp
; File c:\program files (x86)\microsoft visual studio 14.0\vc\include\vector
;	COMDAT ??0?$_Vector_const_iterator@V?$_Vector_val@U?$_Simple_types@_J@std@@@std@@@std@@QAE@PA_JPBU_Container_base0@1@@Z
_TEXT	SEGMENT
_this$ = -4						; size = 4
__Parg$ = 8						; size = 4
__Pvector$ = 12						; size = 4
??0?$_Vector_const_iterator@V?$_Vector_val@U?$_Simple_types@_J@std@@@std@@@std@@QAE@PA_JPBU_Container_base0@1@@Z PROC ; std::_Vector_const_iterator<std::_Vector_val<std::_Simple_types<__int64> > >::_Vector_const_iterator<std::_Vector_val<std::_Simple_types<__int64> > >, COMDAT
; _this$ = ecx

; 47   : 		{	// construct with pointer _Parg

  00000	55		 push	 ebp
  00001	8b ec		 mov	 ebp, esp
  00003	51		 push	 ecx
  00004	89 4d fc	 mov	 DWORD PTR _this$[ebp], ecx

; 46   : 		: _Ptr(_Parg)

  00007	8b 45 fc	 mov	 eax, DWORD PTR _this$[ebp]
  0000a	8b 4d 08	 mov	 ecx, DWORD PTR __Parg$[ebp]
  0000d	89 08		 mov	 DWORD PTR [eax], ecx

; 48   : 		this->_Adopt(_Pvector);

  0000f	8b 55 0c	 mov	 edx, DWORD PTR __Pvector$[ebp]
  00012	52		 push	 edx
  00013	8b 4d fc	 mov	 ecx, DWORD PTR _this$[ebp]
  00016	e8 00 00 00 00	 call	 ?_Adopt@_Iterator_base0@std@@QAEXPBX@Z ; std::_Iterator_base0::_Adopt

; 49   : 		}

  0001b	8b 45 fc	 mov	 eax, DWORD PTR _this$[ebp]
  0001e	8b e5		 mov	 esp, ebp
  00020	5d		 pop	 ebp
  00021	c2 08 00	 ret	 8
??0?$_Vector_const_iterator@V?$_Vector_val@U?$_Simple_types@_J@std@@@std@@@std@@QAE@PA_JPBU_Container_base0@1@@Z ENDP ; std::_Vector_const_iterator<std::_Vector_val<std::_Simple_types<__int64> > >::_Vector_const_iterator<std::_Vector_val<std::_Simple_types<__int64> > >
_TEXT	ENDS
; Function compile flags: /Odtp
;	COMDAT ??_GCTableFrameSink@@UAEPAXI@Z
_TEXT	SEGMENT
_this$ = -4						; size = 4
___flags$ = 8						; size = 4
??_GCTableFrameSink@@UAEPAXI@Z PROC			; CTableFrameSink::`scalar deleting destructor', COMDAT
; _this$ = ecx
  00000	55		 push	 ebp
  00001	8b ec		 mov	 ebp, esp
  00003	51		 push	 ecx
  00004	89 4d fc	 mov	 DWORD PTR _this$[ebp], ecx
  00007	8b 4d fc	 mov	 ecx, DWORD PTR _this$[ebp]
  0000a	e8 00 00 00 00	 call	 ??1CTableFrameSink@@UAE@XZ ; CTableFrameSink::~CTableFrameSink
  0000f	8b 45 08	 mov	 eax, DWORD PTR ___flags$[ebp]
  00012	83 e0 01	 and	 eax, 1
  00015	74 11		 je	 SHORT $LN2@scalar
  00017	68 38 09 00 00	 push	 2360			; 00000938H
  0001c	8b 4d fc	 mov	 ecx, DWORD PTR _this$[ebp]
  0001f	51		 push	 ecx
  00020	e8 00 00 00 00	 call	 ??3@YAXPAXI@Z		; operator delete
  00025	83 c4 08	 add	 esp, 8
$LN2@scalar:
  00028	8b 45 fc	 mov	 eax, DWORD PTR _this$[ebp]
  0002b	8b e5		 mov	 esp, ebp
  0002d	5d		 pop	 ebp
  0002e	c2 04 00	 ret	 4
??_GCTableFrameSink@@UAEPAXI@Z ENDP			; CTableFrameSink::`scalar deleting destructor'
_TEXT	ENDS
; Function compile flags: /Odtp
; File d:\qijianban\laok\服务端\游戏组件\老k子游戏\红中麻将\服务器组件\tableframesink.cpp
_TEXT	SEGMENT
tv135 = -28						; size = 4
$T2 = -24						; size = 4
_strtip$ = -20						; size = 4
_this$ = -16						; size = 4
__$EHRec$ = -12						; size = 12
_pszString$ = 8						; size = 4
?WriteDebugInfo@CTableFrameSink@@IAEXPB_W@Z PROC	; CTableFrameSink::WriteDebugInfo
; _this$ = ecx

; 2494 : {

  00000	55		 push	 ebp
  00001	8b ec		 mov	 ebp, esp
  00003	6a ff		 push	 -1
  00005	68 00 00 00 00	 push	 __ehhandler$?WriteDebugInfo@CTableFrameSink@@IAEXPB_W@Z
  0000a	64 a1 00 00 00
	00		 mov	 eax, DWORD PTR fs:0
  00010	50		 push	 eax
  00011	83 ec 10	 sub	 esp, 16			; 00000010H
  00014	a1 00 00 00 00	 mov	 eax, DWORD PTR ___security_cookie
  00019	33 c5		 xor	 eax, ebp
  0001b	50		 push	 eax
  0001c	8d 45 f4	 lea	 eax, DWORD PTR __$EHRec$[ebp]
  0001f	64 a3 00 00 00
	00		 mov	 DWORD PTR fs:0, eax
  00025	89 4d f0	 mov	 DWORD PTR _this$[ebp], ecx

; 2495 : 	CString strtip;

  00028	8d 4d ec	 lea	 ecx, DWORD PTR _strtip$[ebp]
  0002b	ff 15 00 00 00
	00		 call	 DWORD PTR __imp_??0?$CStringT@_WV?$StrTraitMFC_DLL@_WV?$ChTraitsCRT@_W@ATL@@@@@ATL@@QAE@XZ
  00031	c7 45 fc 00 00
	00 00		 mov	 DWORD PTR __$EHRec$[ebp+8], 0

; 2496 : 	strtip.Format(TEXT("房间号%d--%s\n"), m_pITableFrame->GetTableID(), pszString);

  00038	8b 45 08	 mov	 eax, DWORD PTR _pszString$[ebp]
  0003b	50		 push	 eax
  0003c	8b 4d f0	 mov	 ecx, DWORD PTR _this$[ebp]
  0003f	8b 91 28 09 00
	00		 mov	 edx, DWORD PTR [ecx+2344]
  00045	8b 45 f0	 mov	 eax, DWORD PTR _this$[ebp]
  00048	8b 12		 mov	 edx, DWORD PTR [edx]
  0004a	8b 88 28 09 00
	00		 mov	 ecx, DWORD PTR [eax+2344]
  00050	8b 42 08	 mov	 eax, DWORD PTR [edx+8]
  00053	ff d0		 call	 eax
  00055	0f b7 c8	 movzx	 ecx, ax
  00058	51		 push	 ecx
  00059	68 00 00 00 00	 push	 OFFSET $SG314472
  0005e	8d 55 ec	 lea	 edx, DWORD PTR _strtip$[ebp]
  00061	52		 push	 edx
  00062	ff 15 00 00 00
	00		 call	 DWORD PTR __imp_?Format@?$CStringT@_WV?$StrTraitMFC_DLL@_WV?$ChTraitsCRT@_W@ATL@@@@@ATL@@QAAXPB_WZZ
  00068	83 c4 10	 add	 esp, 16			; 00000010H

; 2497 : 	m_pITableFrame->SendGameLogData(strtip);

  0006b	51		 push	 ecx
  0006c	8b cc		 mov	 ecx, esp
  0006e	89 65 e8	 mov	 DWORD PTR $T2[ebp], esp
  00071	8d 45 ec	 lea	 eax, DWORD PTR _strtip$[ebp]
  00074	50		 push	 eax
  00075	ff 15 00 00 00
	00		 call	 DWORD PTR __imp_??0?$CStringT@_WV?$StrTraitMFC_DLL@_WV?$ChTraitsCRT@_W@ATL@@@@@ATL@@QAE@ABV01@@Z
  0007b	89 45 e4	 mov	 DWORD PTR tv135[ebp], eax
  0007e	8b 4d f0	 mov	 ecx, DWORD PTR _this$[ebp]
  00081	8b 91 28 09 00
	00		 mov	 edx, DWORD PTR [ecx+2344]
  00087	8b 45 f0	 mov	 eax, DWORD PTR _this$[ebp]
  0008a	8b 12		 mov	 edx, DWORD PTR [edx]
  0008c	8b 88 28 09 00
	00		 mov	 ecx, DWORD PTR [eax+2344]
  00092	8b 82 e0 00 00
	00		 mov	 eax, DWORD PTR [edx+224]
  00098	ff d0		 call	 eax

; 2498 : }

  0009a	c7 45 fc ff ff
	ff ff		 mov	 DWORD PTR __$EHRec$[ebp+8], -1
  000a1	8d 4d ec	 lea	 ecx, DWORD PTR _strtip$[ebp]
  000a4	ff 15 00 00 00
	00		 call	 DWORD PTR __imp_??1?$CStringT@_WV?$StrTraitMFC_DLL@_WV?$ChTraitsCRT@_W@ATL@@@@@ATL@@QAE@XZ
  000aa	8b 4d f4	 mov	 ecx, DWORD PTR __$EHRec$[ebp]
  000ad	64 89 0d 00 00
	00 00		 mov	 DWORD PTR fs:0, ecx
  000b4	59		 pop	 ecx
  000b5	8b e5		 mov	 esp, ebp
  000b7	5d		 pop	 ebp
  000b8	c2 04 00	 ret	 4
_TEXT	ENDS
text$x	SEGMENT
__unwindfunclet$?WriteDebugInfo@CTableFrameSink@@IAEXPB_W@Z$0:
  00000	8d 4d ec	 lea	 ecx, DWORD PTR _strtip$[ebp]
  00003	ff 25 00 00 00
	00		 jmp	 DWORD PTR __imp_??1?$CStringT@_WV?$StrTraitMFC_DLL@_WV?$ChTraitsCRT@_W@ATL@@@@@ATL@@QAE@XZ
__ehhandler$?WriteDebugInfo@CTableFrameSink@@IAEXPB_W@Z:
  00009	8b 54 24 08	 mov	 edx, DWORD PTR [esp+8]
  0000d	8d 42 0c	 lea	 eax, DWORD PTR [edx+12]
  00010	8b 4a ec	 mov	 ecx, DWORD PTR [edx-20]
  00013	33 c8		 xor	 ecx, eax
  00015	e8 00 00 00 00	 call	 @__security_check_cookie@4
  0001a	b8 00 00 00 00	 mov	 eax, OFFSET __ehfuncinfo$?WriteDebugInfo@CTableFrameSink@@IAEXPB_W@Z
  0001f	e9 00 00 00 00	 jmp	 ___CxxFrameHandler3
text$x	ENDS
?WriteDebugInfo@CTableFrameSink@@IAEXPB_W@Z ENDP	; CTableFrameSink::WriteDebugInfo
; Function compile flags: /Odtp
; File d:\qijianban\laok\服务端\游戏组件\老k子游戏\红中麻将\服务器组件\tableframesink.cpp
_TEXT	SEGMENT
tv79 = -8						; size = 4
_this$ = -4						; size = 4
?IsRoomCardTreasureType@CTableFrameSink@@IAE_NXZ PROC	; CTableFrameSink::IsRoomCardTreasureType
; _this$ = ecx

; 2489 : {

  00000	55		 push	 ebp
  00001	8b ec		 mov	 ebp, esp
  00003	83 ec 08	 sub	 esp, 8
  00006	89 4d fc	 mov	 DWORD PTR _this$[ebp], ecx

; 2490 : 	return (m_pITableFrame->GetDataBaseMode() == 1) && (((m_pGameServiceOption->wServerType) & GAME_GENRE_PERSONAL) != 0);

  00009	8b 45 fc	 mov	 eax, DWORD PTR _this$[ebp]
  0000c	8b 88 28 09 00
	00		 mov	 ecx, DWORD PTR [eax+2344]
  00012	8b 55 fc	 mov	 edx, DWORD PTR _this$[ebp]
  00015	8b 01		 mov	 eax, DWORD PTR [ecx]
  00017	8b 8a 28 09 00
	00		 mov	 ecx, DWORD PTR [edx+2344]
  0001d	8b 90 34 01 00
	00		 mov	 edx, DWORD PTR [eax+308]
  00023	ff d2		 call	 edx
  00025	0f b6 c0	 movzx	 eax, al
  00028	83 f8 01	 cmp	 eax, 1
  0002b	75 1b		 jne	 SHORT $LN3@IsRoomCard
  0002d	8b 4d fc	 mov	 ecx, DWORD PTR _this$[ebp]
  00030	8b 91 30 09 00
	00		 mov	 edx, DWORD PTR [ecx+2352]
  00036	0f b7 42 54	 movzx	 eax, WORD PTR [edx+84]
  0003a	83 e0 10	 and	 eax, 16			; 00000010H
  0003d	74 09		 je	 SHORT $LN3@IsRoomCard
  0003f	c7 45 f8 01 00
	00 00		 mov	 DWORD PTR tv79[ebp], 1
  00046	eb 07		 jmp	 SHORT $LN4@IsRoomCard
$LN3@IsRoomCard:
  00048	c7 45 f8 00 00
	00 00		 mov	 DWORD PTR tv79[ebp], 0
$LN4@IsRoomCard:
  0004f	8a 45 f8	 mov	 al, BYTE PTR tv79[ebp]

; 2491 : }

  00052	8b e5		 mov	 esp, ebp
  00054	5d		 pop	 ebp
  00055	c3		 ret	 0
?IsRoomCardTreasureType@CTableFrameSink@@IAE_NXZ ENDP	; CTableFrameSink::IsRoomCardTreasureType
_TEXT	ENDS
; Function compile flags: /Odtp
; File d:\qijianban\laok\服务端\游戏组件\老k子游戏\红中麻将\服务器组件\tableframesink.cpp
_TEXT	SEGMENT
tv79 = -8						; size = 4
_this$ = -4						; size = 4
?IsRoomCardScoreType@CTableFrameSink@@IAE_NXZ PROC	; CTableFrameSink::IsRoomCardScoreType
; _this$ = ecx

; 2484 : {

  00000	55		 push	 ebp
  00001	8b ec		 mov	 ebp, esp
  00003	83 ec 08	 sub	 esp, 8
  00006	89 4d fc	 mov	 DWORD PTR _this$[ebp], ecx

; 2485 : 	return (m_pITableFrame->GetDataBaseMode() == 0) && (((m_pGameServiceOption->wServerType) & GAME_GENRE_PERSONAL) != 0);

  00009	8b 45 fc	 mov	 eax, DWORD PTR _this$[ebp]
  0000c	8b 88 28 09 00
	00		 mov	 ecx, DWORD PTR [eax+2344]
  00012	8b 55 fc	 mov	 edx, DWORD PTR _this$[ebp]
  00015	8b 01		 mov	 eax, DWORD PTR [ecx]
  00017	8b 8a 28 09 00
	00		 mov	 ecx, DWORD PTR [edx+2344]
  0001d	8b 90 34 01 00
	00		 mov	 edx, DWORD PTR [eax+308]
  00023	ff d2		 call	 edx
  00025	0f b6 c0	 movzx	 eax, al
  00028	85 c0		 test	 eax, eax
  0002a	75 1b		 jne	 SHORT $LN3@IsRoomCard
  0002c	8b 4d fc	 mov	 ecx, DWORD PTR _this$[ebp]
  0002f	8b 91 30 09 00
	00		 mov	 edx, DWORD PTR [ecx+2352]
  00035	0f b7 42 54	 movzx	 eax, WORD PTR [edx+84]
  00039	83 e0 10	 and	 eax, 16			; 00000010H
  0003c	74 09		 je	 SHORT $LN3@IsRoomCard
  0003e	c7 45 f8 01 00
	00 00		 mov	 DWORD PTR tv79[ebp], 1
  00045	eb 07		 jmp	 SHORT $LN4@IsRoomCard
$LN3@IsRoomCard:
  00047	c7 45 f8 00 00
	00 00		 mov	 DWORD PTR tv79[ebp], 0
$LN4@IsRoomCard:
  0004e	8a 45 f8	 mov	 al, BYTE PTR tv79[ebp]

; 2486 : }

  00051	8b e5		 mov	 esp, ebp
  00053	5d		 pop	 ebp
  00054	c3		 ret	 0
?IsRoomCardScoreType@CTableFrameSink@@IAE_NXZ ENDP	; CTableFrameSink::IsRoomCardScoreType
_TEXT	ENDS
; Function compile flags: /Odtp
; File d:\qijianban\laok\服务端\游戏组件\老k子游戏\红中麻将\服务器组件\tableframesink.cpp
_TEXT	SEGMENT
_this$ = -8						; size = 4
tv69 = -4						; size = 4
?IsRoomCard@CTableFrameSink@@IAE_NXZ PROC		; CTableFrameSink::IsRoomCard
; _this$ = ecx

; 2479 : {

  00000	55		 push	 ebp
  00001	8b ec		 mov	 ebp, esp
  00003	83 ec 08	 sub	 esp, 8
  00006	89 4d f8	 mov	 DWORD PTR _this$[ebp], ecx

; 2480 : 	return ((m_pGameServiceOption->wServerType&GAME_GENRE_PERSONAL) != 0);

  00009	8b 45 f8	 mov	 eax, DWORD PTR _this$[ebp]
  0000c	8b 88 30 09 00
	00		 mov	 ecx, DWORD PTR [eax+2352]
  00012	0f b7 51 54	 movzx	 edx, WORD PTR [ecx+84]
  00016	83 e2 10	 and	 edx, 16			; 00000010H
  00019	74 09		 je	 SHORT $LN3@IsRoomCard
  0001b	c7 45 fc 01 00
	00 00		 mov	 DWORD PTR tv69[ebp], 1
  00022	eb 07		 jmp	 SHORT $LN4@IsRoomCard
$LN3@IsRoomCard:
  00024	c7 45 fc 00 00
	00 00		 mov	 DWORD PTR tv69[ebp], 0
$LN4@IsRoomCard:
  0002b	8a 45 fc	 mov	 al, BYTE PTR tv69[ebp]

; 2481 : }

  0002e	8b e5		 mov	 esp, ebp
  00030	5d		 pop	 ebp
  00031	c3		 ret	 0
?IsRoomCard@CTableFrameSink@@IAE_NXZ ENDP		; CTableFrameSink::IsRoomCard
_TEXT	ENDS
; Function compile flags: /Odtp
; File d:\qijianban\laok\服务端\游戏组件\老k子游戏\红中麻将\服务器组件\tableframesink.cpp
_TEXT	SEGMENT
_i$1 = -16						; size = 4
_this$ = -12						; size = 4
_i$2 = -8						; size = 2
_cbIndex$ = -2						; size = 1
_nCount$ = -1						; size = 1
_wChairID$ = 8						; size = 2
_cbCardData$ = 12					; size = 1
?GetRemainingCount@CTableFrameSink@@IAEEGE@Z PROC	; CTableFrameSink::GetRemainingCount
; _this$ = ecx

; 2364 : {

  00000	55		 push	 ebp
  00001	8b ec		 mov	 ebp, esp
  00003	83 ec 10	 sub	 esp, 16			; 00000010H
  00006	89 4d f4	 mov	 DWORD PTR _this$[ebp], ecx

; 2365 : 	BYTE cbIndex = m_GameLogic.SwitchToCardIndex(cbCardData);

  00009	0f b6 45 0c	 movzx	 eax, BYTE PTR _cbCardData$[ebp]
  0000d	50		 push	 eax
  0000e	8b 4d f4	 mov	 ecx, DWORD PTR _this$[ebp]
  00011	81 c1 d4 08 00
	00		 add	 ecx, 2260		; 000008d4H
  00017	e8 00 00 00 00	 call	 ?SwitchToCardIndex@CGameLogic@@QAEEE@Z ; CGameLogic::SwitchToCardIndex
  0001c	88 45 fe	 mov	 BYTE PTR _cbIndex$[ebp], al

; 2366 : 	BYTE nCount=0;

  0001f	c6 45 ff 00	 mov	 BYTE PTR _nCount$[ebp], 0

; 2367 : 	for(int i=m_cbMinusLastCount;i<MAX_REPERTORY-m_cbMinusHeadCount;i++)

  00023	8b 4d f4	 mov	 ecx, DWORD PTR _this$[ebp]
  00026	0f b6 91 b0 07
	00 00		 movzx	 edx, BYTE PTR [ecx+1968]
  0002d	89 55 f0	 mov	 DWORD PTR _i$1[ebp], edx
  00030	eb 09		 jmp	 SHORT $LN4@GetRemaini
$LN2@GetRemaini:
  00032	8b 45 f0	 mov	 eax, DWORD PTR _i$1[ebp]
  00035	83 c0 01	 add	 eax, 1
  00038	89 45 f0	 mov	 DWORD PTR _i$1[ebp], eax
$LN4@GetRemaini:
  0003b	8b 4d f4	 mov	 ecx, DWORD PTR _this$[ebp]
  0003e	0f b6 91 af 07
	00 00		 movzx	 edx, BYTE PTR [ecx+1967]
  00045	b8 70 00 00 00	 mov	 eax, 112		; 00000070H
  0004a	2b c2		 sub	 eax, edx
  0004c	39 45 f0	 cmp	 DWORD PTR _i$1[ebp], eax
  0004f	7d 20		 jge	 SHORT $LN3@GetRemaini

; 2368 : 	{
; 2369 : 		if(m_cbRepertoryCard[i] == cbCardData)

  00051	8b 4d f4	 mov	 ecx, DWORD PTR _this$[ebp]
  00054	03 4d f0	 add	 ecx, DWORD PTR _i$1[ebp]
  00057	0f b6 91 3e 07
	00 00		 movzx	 edx, BYTE PTR [ecx+1854]
  0005e	0f b6 45 0c	 movzx	 eax, BYTE PTR _cbCardData$[ebp]
  00062	3b d0		 cmp	 edx, eax
  00064	75 09		 jne	 SHORT $LN8@GetRemaini

; 2370 : 			nCount++;

  00066	8a 4d ff	 mov	 cl, BYTE PTR _nCount$[ebp]
  00069	80 c1 01	 add	 cl, 1
  0006c	88 4d ff	 mov	 BYTE PTR _nCount$[ebp], cl
$LN8@GetRemaini:

; 2371 : 	}

  0006f	eb c1		 jmp	 SHORT $LN2@GetRemaini
$LN3@GetRemaini:

; 2372 : 	for(WORD i=0;i<GAME_PLAYER;i++)

  00071	33 d2		 xor	 edx, edx
  00073	66 89 55 f8	 mov	 WORD PTR _i$2[ebp], dx
  00077	eb 0c		 jmp	 SHORT $LN7@GetRemaini
$LN5@GetRemaini:
  00079	66 8b 45 f8	 mov	 ax, WORD PTR _i$2[ebp]
  0007d	66 83 c0 01	 add	 ax, 1
  00081	66 89 45 f8	 mov	 WORD PTR _i$2[ebp], ax
$LN7@GetRemaini:
  00085	0f b7 4d f8	 movzx	 ecx, WORD PTR _i$2[ebp]
  00089	83 f9 04	 cmp	 ecx, 4
  0008c	7d 32		 jge	 SHORT $LN6@GetRemaini

; 2373 : 	{
; 2374 : 		if( i == wChairID)

  0008e	0f b7 55 f8	 movzx	 edx, WORD PTR _i$2[ebp]
  00092	0f b7 45 08	 movzx	 eax, WORD PTR _wChairID$[ebp]
  00096	3b d0		 cmp	 edx, eax
  00098	75 02		 jne	 SHORT $LN9@GetRemaini

; 2375 : 			continue;

  0009a	eb dd		 jmp	 SHORT $LN5@GetRemaini
$LN9@GetRemaini:

; 2376 : 
; 2377 : 		nCount += m_cbCardIndex[i][cbIndex];

  0009c	0f b7 4d f8	 movzx	 ecx, WORD PTR _i$2[ebp]
  000a0	6b d1 22	 imul	 edx, ecx, 34
  000a3	8b 45 f4	 mov	 eax, DWORD PTR _this$[ebp]
  000a6	8d 8c 10 b2 07
	00 00		 lea	 ecx, DWORD PTR [eax+edx+1970]
  000ad	0f b6 55 fe	 movzx	 edx, BYTE PTR _cbIndex$[ebp]
  000b1	0f b6 04 11	 movzx	 eax, BYTE PTR [ecx+edx]
  000b5	0f b6 4d ff	 movzx	 ecx, BYTE PTR _nCount$[ebp]
  000b9	03 c8		 add	 ecx, eax
  000bb	88 4d ff	 mov	 BYTE PTR _nCount$[ebp], cl

; 2378 : 	}

  000be	eb b9		 jmp	 SHORT $LN5@GetRemaini
$LN6@GetRemaini:

; 2379 : 	return nCount;

  000c0	8a 45 ff	 mov	 al, BYTE PTR _nCount$[ebp]

; 2380 : }

  000c3	8b e5		 mov	 esp, ebp
  000c5	5d		 pop	 ebp
  000c6	c2 08 00	 ret	 8
?GetRemainingCount@CTableFrameSink@@IAEEGE@Z ENDP	; CTableFrameSink::GetRemainingCount
_TEXT	ENDS
; Function compile flags: /Odtp
; File d:\qijianban\laok\服务端\游戏组件\老k子游戏\红中麻将\服务器组件\tableframesink.cpp
_TEXT	SEGMENT
_i$1 = -12						; size = 4
_this$ = -8						; size = 4
_carddata$2 = -3					; size = 1
_carddata$3 = -2					; size = 1
_cbScore$ = -1						; size = 1
_wChairId$ = 8						; size = 2
?GetTimes@CTableFrameSink@@IAEEG@Z PROC			; CTableFrameSink::GetTimes
; _this$ = ecx

; 2322 : {

  00000	55		 push	 ebp
  00001	8b ec		 mov	 ebp, esp
  00003	83 ec 0c	 sub	 esp, 12			; 0000000cH
  00006	89 4d f8	 mov	 DWORD PTR _this$[ebp], ecx

; 2323 : 	BYTE cbScore = 0;

  00009	c6 45 ff 00	 mov	 BYTE PTR _cbScore$[ebp], 0

; 2324 : 	ASSERT(m_cbMaCount > 0 && m_cbMaCount <= 6);
; 2325 : 	m_cbUserMaCount[wChairId]=m_cbMaCount;

  0000d	0f b7 45 08	 movzx	 eax, WORD PTR _wChairId$[ebp]
  00011	8b 4d f8	 mov	 ecx, DWORD PTR _this$[ebp]
  00014	8b 55 f8	 mov	 edx, DWORD PTR _this$[ebp]
  00017	8a 52 08	 mov	 dl, BYTE PTR [edx+8]
  0001a	88 94 01 dc 05
	00 00		 mov	 BYTE PTR [ecx+eax+1500], dl

; 2326 : 
; 2327 : 	if(m_cbMaCount == 1)//一码全中

  00021	8b 45 f8	 mov	 eax, DWORD PTR _this$[ebp]
  00024	0f b6 48 08	 movzx	 ecx, BYTE PTR [eax+8]
  00028	83 f9 01	 cmp	 ecx, 1
  0002b	75 72		 jne	 SHORT $LN5@GetTimes

; 2328 : 	{
; 2329 : 		BYTE carddata = m_cbRepertoryCard[MAX_REPERTORY - m_cbMinusHeadCount-1];

  0002d	8b 55 f8	 mov	 edx, DWORD PTR _this$[ebp]
  00030	0f b6 82 af 07
	00 00		 movzx	 eax, BYTE PTR [edx+1967]
  00037	b9 70 00 00 00	 mov	 ecx, 112		; 00000070H
  0003c	2b c8		 sub	 ecx, eax
  0003e	8b 55 f8	 mov	 edx, DWORD PTR _this$[ebp]
  00041	8a 84 0a 3d 07
	00 00		 mov	 al, BYTE PTR [edx+ecx+1853]
  00048	88 45 fe	 mov	 BYTE PTR _carddata$3[ebp], al

; 2330 : 		if(m_GameLogic.GetCardColor(carddata) < 0x30)

  0004b	0f b6 4d fe	 movzx	 ecx, BYTE PTR _carddata$3[ebp]
  0004f	51		 push	 ecx
  00050	8b 4d f8	 mov	 ecx, DWORD PTR _this$[ebp]
  00053	81 c1 d4 08 00
	00		 add	 ecx, 2260		; 000008d4H
  00059	e8 00 00 00 00	 call	 ?GetCardColor@CGameLogic@@QAEEE@Z ; CGameLogic::GetCardColor
  0005e	0f b6 d0	 movzx	 edx, al
  00061	83 fa 30	 cmp	 edx, 48			; 00000030H
  00064	7d 18		 jge	 SHORT $LN7@GetTimes

; 2331 : 		{
; 2332 : 			cbScore = m_GameLogic.GetCardValue(carddata);

  00066	0f b6 45 fe	 movzx	 eax, BYTE PTR _carddata$3[ebp]
  0006a	50		 push	 eax
  0006b	8b 4d f8	 mov	 ecx, DWORD PTR _this$[ebp]
  0006e	81 c1 d4 08 00
	00		 add	 ecx, 2260		; 000008d4H
  00074	e8 00 00 00 00	 call	 ?GetCardValue@CGameLogic@@QAEEE@Z ; CGameLogic::GetCardValue
  00079	88 45 ff	 mov	 BYTE PTR _cbScore$[ebp], al

; 2333 : 		}
; 2334 : 		else//红中10分

  0007c	eb 04		 jmp	 SHORT $LN8@GetTimes
$LN7@GetTimes:

; 2335 : 		{
; 2336 : 			cbScore = 10;

  0007e	c6 45 ff 0a	 mov	 BYTE PTR _cbScore$[ebp], 10 ; 0000000aH
$LN8@GetTimes:

; 2337 : 		}
; 2338 : 		//统计中码个数
; 2339 : 		m_stRecord.cbMaCount[wChairId]++;

  00082	0f b7 4d 08	 movzx	 ecx, WORD PTR _wChairId$[ebp]
  00086	8b 55 f8	 mov	 edx, DWORD PTR _this$[ebp]
  00089	8a 44 0a 12	 mov	 al, BYTE PTR [edx+ecx+18]
  0008d	04 01		 add	 al, 1
  0008f	0f b7 4d 08	 movzx	 ecx, WORD PTR _wChairId$[ebp]
  00093	8b 55 f8	 mov	 edx, DWORD PTR _this$[ebp]
  00096	88 44 0a 12	 mov	 BYTE PTR [edx+ecx+18], al

; 2340 : 	}
; 2341 : 	else//2-6码

  0009a	e9 02 01 00 00	 jmp	 $LN6@GetTimes
$LN5@GetTimes:

; 2342 : 	{
; 2343 : 		
; 2344 : 		if(m_cbCardIndex[wChairId][m_cbMagicIndex] == 0 && m_GameLogic.SwitchToCardIndex(m_cbProvideCard) != m_cbMagicIndex)//胡牌手中没红中，加一个码

  0009f	0f b7 45 08	 movzx	 eax, WORD PTR _wChairId$[ebp]
  000a3	6b c8 22	 imul	 ecx, eax, 34
  000a6	8b 55 f8	 mov	 edx, DWORD PTR _this$[ebp]
  000a9	8d 84 0a b2 07
	00 00		 lea	 eax, DWORD PTR [edx+ecx+1970]
  000b0	8b 4d f8	 mov	 ecx, DWORD PTR _this$[ebp]
  000b3	0f b6 91 7c 04
	00 00		 movzx	 edx, BYTE PTR [ecx+1148]
  000ba	0f b6 04 10	 movzx	 eax, BYTE PTR [eax+edx]
  000be	85 c0		 test	 eax, eax
  000c0	75 49		 jne	 SHORT $LN9@GetTimes
  000c2	8b 4d f8	 mov	 ecx, DWORD PTR _this$[ebp]
  000c5	0f b6 91 c2 04
	00 00		 movzx	 edx, BYTE PTR [ecx+1218]
  000cc	52		 push	 edx
  000cd	8b 4d f8	 mov	 ecx, DWORD PTR _this$[ebp]
  000d0	81 c1 d4 08 00
	00		 add	 ecx, 2260		; 000008d4H
  000d6	e8 00 00 00 00	 call	 ?SwitchToCardIndex@CGameLogic@@QAEEE@Z ; CGameLogic::SwitchToCardIndex
  000db	0f b6 c0	 movzx	 eax, al
  000de	8b 4d f8	 mov	 ecx, DWORD PTR _this$[ebp]
  000e1	0f b6 91 7c 04
	00 00		 movzx	 edx, BYTE PTR [ecx+1148]
  000e8	3b c2		 cmp	 eax, edx
  000ea	74 1f		 je	 SHORT $LN9@GetTimes

; 2345 : 			m_cbUserMaCount[wChairId]++;

  000ec	0f b7 45 08	 movzx	 eax, WORD PTR _wChairId$[ebp]
  000f0	8b 4d f8	 mov	 ecx, DWORD PTR _this$[ebp]
  000f3	8a 94 01 dc 05
	00 00		 mov	 dl, BYTE PTR [ecx+eax+1500]
  000fa	80 c2 01	 add	 dl, 1
  000fd	0f b7 45 08	 movzx	 eax, WORD PTR _wChairId$[ebp]
  00101	8b 4d f8	 mov	 ecx, DWORD PTR _this$[ebp]
  00104	88 94 01 dc 05
	00 00		 mov	 BYTE PTR [ecx+eax+1500], dl
$LN9@GetTimes:

; 2346 : 
; 2347 : 		for(int i=0;i<m_cbUserMaCount[wChairId];i++)

  0010b	c7 45 f4 00 00
	00 00		 mov	 DWORD PTR _i$1[ebp], 0
  00112	eb 09		 jmp	 SHORT $LN4@GetTimes
$LN2@GetTimes:
  00114	8b 55 f4	 mov	 edx, DWORD PTR _i$1[ebp]
  00117	83 c2 01	 add	 edx, 1
  0011a	89 55 f4	 mov	 DWORD PTR _i$1[ebp], edx
$LN4@GetTimes:
  0011d	0f b7 45 08	 movzx	 eax, WORD PTR _wChairId$[ebp]
  00121	8b 4d f8	 mov	 ecx, DWORD PTR _this$[ebp]
  00124	0f b6 94 01 dc
	05 00 00	 movzx	 edx, BYTE PTR [ecx+eax+1500]
  0012c	39 55 f4	 cmp	 DWORD PTR _i$1[ebp], edx
  0012f	7d 70		 jge	 SHORT $LN6@GetTimes

; 2348 : 		{
; 2349 : 			BYTE carddata = m_cbRepertoryCard[MAX_REPERTORY - m_cbMinusHeadCount-i-1];

  00131	8b 45 f8	 mov	 eax, DWORD PTR _this$[ebp]
  00134	0f b6 88 af 07
	00 00		 movzx	 ecx, BYTE PTR [eax+1967]
  0013b	ba 70 00 00 00	 mov	 edx, 112		; 00000070H
  00140	2b d1		 sub	 edx, ecx
  00142	2b 55 f4	 sub	 edx, DWORD PTR _i$1[ebp]
  00145	8b 45 f8	 mov	 eax, DWORD PTR _this$[ebp]
  00148	8a 8c 10 3d 07
	00 00		 mov	 cl, BYTE PTR [eax+edx+1853]
  0014f	88 4d fd	 mov	 BYTE PTR _carddata$2[ebp], cl

; 2350 : 
; 2351 : 			if(m_GameLogic.GetCardValue(carddata)%4 == 1)//1,5,9,红中 算中码

  00152	0f b6 55 fd	 movzx	 edx, BYTE PTR _carddata$2[ebp]
  00156	52		 push	 edx
  00157	8b 4d f8	 mov	 ecx, DWORD PTR _this$[ebp]
  0015a	81 c1 d4 08 00
	00		 add	 ecx, 2260		; 000008d4H
  00160	e8 00 00 00 00	 call	 ?GetCardValue@CGameLogic@@QAEEE@Z ; CGameLogic::GetCardValue
  00165	0f b6 c0	 movzx	 eax, al
  00168	25 03 00 00 80	 and	 eax, -2147483645	; 80000003H
  0016d	79 05		 jns	 SHORT $LN12@GetTimes
  0016f	48		 dec	 eax
  00170	83 c8 fc	 or	 eax, -4			; fffffffcH
  00173	40		 inc	 eax
$LN12@GetTimes:
  00174	83 f8 01	 cmp	 eax, 1
  00177	75 23		 jne	 SHORT $LN10@GetTimes

; 2352 : 			{
; 2353 : 				cbScore += 2;

  00179	0f b6 4d ff	 movzx	 ecx, BYTE PTR _cbScore$[ebp]
  0017d	83 c1 02	 add	 ecx, 2
  00180	88 4d ff	 mov	 BYTE PTR _cbScore$[ebp], cl

; 2354 : 				//统计中码个数
; 2355 : 				m_stRecord.cbMaCount[wChairId]++;

  00183	0f b7 55 08	 movzx	 edx, WORD PTR _wChairId$[ebp]
  00187	8b 45 f8	 mov	 eax, DWORD PTR _this$[ebp]
  0018a	8a 4c 10 12	 mov	 cl, BYTE PTR [eax+edx+18]
  0018e	80 c1 01	 add	 cl, 1
  00191	0f b7 55 08	 movzx	 edx, WORD PTR _wChairId$[ebp]
  00195	8b 45 f8	 mov	 eax, DWORD PTR _this$[ebp]
  00198	88 4c 10 12	 mov	 BYTE PTR [eax+edx+18], cl
$LN10@GetTimes:

; 2356 : 			}
; 2357 : 		}

  0019c	e9 73 ff ff ff	 jmp	 $LN2@GetTimes
$LN6@GetTimes:

; 2358 : 	}
; 2359 : 
; 2360 : 	return cbScore+2;//基础倍数+2

  001a1	0f b6 45 ff	 movzx	 eax, BYTE PTR _cbScore$[ebp]
  001a5	83 c0 02	 add	 eax, 2

; 2361 : }

  001a8	8b e5		 mov	 esp, ebp
  001aa	5d		 pop	 ebp
  001ab	c2 04 00	 ret	 4
?GetTimes@CTableFrameSink@@IAEEG@Z ENDP			; CTableFrameSink::GetTimes
_TEXT	ENDS
; Function compile flags: /Odtp
; File d:\qijianban\laok\服务端\游戏组件\老k子游戏\红中麻将\服务器组件\tableframesink.cpp
_TEXT	SEGMENT
_this$ = -4						; size = 4
_wWinner$ = 8						; size = 2
_chr$ = 12						; size = 4
?FiltrateRight@CTableFrameSink@@IAEXGAAVCChiHuRight@@@Z PROC ; CTableFrameSink::FiltrateRight
; _this$ = ecx

; 2295 : {

  00000	55		 push	 ebp
  00001	8b ec		 mov	 ebp, esp
  00003	51		 push	 ecx
  00004	89 4d fc	 mov	 DWORD PTR _this$[ebp], ecx

; 2296 : 	//自摸
; 2297 : 	if(wWinner == m_wProvideUser)

  00007	0f b7 45 08	 movzx	 eax, WORD PTR _wWinner$[ebp]
  0000b	8b 4d fc	 mov	 ecx, DWORD PTR _this$[ebp]
  0000e	0f b7 91 c0 04
	00 00		 movzx	 edx, WORD PTR [ecx+1216]
  00015	3b c2		 cmp	 eax, edx
  00017	75 0f		 jne	 SHORT $LN2@FiltrateRi

; 2298 : 	{
; 2299 : 		chr |= CHR_ZI_MO;

  00019	68 00 00 00 08	 push	 134217728		; 08000000H
  0001e	8b 4d 0c	 mov	 ecx, DWORD PTR _chr$[ebp]
  00021	e8 00 00 00 00	 call	 ??_5CChiHuRight@@QAEAAV0@K@Z ; CChiHuRight::operator|=
  00026	eb 1c		 jmp	 SHORT $LN1@FiltrateRi
$LN2@FiltrateRi:

; 2300 : 
; 2301 : 	}
; 2302 : 	else if(m_cbGangStatus == WIK_MING_GANG)

  00028	8b 45 fc	 mov	 eax, DWORD PTR _this$[ebp]
  0002b	0f b6 88 cc 04
	00 00		 movzx	 ecx, BYTE PTR [eax+1228]
  00032	83 f9 01	 cmp	 ecx, 1
  00035	75 0d		 jne	 SHORT $LN1@FiltrateRi

; 2303 : 	{
; 2304 : 		chr |= CHR_QIANG_GANG_HU;

  00037	68 00 00 00 02	 push	 33554432		; 02000000H
  0003c	8b 4d 0c	 mov	 ecx, DWORD PTR _chr$[ebp]
  0003f	e8 00 00 00 00	 call	 ??_5CChiHuRight@@QAEAAV0@K@Z ; CChiHuRight::operator|=
$LN1@FiltrateRi:

; 2305 : 	}
; 2306 : 	else
; 2307 : 	{
; 2308 : 		ASSERT(false);
; 2309 : 	}
; 2310 : 
; 2311 : }

  00044	8b e5		 mov	 esp, ebp
  00046	5d		 pop	 ebp
  00047	c2 08 00	 ret	 8
?FiltrateRight@CTableFrameSink@@IAEXGAAVCChiHuRight@@@Z ENDP ; CTableFrameSink::FiltrateRight
_TEXT	ENDS
; Function compile flags: /Odtp
; File d:\qijianban\laok\服务端\游戏组件\老k子游戏\红中麻将\服务器组件\tableframesink.cpp
_TEXT	SEGMENT
_lcell$ = -24						; size = 8
_i$1 = -16						; size = 4
_i$2 = -12						; size = 4
_i$3 = -8						; size = 4
_this$ = -4						; size = 4
?CalGangScore@CTableFrameSink@@IAEXXZ PROC		; CTableFrameSink::CalGangScore
; _this$ = ecx

; 2245 : {

  00000	55		 push	 ebp
  00001	8b ec		 mov	 ebp, esp
  00003	83 ec 18	 sub	 esp, 24			; 00000018H
  00006	56		 push	 esi
  00007	57		 push	 edi
  00008	89 4d fc	 mov	 DWORD PTR _this$[ebp], ecx

; 2246 : 	SCORE lcell = m_pITableFrame->GetCellScore();

  0000b	8b 45 fc	 mov	 eax, DWORD PTR _this$[ebp]
  0000e	8b 88 28 09 00
	00		 mov	 ecx, DWORD PTR [eax+2344]
  00014	8b 55 fc	 mov	 edx, DWORD PTR _this$[ebp]
  00017	8b 01		 mov	 eax, DWORD PTR [ecx]
  00019	8b 8a 28 09 00
	00		 mov	 ecx, DWORD PTR [edx+2344]
  0001f	8b 50 30	 mov	 edx, DWORD PTR [eax+48]
  00022	ff d2		 call	 edx
  00024	99		 cdq
  00025	89 45 e8	 mov	 DWORD PTR _lcell$[ebp], eax
  00028	89 55 ec	 mov	 DWORD PTR _lcell$[ebp+4], edx

; 2247 : 	if(m_cbGangStatus == WIK_FANG_GANG)//放杠一家扣分

  0002b	8b 45 fc	 mov	 eax, DWORD PTR _this$[ebp]
  0002e	0f b6 88 cc 04
	00 00		 movzx	 ecx, BYTE PTR [eax+1228]
  00035	83 f9 02	 cmp	 ecx, 2
  00038	0f 85 e5 00 00
	00		 jne	 $LN11@CalGangSco

; 2248 : 	{
; 2249 : 		for(int i=0;i<GAME_PLAYER;i++)

  0003e	c7 45 f0 00 00
	00 00		 mov	 DWORD PTR _i$1[ebp], 0
  00045	eb 09		 jmp	 SHORT $LN4@CalGangSco
$LN2@CalGangSco:
  00047	8b 55 f0	 mov	 edx, DWORD PTR _i$1[ebp]
  0004a	83 c2 01	 add	 edx, 1
  0004d	89 55 f0	 mov	 DWORD PTR _i$1[ebp], edx
$LN4@CalGangSco:
  00050	83 7d f0 04	 cmp	 DWORD PTR _i$1[ebp], 4
  00054	0f 8d 9f 00 00
	00		 jge	 $LN3@CalGangSco

; 2250 : 		{
; 2251 : 			if(!m_bPlayStatus[i])

  0005a	8b 45 fc	 mov	 eax, DWORD PTR _this$[ebp]
  0005d	03 45 f0	 add	 eax, DWORD PTR _i$1[ebp]
  00060	0f b6 88 7d 04
	00 00		 movzx	 ecx, BYTE PTR [eax+1149]
  00067	85 c9		 test	 ecx, ecx
  00069	75 02		 jne	 SHORT $LN13@CalGangSco

; 2252 : 				continue;

  0006b	eb da		 jmp	 SHORT $LN2@CalGangSco
$LN13@CalGangSco:

; 2253 : 			if(i != m_wCurrentUser)

  0006d	8b 55 fc	 mov	 edx, DWORD PTR _this$[ebp]
  00070	0f b7 82 be 04
	00 00		 movzx	 eax, WORD PTR [edx+1214]
  00077	39 45 f0	 cmp	 DWORD PTR _i$1[ebp], eax
  0007a	74 78		 je	 SHORT $LN14@CalGangSco

; 2254 : 			{
; 2255 : 				m_lUserGangScore[m_wProvideGangUser] -= lcell;

  0007c	8b 4d fc	 mov	 ecx, DWORD PTR _this$[ebp]
  0007f	0f b7 91 ce 04
	00 00		 movzx	 edx, WORD PTR [ecx+1230]
  00086	8b 45 fc	 mov	 eax, DWORD PTR _this$[ebp]
  00089	8b 8c d0 f8 05
	00 00		 mov	 ecx, DWORD PTR [eax+edx*8+1528]
  00090	2b 4d e8	 sub	 ecx, DWORD PTR _lcell$[ebp]
  00093	8b 94 d0 fc 05
	00 00		 mov	 edx, DWORD PTR [eax+edx*8+1532]
  0009a	1b 55 ec	 sbb	 edx, DWORD PTR _lcell$[ebp+4]
  0009d	8b 45 fc	 mov	 eax, DWORD PTR _this$[ebp]
  000a0	0f b7 80 ce 04
	00 00		 movzx	 eax, WORD PTR [eax+1230]
  000a7	8b 75 fc	 mov	 esi, DWORD PTR _this$[ebp]
  000aa	89 8c c6 f8 05
	00 00		 mov	 DWORD PTR [esi+eax*8+1528], ecx
  000b1	89 94 c6 fc 05
	00 00		 mov	 DWORD PTR [esi+eax*8+1532], edx

; 2256 : 				m_lUserGangScore[m_wCurrentUser] += lcell;

  000b8	8b 4d fc	 mov	 ecx, DWORD PTR _this$[ebp]
  000bb	0f b7 91 be 04
	00 00		 movzx	 edx, WORD PTR [ecx+1214]
  000c2	8b 45 fc	 mov	 eax, DWORD PTR _this$[ebp]
  000c5	8b 8c d0 f8 05
	00 00		 mov	 ecx, DWORD PTR [eax+edx*8+1528]
  000cc	03 4d e8	 add	 ecx, DWORD PTR _lcell$[ebp]
  000cf	8b 94 d0 fc 05
	00 00		 mov	 edx, DWORD PTR [eax+edx*8+1532]
  000d6	13 55 ec	 adc	 edx, DWORD PTR _lcell$[ebp+4]
  000d9	8b 45 fc	 mov	 eax, DWORD PTR _this$[ebp]
  000dc	0f b7 80 be 04
	00 00		 movzx	 eax, WORD PTR [eax+1214]
  000e3	8b 75 fc	 mov	 esi, DWORD PTR _this$[ebp]
  000e6	89 8c c6 f8 05
	00 00		 mov	 DWORD PTR [esi+eax*8+1528], ecx
  000ed	89 94 c6 fc 05
	00 00		 mov	 DWORD PTR [esi+eax*8+1532], edx
$LN14@CalGangSco:

; 2257 : 			}
; 2258 : 		}

  000f4	e9 4e ff ff ff	 jmp	 $LN2@CalGangSco
$LN3@CalGangSco:

; 2259 : 		//记录明杠次数
; 2260 : 		m_stRecord.cbMingGang[m_wCurrentUser]++;

  000f9	8b 4d fc	 mov	 ecx, DWORD PTR _this$[ebp]
  000fc	0f b7 91 be 04
	00 00		 movzx	 edx, WORD PTR [ecx+1214]
  00103	8b 45 fc	 mov	 eax, DWORD PTR _this$[ebp]
  00106	8a 4c 10 1a	 mov	 cl, BYTE PTR [eax+edx+26]
  0010a	80 c1 01	 add	 cl, 1
  0010d	8b 55 fc	 mov	 edx, DWORD PTR _this$[ebp]
  00110	0f b7 82 be 04
	00 00		 movzx	 eax, WORD PTR [edx+1214]
  00117	8b 55 fc	 mov	 edx, DWORD PTR _this$[ebp]
  0011a	88 4c 02 1a	 mov	 BYTE PTR [edx+eax+26], cl
  0011e	e9 ec 01 00 00	 jmp	 $LN1@CalGangSco
$LN11@CalGangSco:

; 2261 : 	}
; 2262 : 	else if(m_cbGangStatus == WIK_MING_GANG)//明杠每家出1倍

  00123	8b 45 fc	 mov	 eax, DWORD PTR _this$[ebp]
  00126	0f b6 88 cc 04
	00 00		 movzx	 ecx, BYTE PTR [eax+1228]
  0012d	83 f9 01	 cmp	 ecx, 1
  00130	0f 85 d6 00 00
	00		 jne	 $LN15@CalGangSco

; 2263 : 	{
; 2264 : 		for(int i=0;i<GAME_PLAYER;i++)

  00136	c7 45 f8 00 00
	00 00		 mov	 DWORD PTR _i$3[ebp], 0
  0013d	eb 09		 jmp	 SHORT $LN7@CalGangSco
$LN5@CalGangSco:
  0013f	8b 55 f8	 mov	 edx, DWORD PTR _i$3[ebp]
  00142	83 c2 01	 add	 edx, 1
  00145	89 55 f8	 mov	 DWORD PTR _i$3[ebp], edx
$LN7@CalGangSco:
  00148	83 7d f8 04	 cmp	 DWORD PTR _i$3[ebp], 4
  0014c	0f 8d 91 00 00
	00		 jge	 $LN6@CalGangSco

; 2265 : 		{
; 2266 : 			if(!m_bPlayStatus[i])

  00152	8b 45 fc	 mov	 eax, DWORD PTR _this$[ebp]
  00155	03 45 f8	 add	 eax, DWORD PTR _i$3[ebp]
  00158	0f b6 88 7d 04
	00 00		 movzx	 ecx, BYTE PTR [eax+1149]
  0015f	85 c9		 test	 ecx, ecx
  00161	75 02		 jne	 SHORT $LN17@CalGangSco

; 2267 : 				continue;

  00163	eb da		 jmp	 SHORT $LN5@CalGangSco
$LN17@CalGangSco:

; 2268 : 			if(i != m_wCurrentUser)

  00165	8b 55 fc	 mov	 edx, DWORD PTR _this$[ebp]
  00168	0f b7 82 be 04
	00 00		 movzx	 eax, WORD PTR [edx+1214]
  0016f	39 45 f8	 cmp	 DWORD PTR _i$3[ebp], eax
  00172	74 6a		 je	 SHORT $LN18@CalGangSco

; 2269 : 			{
; 2270 : 				m_lUserGangScore[i] -= lcell;

  00174	8b 4d f8	 mov	 ecx, DWORD PTR _i$3[ebp]
  00177	8b 55 fc	 mov	 edx, DWORD PTR _this$[ebp]
  0017a	8b 84 ca f8 05
	00 00		 mov	 eax, DWORD PTR [edx+ecx*8+1528]
  00181	2b 45 e8	 sub	 eax, DWORD PTR _lcell$[ebp]
  00184	8b 8c ca fc 05
	00 00		 mov	 ecx, DWORD PTR [edx+ecx*8+1532]
  0018b	1b 4d ec	 sbb	 ecx, DWORD PTR _lcell$[ebp+4]
  0018e	8b 55 f8	 mov	 edx, DWORD PTR _i$3[ebp]
  00191	8b 75 fc	 mov	 esi, DWORD PTR _this$[ebp]
  00194	89 84 d6 f8 05
	00 00		 mov	 DWORD PTR [esi+edx*8+1528], eax
  0019b	89 8c d6 fc 05
	00 00		 mov	 DWORD PTR [esi+edx*8+1532], ecx

; 2271 : 				m_lUserGangScore[m_wCurrentUser] += lcell;

  001a2	8b 45 fc	 mov	 eax, DWORD PTR _this$[ebp]
  001a5	0f b7 88 be 04
	00 00		 movzx	 ecx, WORD PTR [eax+1214]
  001ac	8b 55 fc	 mov	 edx, DWORD PTR _this$[ebp]
  001af	8b 84 ca f8 05
	00 00		 mov	 eax, DWORD PTR [edx+ecx*8+1528]
  001b6	03 45 e8	 add	 eax, DWORD PTR _lcell$[ebp]
  001b9	8b 8c ca fc 05
	00 00		 mov	 ecx, DWORD PTR [edx+ecx*8+1532]
  001c0	13 4d ec	 adc	 ecx, DWORD PTR _lcell$[ebp+4]
  001c3	8b 55 fc	 mov	 edx, DWORD PTR _this$[ebp]
  001c6	0f b7 92 be 04
	00 00		 movzx	 edx, WORD PTR [edx+1214]
  001cd	8b 75 fc	 mov	 esi, DWORD PTR _this$[ebp]
  001d0	89 84 d6 f8 05
	00 00		 mov	 DWORD PTR [esi+edx*8+1528], eax
  001d7	89 8c d6 fc 05
	00 00		 mov	 DWORD PTR [esi+edx*8+1532], ecx
$LN18@CalGangSco:

; 2272 : 			}
; 2273 : 		}

  001de	e9 5c ff ff ff	 jmp	 $LN5@CalGangSco
$LN6@CalGangSco:

; 2274 : 		//记录明杠次数
; 2275 : 		m_stRecord.cbMingGang[m_wCurrentUser]++;

  001e3	8b 45 fc	 mov	 eax, DWORD PTR _this$[ebp]
  001e6	0f b7 88 be 04
	00 00		 movzx	 ecx, WORD PTR [eax+1214]
  001ed	8b 55 fc	 mov	 edx, DWORD PTR _this$[ebp]
  001f0	8a 44 0a 1a	 mov	 al, BYTE PTR [edx+ecx+26]
  001f4	04 01		 add	 al, 1
  001f6	8b 4d fc	 mov	 ecx, DWORD PTR _this$[ebp]
  001f9	0f b7 91 be 04
	00 00		 movzx	 edx, WORD PTR [ecx+1214]
  00200	8b 4d fc	 mov	 ecx, DWORD PTR _this$[ebp]
  00203	88 44 11 1a	 mov	 BYTE PTR [ecx+edx+26], al
  00207	e9 03 01 00 00	 jmp	 $LN1@CalGangSco
$LN15@CalGangSco:

; 2276 : 	}
; 2277 : 	else if(m_cbGangStatus == WIK_AN_GANG)//暗杠每家出2倍

  0020c	8b 55 fc	 mov	 edx, DWORD PTR _this$[ebp]
  0020f	0f b6 82 cc 04
	00 00		 movzx	 eax, BYTE PTR [edx+1228]
  00216	83 f8 03	 cmp	 eax, 3
  00219	0f 85 f0 00 00
	00		 jne	 $LN1@CalGangSco

; 2278 : 	{
; 2279 : 		for(int i=0;i<GAME_PLAYER;i++)

  0021f	c7 45 f4 00 00
	00 00		 mov	 DWORD PTR _i$2[ebp], 0
  00226	eb 09		 jmp	 SHORT $LN10@CalGangSco
$LN8@CalGangSco:
  00228	8b 4d f4	 mov	 ecx, DWORD PTR _i$2[ebp]
  0022b	83 c1 01	 add	 ecx, 1
  0022e	89 4d f4	 mov	 DWORD PTR _i$2[ebp], ecx
$LN10@CalGangSco:
  00231	83 7d f4 04	 cmp	 DWORD PTR _i$2[ebp], 4
  00235	0f 8d af 00 00
	00		 jge	 $LN9@CalGangSco

; 2280 : 		{
; 2281 : 			if(!m_bPlayStatus[i])

  0023b	8b 55 fc	 mov	 edx, DWORD PTR _this$[ebp]
  0023e	03 55 f4	 add	 edx, DWORD PTR _i$2[ebp]
  00241	0f b6 82 7d 04
	00 00		 movzx	 eax, BYTE PTR [edx+1149]
  00248	85 c0		 test	 eax, eax
  0024a	75 02		 jne	 SHORT $LN20@CalGangSco

; 2282 : 				continue;

  0024c	eb da		 jmp	 SHORT $LN8@CalGangSco
$LN20@CalGangSco:

; 2283 : 			if(i != m_wCurrentUser)

  0024e	8b 4d fc	 mov	 ecx, DWORD PTR _this$[ebp]
  00251	0f b7 91 be 04
	00 00		 movzx	 edx, WORD PTR [ecx+1214]
  00258	39 55 f4	 cmp	 DWORD PTR _i$2[ebp], edx
  0025b	0f 84 84 00 00
	00		 je	 $LN21@CalGangSco

; 2284 : 			{
; 2285 : 				m_lUserGangScore[i] -= 2*lcell;

  00261	6a 00		 push	 0
  00263	6a 02		 push	 2
  00265	8b 45 ec	 mov	 eax, DWORD PTR _lcell$[ebp+4]
  00268	50		 push	 eax
  00269	8b 4d e8	 mov	 ecx, DWORD PTR _lcell$[ebp]
  0026c	51		 push	 ecx
  0026d	e8 00 00 00 00	 call	 __allmul
  00272	8b 4d f4	 mov	 ecx, DWORD PTR _i$2[ebp]
  00275	8b 75 fc	 mov	 esi, DWORD PTR _this$[ebp]
  00278	8b bc ce f8 05
	00 00		 mov	 edi, DWORD PTR [esi+ecx*8+1528]
  0027f	2b f8		 sub	 edi, eax
  00281	8b 84 ce fc 05
	00 00		 mov	 eax, DWORD PTR [esi+ecx*8+1532]
  00288	1b c2		 sbb	 eax, edx
  0028a	8b 4d f4	 mov	 ecx, DWORD PTR _i$2[ebp]
  0028d	8b 55 fc	 mov	 edx, DWORD PTR _this$[ebp]
  00290	89 bc ca f8 05
	00 00		 mov	 DWORD PTR [edx+ecx*8+1528], edi
  00297	89 84 ca fc 05
	00 00		 mov	 DWORD PTR [edx+ecx*8+1532], eax

; 2286 : 				m_lUserGangScore[m_wCurrentUser] += 2*lcell;

  0029e	8b 45 fc	 mov	 eax, DWORD PTR _this$[ebp]
  002a1	0f b7 b0 be 04
	00 00		 movzx	 esi, WORD PTR [eax+1214]
  002a8	6a 00		 push	 0
  002aa	6a 02		 push	 2
  002ac	8b 4d ec	 mov	 ecx, DWORD PTR _lcell$[ebp+4]
  002af	51		 push	 ecx
  002b0	8b 55 e8	 mov	 edx, DWORD PTR _lcell$[ebp]
  002b3	52		 push	 edx
  002b4	e8 00 00 00 00	 call	 __allmul
  002b9	8b 4d fc	 mov	 ecx, DWORD PTR _this$[ebp]
  002bc	03 84 f1 f8 05
	00 00		 add	 eax, DWORD PTR [ecx+esi*8+1528]
  002c3	13 94 f1 fc 05
	00 00		 adc	 edx, DWORD PTR [ecx+esi*8+1532]
  002ca	8b 4d fc	 mov	 ecx, DWORD PTR _this$[ebp]
  002cd	0f b7 89 be 04
	00 00		 movzx	 ecx, WORD PTR [ecx+1214]
  002d4	8b 75 fc	 mov	 esi, DWORD PTR _this$[ebp]
  002d7	89 84 ce f8 05
	00 00		 mov	 DWORD PTR [esi+ecx*8+1528], eax
  002de	89 94 ce fc 05
	00 00		 mov	 DWORD PTR [esi+ecx*8+1532], edx
$LN21@CalGangSco:

; 2287 : 			}
; 2288 : 		}

  002e5	e9 3e ff ff ff	 jmp	 $LN8@CalGangSco
$LN9@CalGangSco:

; 2289 : 		//记录暗杠次数
; 2290 : 		m_stRecord.cbAnGang[m_wCurrentUser]++;

  002ea	8b 55 fc	 mov	 edx, DWORD PTR _this$[ebp]
  002ed	0f b7 82 be 04
	00 00		 movzx	 eax, WORD PTR [edx+1214]
  002f4	8b 4d fc	 mov	 ecx, DWORD PTR _this$[ebp]
  002f7	8a 54 01 16	 mov	 dl, BYTE PTR [ecx+eax+22]
  002fb	80 c2 01	 add	 dl, 1
  002fe	8b 45 fc	 mov	 eax, DWORD PTR _this$[ebp]
  00301	0f b7 88 be 04
	00 00		 movzx	 ecx, WORD PTR [eax+1214]
  00308	8b 45 fc	 mov	 eax, DWORD PTR _this$[ebp]
  0030b	88 54 08 16	 mov	 BYTE PTR [eax+ecx+22], dl
$LN1@CalGangSco:

; 2291 : 	}
; 2292 : }

  0030f	5f		 pop	 edi
  00310	5e		 pop	 esi
  00311	8b e5		 mov	 esp, ebp
  00313	5d		 pop	 ebp
  00314	c3		 ret	 0
?CalGangScore@CTableFrameSink@@IAEXXZ ENDP		; CTableFrameSink::CalGangScore
_TEXT	ENDS
; Function compile flags: /Odtp
; File d:\qijianban\laok\服务端\游戏组件\老k子游戏\红中麻将\服务器组件\tableframesink.cpp
_TEXT	SEGMENT
_lTempAllScore$ = -120					; size = 8
_lTempScore$ = -112					; size = 8
tv209 = -104						; size = 4
tv81 = -100						; size = 4
_lCellScore$ = -96					; size = 8
_pIServerUserItem$1 = -88				; size = 4
_bNoNegative$ = -81					; size = 1
_j$2 = -80						; size = 4
_i$3 = -76						; size = 4
_i$4 = -72						; size = 4
_i$5 = -68						; size = 4
_cbTimes$6 = -62					; size = 1
_bZiMo$7 = -61						; size = 1
_i$8 = -60						; size = 4
_cbTimes$9 = -53					; size = 1
_this$ = -52						; size = 4
_cbWinCount$ = -45					; size = 1
_lUserScore$ = -44					; size = 32
_wWinUser$ = -12					; size = 8
__$ArrayPad$ = -4					; size = 4
_lEndScore$ = 8						; size = 4
?CalHuPaiScore@CTableFrameSink@@IAEXQA_J@Z PROC		; CTableFrameSink::CalHuPaiScore
; _this$ = ecx

; 2157 : {

  00000	55		 push	 ebp
  00001	8b ec		 mov	 ebp, esp
  00003	83 ec 78	 sub	 esp, 120		; 00000078H
  00006	a1 00 00 00 00	 mov	 eax, DWORD PTR ___security_cookie
  0000b	33 c5		 xor	 eax, ebp
  0000d	89 45 fc	 mov	 DWORD PTR __$ArrayPad$[ebp], eax
  00010	56		 push	 esi
  00011	57		 push	 edi
  00012	89 4d cc	 mov	 DWORD PTR _this$[ebp], ecx

; 2158 : 	//初始化
; 2159 : 	ZeroMemory(lEndScore,sizeof(LONGLONG)*GAME_PLAYER);

  00015	6a 20		 push	 32			; 00000020H
  00017	6a 00		 push	 0
  00019	8b 45 08	 mov	 eax, DWORD PTR _lEndScore$[ebp]
  0001c	50		 push	 eax
  0001d	e8 00 00 00 00	 call	 _memset
  00022	83 c4 0c	 add	 esp, 12			; 0000000cH

; 2160 : 	ZeroMemory(m_cbUserMaCount,sizeof(m_cbUserMaCount));

  00025	6a 04		 push	 4
  00027	6a 00		 push	 0
  00029	8b 4d cc	 mov	 ecx, DWORD PTR _this$[ebp]
  0002c	81 c1 dc 05 00
	00		 add	 ecx, 1500		; 000005dcH
  00032	51		 push	 ecx
  00033	e8 00 00 00 00	 call	 _memset
  00038	83 c4 0c	 add	 esp, 12			; 0000000cH

; 2161 : 
; 2162 : 	bool bNoNegative = (m_pGameServiceOption->wServerType & GAME_GENRE_GOLD) != 0 || (m_pGameServiceOption->wServerType & SCORE_GENRE_POSITIVE) != 0;

  0003b	8b 55 cc	 mov	 edx, DWORD PTR _this$[ebp]
  0003e	8b 82 30 09 00
	00		 mov	 eax, DWORD PTR [edx+2352]
  00044	0f b7 48 54	 movzx	 ecx, WORD PTR [eax+84]
  00048	83 e1 01	 and	 ecx, 1
  0004b	75 1e		 jne	 SHORT $LN30@CalHuPaiSc
  0004d	8b 55 cc	 mov	 edx, DWORD PTR _this$[ebp]
  00050	8b 82 30 09 00
	00		 mov	 eax, DWORD PTR [edx+2352]
  00056	0f b7 48 54	 movzx	 ecx, WORD PTR [eax+84]
  0005a	81 e1 00 02 00
	00		 and	 ecx, 512		; 00000200H
  00060	75 09		 jne	 SHORT $LN30@CalHuPaiSc
  00062	c7 45 9c 00 00
	00 00		 mov	 DWORD PTR tv81[ebp], 0
  00069	eb 07		 jmp	 SHORT $LN31@CalHuPaiSc
$LN30@CalHuPaiSc:
  0006b	c7 45 9c 01 00
	00 00		 mov	 DWORD PTR tv81[ebp], 1
$LN31@CalHuPaiSc:
  00072	8a 55 9c	 mov	 dl, BYTE PTR tv81[ebp]
  00075	88 55 af	 mov	 BYTE PTR _bNoNegative$[ebp], dl

; 2163 : 
; 2164 : 	SCORE lCellScore = m_pITableFrame->GetCellScore();

  00078	8b 45 cc	 mov	 eax, DWORD PTR _this$[ebp]
  0007b	8b 88 28 09 00
	00		 mov	 ecx, DWORD PTR [eax+2344]
  00081	8b 55 cc	 mov	 edx, DWORD PTR _this$[ebp]
  00084	8b 01		 mov	 eax, DWORD PTR [ecx]
  00086	8b 8a 28 09 00
	00		 mov	 ecx, DWORD PTR [edx+2344]
  0008c	8b 50 30	 mov	 edx, DWORD PTR [eax+48]
  0008f	ff d2		 call	 edx
  00091	99		 cdq
  00092	89 45 a0	 mov	 DWORD PTR _lCellScore$[ebp], eax
  00095	89 55 a4	 mov	 DWORD PTR _lCellScore$[ebp+4], edx

; 2165 : 
; 2166 : 	SCORE lUserScore[GAME_PLAYER] = {0};//玩家手上分

  00098	0f 57 c0	 xorps	 xmm0, xmm0
  0009b	66 0f 13 45 d4	 movlpd	 QWORD PTR _lUserScore$[ebp], xmm0
  000a0	33 c0		 xor	 eax, eax
  000a2	89 45 dc	 mov	 DWORD PTR _lUserScore$[ebp+8], eax
  000a5	89 45 e0	 mov	 DWORD PTR _lUserScore$[ebp+12], eax
  000a8	89 45 e4	 mov	 DWORD PTR _lUserScore$[ebp+16], eax
  000ab	89 45 e8	 mov	 DWORD PTR _lUserScore$[ebp+20], eax
  000ae	89 45 ec	 mov	 DWORD PTR _lUserScore$[ebp+24], eax
  000b1	89 45 f0	 mov	 DWORD PTR _lUserScore$[ebp+28], eax

; 2167 : 	SCORE lTempScore = 0;

  000b4	0f 57 c0	 xorps	 xmm0, xmm0
  000b7	66 0f 13 45 90	 movlpd	 QWORD PTR _lTempScore$[ebp], xmm0

; 2168 : 	SCORE lTempAllScore = 0;

  000bc	0f 57 c0	 xorps	 xmm0, xmm0
  000bf	66 0f 13 45 88	 movlpd	 QWORD PTR _lTempAllScore$[ebp], xmm0

; 2169 : 	for(int i = 0; i < GAME_PLAYER; i++)

  000c4	c7 45 b4 00 00
	00 00		 mov	 DWORD PTR _i$3[ebp], 0
  000cb	eb 09		 jmp	 SHORT $LN4@CalHuPaiSc
$LN2@CalHuPaiSc:
  000cd	8b 4d b4	 mov	 ecx, DWORD PTR _i$3[ebp]
  000d0	83 c1 01	 add	 ecx, 1
  000d3	89 4d b4	 mov	 DWORD PTR _i$3[ebp], ecx
$LN4@CalHuPaiSc:
  000d6	83 7d b4 04	 cmp	 DWORD PTR _i$3[ebp], 4
  000da	7d 5a		 jge	 SHORT $LN3@CalHuPaiSc

; 2170 : 	{
; 2171 : 		if(!m_bPlayStatus[i])

  000dc	8b 55 cc	 mov	 edx, DWORD PTR _this$[ebp]
  000df	03 55 b4	 add	 edx, DWORD PTR _i$3[ebp]
  000e2	0f b6 82 7d 04
	00 00		 movzx	 eax, BYTE PTR [edx+1149]
  000e9	85 c0		 test	 eax, eax
  000eb	75 02		 jne	 SHORT $LN17@CalHuPaiSc

; 2172 : 			continue;

  000ed	eb de		 jmp	 SHORT $LN2@CalHuPaiSc
$LN17@CalHuPaiSc:

; 2173 : 		IServerUserItem * pIServerUserItem = m_pITableFrame->GetTableUserItem(i);

  000ef	0f b7 4d b4	 movzx	 ecx, WORD PTR _i$3[ebp]
  000f3	51		 push	 ecx
  000f4	8b 55 cc	 mov	 edx, DWORD PTR _this$[ebp]
  000f7	8b 82 28 09 00
	00		 mov	 eax, DWORD PTR [edx+2344]
  000fd	8b 4d cc	 mov	 ecx, DWORD PTR _this$[ebp]
  00100	8b 10		 mov	 edx, DWORD PTR [eax]
  00102	8b 89 28 09 00
	00		 mov	 ecx, DWORD PTR [ecx+2344]
  00108	8b 82 9c 00 00
	00		 mov	 eax, DWORD PTR [edx+156]
  0010e	ff d0		 call	 eax
  00110	89 45 a8	 mov	 DWORD PTR _pIServerUserItem$1[ebp], eax

; 2174 : 		ASSERT(pIServerUserItem);
; 2175 : 		if(pIServerUserItem)

  00113	83 7d a8 00	 cmp	 DWORD PTR _pIServerUserItem$1[ebp], 0
  00117	74 1b		 je	 SHORT $LN18@CalHuPaiSc

; 2176 : 		{
; 2177 : 			lUserScore[i] = pIServerUserItem->GetUserScore();

  00119	8b 4d a8	 mov	 ecx, DWORD PTR _pIServerUserItem$1[ebp]
  0011c	8b 11		 mov	 edx, DWORD PTR [ecx]
  0011e	8b 4d a8	 mov	 ecx, DWORD PTR _pIServerUserItem$1[ebp]
  00121	8b 82 90 00 00
	00		 mov	 eax, DWORD PTR [edx+144]
  00127	ff d0		 call	 eax
  00129	8b 4d b4	 mov	 ecx, DWORD PTR _i$3[ebp]
  0012c	89 44 cd d4	 mov	 DWORD PTR _lUserScore$[ebp+ecx*8], eax
  00130	89 54 cd d8	 mov	 DWORD PTR _lUserScore$[ebp+ecx*8+4], edx
$LN18@CalHuPaiSc:

; 2178 : 		}		
; 2179 : 	}

  00134	eb 97		 jmp	 SHORT $LN2@CalHuPaiSc
$LN3@CalHuPaiSc:

; 2180 : 
; 2181 : 	WORD wWinUser[GAME_PLAYER] = {0};

  00136	33 d2		 xor	 edx, edx
  00138	66 89 55 f4	 mov	 WORD PTR _wWinUser$[ebp], dx
  0013c	33 c0		 xor	 eax, eax
  0013e	89 45 f6	 mov	 DWORD PTR _wWinUser$[ebp+2], eax
  00141	66 89 45 fa	 mov	 WORD PTR _wWinUser$[ebp+6], ax

; 2182 : 	BYTE cbWinCount = 0;

  00145	c6 45 d3 00	 mov	 BYTE PTR _cbWinCount$[ebp], 0

; 2183 : 
; 2184 : 	for(int i = 0; i < GAME_PLAYER; i++)

  00149	c7 45 bc 00 00
	00 00		 mov	 DWORD PTR _i$5[ebp], 0
  00150	eb 09		 jmp	 SHORT $LN7@CalHuPaiSc
$LN5@CalHuPaiSc:
  00152	8b 4d bc	 mov	 ecx, DWORD PTR _i$5[ebp]
  00155	83 c1 01	 add	 ecx, 1
  00158	89 4d bc	 mov	 DWORD PTR _i$5[ebp], ecx
$LN7@CalHuPaiSc:
  0015b	83 7d bc 04	 cmp	 DWORD PTR _i$5[ebp], 4
  0015f	0f 8d 9a 00 00
	00		 jge	 $LN6@CalHuPaiSc

; 2185 : 	{
; 2186 : 		if(WIK_CHI_HU == m_dwChiHuKind[(m_wBankerUser + i) % GAME_PLAYER])

  00165	8b 55 cc	 mov	 edx, DWORD PTR _this$[ebp]
  00168	0f b7 82 72 04
	00 00		 movzx	 eax, WORD PTR [edx+1138]
  0016f	03 45 bc	 add	 eax, DWORD PTR _i$5[ebp]
  00172	25 03 00 00 80	 and	 eax, -2147483645	; 80000003H
  00177	79 05		 jns	 SHORT $LN34@CalHuPaiSc
  00179	48		 dec	 eax
  0017a	83 c8 fc	 or	 eax, -4			; fffffffcH
  0017d	40		 inc	 eax
$LN34@CalHuPaiSc:
  0017e	8b 4d cc	 mov	 ecx, DWORD PTR _this$[ebp]
  00181	83 bc 81 1c 06
	00 00 40	 cmp	 DWORD PTR [ecx+eax*4+1564], 64 ; 00000040H
  00189	75 6f		 jne	 SHORT $LN19@CalHuPaiSc

; 2187 : 		{
; 2188 : 			wWinUser[cbWinCount++] = (m_wBankerUser + i) % GAME_PLAYER;

  0018b	8b 55 cc	 mov	 edx, DWORD PTR _this$[ebp]
  0018e	0f b7 82 72 04
	00 00		 movzx	 eax, WORD PTR [edx+1138]
  00195	03 45 bc	 add	 eax, DWORD PTR _i$5[ebp]
  00198	25 03 00 00 80	 and	 eax, -2147483645	; 80000003H
  0019d	79 05		 jns	 SHORT $LN35@CalHuPaiSc
  0019f	48		 dec	 eax
  001a0	83 c8 fc	 or	 eax, -4			; fffffffcH
  001a3	40		 inc	 eax
$LN35@CalHuPaiSc:
  001a4	0f b6 4d d3	 movzx	 ecx, BYTE PTR _cbWinCount$[ebp]
  001a8	66 89 44 4d f4	 mov	 WORD PTR _wWinUser$[ebp+ecx*2], ax
  001ad	8a 55 d3	 mov	 dl, BYTE PTR _cbWinCount$[ebp]
  001b0	80 c2 01	 add	 dl, 1
  001b3	88 55 d3	 mov	 BYTE PTR _cbWinCount$[ebp], dl

; 2189 : 
; 2190 : 			//统计胡牌次数
; 2191 : 			m_stRecord.cbHuCount[(m_wBankerUser + i) % GAME_PLAYER]++;

  001b6	8b 45 cc	 mov	 eax, DWORD PTR _this$[ebp]
  001b9	0f b7 88 72 04
	00 00		 movzx	 ecx, WORD PTR [eax+1138]
  001c0	03 4d bc	 add	 ecx, DWORD PTR _i$5[ebp]
  001c3	81 e1 03 00 00
	80		 and	 ecx, -2147483645	; 80000003H
  001c9	79 05		 jns	 SHORT $LN36@CalHuPaiSc
  001cb	49		 dec	 ecx
  001cc	83 c9 fc	 or	 ecx, -4			; fffffffcH
  001cf	41		 inc	 ecx
$LN36@CalHuPaiSc:
  001d0	8b 55 cc	 mov	 edx, DWORD PTR _this$[ebp]
  001d3	8a 44 0a 0e	 mov	 al, BYTE PTR [edx+ecx+14]
  001d7	04 01		 add	 al, 1
  001d9	8b 4d cc	 mov	 ecx, DWORD PTR _this$[ebp]
  001dc	0f b7 91 72 04
	00 00		 movzx	 edx, WORD PTR [ecx+1138]
  001e3	03 55 bc	 add	 edx, DWORD PTR _i$5[ebp]
  001e6	81 e2 03 00 00
	80		 and	 edx, -2147483645	; 80000003H
  001ec	79 05		 jns	 SHORT $LN37@CalHuPaiSc
  001ee	4a		 dec	 edx
  001ef	83 ca fc	 or	 edx, -4			; fffffffcH
  001f2	42		 inc	 edx
$LN37@CalHuPaiSc:
  001f3	8b 4d cc	 mov	 ecx, DWORD PTR _this$[ebp]
  001f6	88 44 11 0e	 mov	 BYTE PTR [ecx+edx+14], al
$LN19@CalHuPaiSc:

; 2192 : 		}
; 2193 : 	}

  001fa	e9 53 ff ff ff	 jmp	 $LN5@CalHuPaiSc
$LN6@CalHuPaiSc:

; 2194 : 
; 2195 : 	if(cbWinCount > 0)//有人胡牌

  001ff	0f b6 55 d3	 movzx	 edx, BYTE PTR _cbWinCount$[ebp]
  00203	85 d2		 test	 edx, edx
  00205	0f 8e 2f 02 00
	00		 jle	 $LN20@CalHuPaiSc

; 2196 : 	{
; 2197 : 		bool bZiMo= (m_wProvideUser == wWinUser[0]);

  0020b	8b 45 cc	 mov	 eax, DWORD PTR _this$[ebp]
  0020e	0f b7 88 c0 04
	00 00		 movzx	 ecx, WORD PTR [eax+1216]
  00215	ba 02 00 00 00	 mov	 edx, 2
  0021a	6b c2 00	 imul	 eax, edx, 0
  0021d	0f b7 54 05 f4	 movzx	 edx, WORD PTR _wWinUser$[ebp+eax]
  00222	3b ca		 cmp	 ecx, edx
  00224	75 09		 jne	 SHORT $LN32@CalHuPaiSc
  00226	c7 45 98 01 00
	00 00		 mov	 DWORD PTR tv209[ebp], 1
  0022d	eb 07		 jmp	 SHORT $LN33@CalHuPaiSc
$LN32@CalHuPaiSc:
  0022f	c7 45 98 00 00
	00 00		 mov	 DWORD PTR tv209[ebp], 0
$LN33@CalHuPaiSc:
  00236	8a 45 98	 mov	 al, BYTE PTR tv209[ebp]
  00239	88 45 c3	 mov	 BYTE PTR _bZiMo$7[ebp], al

; 2198 : 		if(bZiMo)//自摸

  0023c	0f b6 4d c3	 movzx	 ecx, BYTE PTR _bZiMo$7[ebp]
  00240	85 c9		 test	 ecx, ecx
  00242	0f 84 d8 00 00
	00		 je	 $LN22@CalHuPaiSc

; 2199 : 		{
; 2200 : 			BYTE cbTimes = GetTimes(wWinUser[0]);

  00248	ba 02 00 00 00	 mov	 edx, 2
  0024d	6b c2 00	 imul	 eax, edx, 0
  00250	0f b7 4c 05 f4	 movzx	 ecx, WORD PTR _wWinUser$[ebp+eax]
  00255	51		 push	 ecx
  00256	8b 4d cc	 mov	 ecx, DWORD PTR _this$[ebp]
  00259	e8 00 00 00 00	 call	 ?GetTimes@CTableFrameSink@@IAEEG@Z ; CTableFrameSink::GetTimes
  0025e	88 45 cb	 mov	 BYTE PTR _cbTimes$9[ebp], al

; 2201 : 			for(int i=0;i<GAME_PLAYER;i++)

  00261	c7 45 b8 00 00
	00 00		 mov	 DWORD PTR _i$4[ebp], 0
  00268	eb 09		 jmp	 SHORT $LN10@CalHuPaiSc
$LN8@CalHuPaiSc:
  0026a	8b 55 b8	 mov	 edx, DWORD PTR _i$4[ebp]
  0026d	83 c2 01	 add	 edx, 1
  00270	89 55 b8	 mov	 DWORD PTR _i$4[ebp], edx
$LN10@CalHuPaiSc:
  00273	83 7d b8 04	 cmp	 DWORD PTR _i$4[ebp], 4
  00277	0f 8d 9e 00 00
	00		 jge	 $LN9@CalHuPaiSc

; 2202 : 			{
; 2203 : 				if(!m_bPlayStatus[i])

  0027d	8b 45 cc	 mov	 eax, DWORD PTR _this$[ebp]
  00280	03 45 b8	 add	 eax, DWORD PTR _i$4[ebp]
  00283	0f b6 88 7d 04
	00 00		 movzx	 ecx, BYTE PTR [eax+1149]
  0028a	85 c9		 test	 ecx, ecx
  0028c	75 02		 jne	 SHORT $LN24@CalHuPaiSc

; 2204 : 					continue;

  0028e	eb da		 jmp	 SHORT $LN8@CalHuPaiSc
$LN24@CalHuPaiSc:

; 2205 : 				if(i != wWinUser[0])

  00290	ba 02 00 00 00	 mov	 edx, 2
  00295	6b c2 00	 imul	 eax, edx, 0
  00298	0f b7 4c 05 f4	 movzx	 ecx, WORD PTR _wWinUser$[ebp+eax]
  0029d	39 4d b8	 cmp	 DWORD PTR _i$4[ebp], ecx
  002a0	74 74		 je	 SHORT $LN25@CalHuPaiSc

; 2206 : 				{
; 2207 : 					lEndScore[i] -= cbTimes*lCellScore;

  002a2	0f b6 45 cb	 movzx	 eax, BYTE PTR _cbTimes$9[ebp]
  002a6	99		 cdq
  002a7	8b 4d a4	 mov	 ecx, DWORD PTR _lCellScore$[ebp+4]
  002aa	51		 push	 ecx
  002ab	8b 4d a0	 mov	 ecx, DWORD PTR _lCellScore$[ebp]
  002ae	51		 push	 ecx
  002af	52		 push	 edx
  002b0	50		 push	 eax
  002b1	e8 00 00 00 00	 call	 __allmul
  002b6	8b 4d b8	 mov	 ecx, DWORD PTR _i$4[ebp]
  002b9	8b 75 08	 mov	 esi, DWORD PTR _lEndScore$[ebp]
  002bc	8b 3c ce	 mov	 edi, DWORD PTR [esi+ecx*8]
  002bf	2b f8		 sub	 edi, eax
  002c1	8b 44 ce 04	 mov	 eax, DWORD PTR [esi+ecx*8+4]
  002c5	1b c2		 sbb	 eax, edx
  002c7	8b 4d b8	 mov	 ecx, DWORD PTR _i$4[ebp]
  002ca	8b 55 08	 mov	 edx, DWORD PTR _lEndScore$[ebp]
  002cd	89 3c ca	 mov	 DWORD PTR [edx+ecx*8], edi
  002d0	89 44 ca 04	 mov	 DWORD PTR [edx+ecx*8+4], eax

; 2208 : 					lEndScore[wWinUser[0]] += cbTimes*lCellScore;

  002d4	b8 02 00 00 00	 mov	 eax, 2
  002d9	6b c8 00	 imul	 ecx, eax, 0
  002dc	0f b7 74 0d f4	 movzx	 esi, WORD PTR _wWinUser$[ebp+ecx]
  002e1	0f b6 45 cb	 movzx	 eax, BYTE PTR _cbTimes$9[ebp]
  002e5	99		 cdq
  002e6	8b 4d a4	 mov	 ecx, DWORD PTR _lCellScore$[ebp+4]
  002e9	51		 push	 ecx
  002ea	8b 4d a0	 mov	 ecx, DWORD PTR _lCellScore$[ebp]
  002ed	51		 push	 ecx
  002ee	52		 push	 edx
  002ef	50		 push	 eax
  002f0	e8 00 00 00 00	 call	 __allmul
  002f5	8b 4d 08	 mov	 ecx, DWORD PTR _lEndScore$[ebp]
  002f8	03 04 f1	 add	 eax, DWORD PTR [ecx+esi*8]
  002fb	13 54 f1 04	 adc	 edx, DWORD PTR [ecx+esi*8+4]
  002ff	b9 02 00 00 00	 mov	 ecx, 2
  00304	6b c9 00	 imul	 ecx, ecx, 0
  00307	0f b7 4c 0d f4	 movzx	 ecx, WORD PTR _wWinUser$[ebp+ecx]
  0030c	8b 75 08	 mov	 esi, DWORD PTR _lEndScore$[ebp]
  0030f	89 04 ce	 mov	 DWORD PTR [esi+ecx*8], eax
  00312	89 54 ce 04	 mov	 DWORD PTR [esi+ecx*8+4], edx
$LN25@CalHuPaiSc:

; 2209 : 				}
; 2210 : 			}

  00316	e9 4f ff ff ff	 jmp	 $LN8@CalHuPaiSc
$LN9@CalHuPaiSc:

; 2211 : 		}
; 2212 : 		else//抢杠

  0031b	e9 e4 00 00 00	 jmp	 $LN23@CalHuPaiSc
$LN22@CalHuPaiSc:

; 2213 : 		{
; 2214 : 			for(int i=0;i<cbWinCount;i++)

  00320	c7 45 c4 00 00
	00 00		 mov	 DWORD PTR _i$8[ebp], 0
  00327	eb 09		 jmp	 SHORT $LN13@CalHuPaiSc
$LN11@CalHuPaiSc:
  00329	8b 55 c4	 mov	 edx, DWORD PTR _i$8[ebp]
  0032c	83 c2 01	 add	 edx, 1
  0032f	89 55 c4	 mov	 DWORD PTR _i$8[ebp], edx
$LN13@CalHuPaiSc:
  00332	0f b6 45 d3	 movzx	 eax, BYTE PTR _cbWinCount$[ebp]
  00336	39 45 c4	 cmp	 DWORD PTR _i$8[ebp], eax
  00339	0f 8d c5 00 00
	00		 jge	 $LN23@CalHuPaiSc

; 2215 : 			{
; 2216 : 				BYTE cbTimes=GetTimes(wWinUser[i]);

  0033f	8b 4d c4	 mov	 ecx, DWORD PTR _i$8[ebp]
  00342	0f b7 54 4d f4	 movzx	 edx, WORD PTR _wWinUser$[ebp+ecx*2]
  00347	52		 push	 edx
  00348	8b 4d cc	 mov	 ecx, DWORD PTR _this$[ebp]
  0034b	e8 00 00 00 00	 call	 ?GetTimes@CTableFrameSink@@IAEEG@Z ; CTableFrameSink::GetTimes
  00350	88 45 c2	 mov	 BYTE PTR _cbTimes$6[ebp], al

; 2217 : 
; 2218 : 				for(int j=0;j<GAME_PLAYER;j++)

  00353	c7 45 b0 00 00
	00 00		 mov	 DWORD PTR _j$2[ebp], 0
  0035a	eb 09		 jmp	 SHORT $LN16@CalHuPaiSc
$LN14@CalHuPaiSc:
  0035c	8b 45 b0	 mov	 eax, DWORD PTR _j$2[ebp]
  0035f	83 c0 01	 add	 eax, 1
  00362	89 45 b0	 mov	 DWORD PTR _j$2[ebp], eax
$LN16@CalHuPaiSc:
  00365	83 7d b0 04	 cmp	 DWORD PTR _j$2[ebp], 4
  00369	7d 5a		 jge	 SHORT $LN15@CalHuPaiSc

; 2219 : 				{
; 2220 : 					if(!m_bPlayStatus[j])

  0036b	8b 4d cc	 mov	 ecx, DWORD PTR _this$[ebp]
  0036e	03 4d b0	 add	 ecx, DWORD PTR _j$2[ebp]
  00371	0f b6 91 7d 04
	00 00		 movzx	 edx, BYTE PTR [ecx+1149]
  00378	85 d2		 test	 edx, edx
  0037a	75 02		 jne	 SHORT $LN26@CalHuPaiSc

; 2221 : 						continue;

  0037c	eb de		 jmp	 SHORT $LN14@CalHuPaiSc
$LN26@CalHuPaiSc:

; 2222 : 					if(j != wWinUser[i])

  0037e	8b 45 c4	 mov	 eax, DWORD PTR _i$8[ebp]
  00381	0f b7 4c 45 f4	 movzx	 ecx, WORD PTR _wWinUser$[ebp+eax*2]
  00386	39 4d b0	 cmp	 DWORD PTR _j$2[ebp], ecx
  00389	74 38		 je	 SHORT $LN27@CalHuPaiSc

; 2223 : 					{
; 2224 : 						lEndScore[wWinUser[i]] += cbTimes*lCellScore;

  0038b	8b 55 c4	 mov	 edx, DWORD PTR _i$8[ebp]
  0038e	0f b7 74 55 f4	 movzx	 esi, WORD PTR _wWinUser$[ebp+edx*2]
  00393	0f b6 45 c2	 movzx	 eax, BYTE PTR _cbTimes$6[ebp]
  00397	99		 cdq
  00398	8b 4d a4	 mov	 ecx, DWORD PTR _lCellScore$[ebp+4]
  0039b	51		 push	 ecx
  0039c	8b 4d a0	 mov	 ecx, DWORD PTR _lCellScore$[ebp]
  0039f	51		 push	 ecx
  003a0	52		 push	 edx
  003a1	50		 push	 eax
  003a2	e8 00 00 00 00	 call	 __allmul
  003a7	8b 4d 08	 mov	 ecx, DWORD PTR _lEndScore$[ebp]
  003aa	03 04 f1	 add	 eax, DWORD PTR [ecx+esi*8]
  003ad	13 54 f1 04	 adc	 edx, DWORD PTR [ecx+esi*8+4]
  003b1	8b 4d c4	 mov	 ecx, DWORD PTR _i$8[ebp]
  003b4	0f b7 4c 4d f4	 movzx	 ecx, WORD PTR _wWinUser$[ebp+ecx*2]
  003b9	8b 75 08	 mov	 esi, DWORD PTR _lEndScore$[ebp]
  003bc	89 04 ce	 mov	 DWORD PTR [esi+ecx*8], eax
  003bf	89 54 ce 04	 mov	 DWORD PTR [esi+ecx*8+4], edx
$LN27@CalHuPaiSc:

; 2225 : 					}
; 2226 : 				}

  003c3	eb 97		 jmp	 SHORT $LN14@CalHuPaiSc
$LN15@CalHuPaiSc:

; 2227 : 				lEndScore[m_wProvideUser] -= lEndScore[wWinUser[i]];

  003c5	8b 55 cc	 mov	 edx, DWORD PTR _this$[ebp]
  003c8	0f b7 82 c0 04
	00 00		 movzx	 eax, WORD PTR [edx+1216]
  003cf	8b 4d c4	 mov	 ecx, DWORD PTR _i$8[ebp]
  003d2	0f b7 54 4d f4	 movzx	 edx, WORD PTR _wWinUser$[ebp+ecx*2]
  003d7	8b 4d 08	 mov	 ecx, DWORD PTR _lEndScore$[ebp]
  003da	8b 75 08	 mov	 esi, DWORD PTR _lEndScore$[ebp]
  003dd	8b 3c c1	 mov	 edi, DWORD PTR [ecx+eax*8]
  003e0	2b 3c d6	 sub	 edi, DWORD PTR [esi+edx*8]
  003e3	8b 44 c1 04	 mov	 eax, DWORD PTR [ecx+eax*8+4]
  003e7	1b 44 d6 04	 sbb	 eax, DWORD PTR [esi+edx*8+4]
  003eb	8b 4d cc	 mov	 ecx, DWORD PTR _this$[ebp]
  003ee	0f b7 91 c0 04
	00 00		 movzx	 edx, WORD PTR [ecx+1216]
  003f5	8b 4d 08	 mov	 ecx, DWORD PTR _lEndScore$[ebp]
  003f8	89 3c d1	 mov	 DWORD PTR [ecx+edx*8], edi
  003fb	89 44 d1 04	 mov	 DWORD PTR [ecx+edx*8+4], eax

; 2228 : 			}

  003ff	e9 25 ff ff ff	 jmp	 $LN11@CalHuPaiSc
$LN23@CalHuPaiSc:

; 2229 : 		}
; 2230 : 		
; 2231 : 
; 2232 : 		//谁胡谁当庄
; 2233 : 		m_wBankerUser = wWinUser[0];

  00404	ba 02 00 00 00	 mov	 edx, 2
  00409	6b c2 00	 imul	 eax, edx, 0
  0040c	8b 4d cc	 mov	 ecx, DWORD PTR _this$[ebp]
  0040f	66 8b 54 05 f4	 mov	 dx, WORD PTR _wWinUser$[ebp+eax]
  00414	66 89 91 72 04
	00 00		 mov	 WORD PTR [ecx+1138], dx

; 2234 : 		if(cbWinCount > 1)//多个玩家胡牌，放炮者当庄

  0041b	0f b6 45 d3	 movzx	 eax, BYTE PTR _cbWinCount$[ebp]
  0041f	83 f8 01	 cmp	 eax, 1
  00422	7e 14		 jle	 SHORT $LN28@CalHuPaiSc

; 2235 : 			m_wBankerUser = m_wProvideUser;

  00424	8b 4d cc	 mov	 ecx, DWORD PTR _this$[ebp]
  00427	8b 55 cc	 mov	 edx, DWORD PTR _this$[ebp]
  0042a	66 8b 82 c0 04
	00 00		 mov	 ax, WORD PTR [edx+1216]
  00431	66 89 81 72 04
	00 00		 mov	 WORD PTR [ecx+1138], ax
$LN28@CalHuPaiSc:

; 2236 : 	}
; 2237 : 	else//荒庄

  00438	eb 14		 jmp	 SHORT $LN1@CalHuPaiSc
$LN20@CalHuPaiSc:

; 2238 : 	{
; 2239 : 		m_wBankerUser = m_wLastCatchCardUser;//最后一个摸牌的人当庄

  0043a	8b 4d cc	 mov	 ecx, DWORD PTR _this$[ebp]
  0043d	8b 55 cc	 mov	 edx, DWORD PTR _this$[ebp]
  00440	66 8b 82 c4 04
	00 00		 mov	 ax, WORD PTR [edx+1220]
  00447	66 89 81 72 04
	00 00		 mov	 WORD PTR [ecx+1138], ax
$LN1@CalHuPaiSc:

; 2240 : 	}
; 2241 : 
; 2242 : }

  0044e	5f		 pop	 edi
  0044f	5e		 pop	 esi
  00450	8b 4d fc	 mov	 ecx, DWORD PTR __$ArrayPad$[ebp]
  00453	33 cd		 xor	 ecx, ebp
  00455	e8 00 00 00 00	 call	 @__security_check_cookie@4
  0045a	8b e5		 mov	 esp, ebp
  0045c	5d		 pop	 ebp
  0045d	c2 04 00	 ret	 4
?CalHuPaiScore@CTableFrameSink@@IAEXQA_J@Z ENDP		; CTableFrameSink::CalHuPaiScore
_TEXT	ENDS
; Function compile flags: /Odtp
; File d:\qijianban\laok\服务端\游戏组件\老k子游戏\红中麻将\服务器组件\tableframesink.cpp
_TEXT	SEGMENT
_chr$1 = -28						; size = 4
_j$2 = -24						; size = 4
_j$3 = -20						; size = 4
_this$ = -16						; size = 4
_i$4 = -12						; size = 2
_cbAction$5 = -6					; size = 1
_cbWeaveCount$6 = -5					; size = 1
_cbCardCount$7 = -4					; size = 1
_bAroseAction$ = -3					; size = 1
_bChiHu$8 = -2						; size = 1
_bPeng$9 = -1						; size = 1
_wCenterUser$ = 8					; size = 2
_cbCenterCard$ = 12					; size = 1
_EstimatKind$ = 16					; size = 4
?EstimateUserRespond@CTableFrameSink@@IAE_NGEW4enEstimatKind@@@Z PROC ; CTableFrameSink::EstimateUserRespond
; _this$ = ecx

; 2055 : {

  00000	55		 push	 ebp
  00001	8b ec		 mov	 ebp, esp
  00003	83 ec 1c	 sub	 esp, 28			; 0000001cH
  00006	56		 push	 esi
  00007	89 4d f0	 mov	 DWORD PTR _this$[ebp], ecx

; 2056 : 	//变量定义
; 2057 : 	bool bAroseAction = false;

  0000a	c6 45 fd 00	 mov	 BYTE PTR _bAroseAction$[ebp], 0

; 2058 : 
; 2059 : 	//用户状态
; 2060 : 	ZeroMemory(m_bResponse, sizeof(m_bResponse));

  0000e	6a 04		 push	 4
  00010	6a 00		 push	 0
  00012	8b 45 f0	 mov	 eax, DWORD PTR _this$[ebp]
  00015	05 e0 05 00 00	 add	 eax, 1504		; 000005e0H
  0001a	50		 push	 eax
  0001b	e8 00 00 00 00	 call	 _memset
  00020	83 c4 0c	 add	 esp, 12			; 0000000cH

; 2061 : 	ZeroMemory(m_cbUserAction, sizeof(m_cbUserAction));

  00023	6a 04		 push	 4
  00025	6a 00		 push	 0
  00027	8b 4d f0	 mov	 ecx, DWORD PTR _this$[ebp]
  0002a	81 c1 e4 05 00
	00		 add	 ecx, 1508		; 000005e4H
  00030	51		 push	 ecx
  00031	e8 00 00 00 00	 call	 _memset
  00036	83 c4 0c	 add	 esp, 12			; 0000000cH

; 2062 : 	ZeroMemory(m_cbPerformAction, sizeof(m_cbPerformAction));

  00039	6a 04		 push	 4
  0003b	6a 00		 push	 0
  0003d	8b 55 f0	 mov	 edx, DWORD PTR _this$[ebp]
  00040	81 c2 f4 05 00
	00		 add	 edx, 1524		; 000005f4H
  00046	52		 push	 edx
  00047	e8 00 00 00 00	 call	 _memset
  0004c	83 c4 0c	 add	 esp, 12			; 0000000cH

; 2063 : 
; 2064 : 	//动作判断
; 2065 : 	for (WORD i = 0; i < m_cbPlayerCount; i++)

  0004f	33 c0		 xor	 eax, eax
  00051	66 89 45 f4	 mov	 WORD PTR _i$4[ebp], ax
  00055	eb 0c		 jmp	 SHORT $LN4@EstimateUs
$LN2@EstimateUs:
  00057	66 8b 4d f4	 mov	 cx, WORD PTR _i$4[ebp]
  0005b	66 83 c1 01	 add	 cx, 1
  0005f	66 89 4d f4	 mov	 WORD PTR _i$4[ebp], cx
$LN4@EstimateUs:
  00063	0f b7 55 f4	 movzx	 edx, WORD PTR _i$4[ebp]
  00067	8b 45 f0	 mov	 eax, DWORD PTR _this$[ebp]
  0006a	0f b6 48 09	 movzx	 ecx, BYTE PTR [eax+9]
  0006e	3b d1		 cmp	 edx, ecx
  00070	0f 8d 50 03 00
	00		 jge	 $LN3@EstimateUs

; 2066 : 	{
; 2067 : 		//用户过滤
; 2068 : 		if (wCenterUser == i || !m_bPlayStatus[i] || m_bTrustee[i]) continue;

  00076	0f b7 55 08	 movzx	 edx, WORD PTR _wCenterUser$[ebp]
  0007a	0f b7 45 f4	 movzx	 eax, WORD PTR _i$4[ebp]
  0007e	3b d0		 cmp	 edx, eax
  00080	74 26		 je	 SHORT $LN12@EstimateUs
  00082	0f b7 4d f4	 movzx	 ecx, WORD PTR _i$4[ebp]
  00086	8b 55 f0	 mov	 edx, DWORD PTR _this$[ebp]
  00089	0f b6 84 0a 7d
	04 00 00	 movzx	 eax, BYTE PTR [edx+ecx+1149]
  00091	85 c0		 test	 eax, eax
  00093	74 13		 je	 SHORT $LN12@EstimateUs
  00095	0f b7 4d f4	 movzx	 ecx, WORD PTR _i$4[ebp]
  00099	8b 55 f0	 mov	 edx, DWORD PTR _this$[ebp]
  0009c	0f b6 84 0a 78
	04 00 00	 movzx	 eax, BYTE PTR [edx+ecx+1144]
  000a4	85 c0		 test	 eax, eax
  000a6	74 02		 je	 SHORT $LN11@EstimateUs
$LN12@EstimateUs:
  000a8	eb ad		 jmp	 SHORT $LN2@EstimateUs
$LN11@EstimateUs:

; 2069 : 
; 2070 : 		//出牌类型
; 2071 : 		if (EstimatKind == EstimatKind_OutCard )

  000aa	83 7d 10 00	 cmp	 DWORD PTR _EstimatKind$[ebp], 0
  000ae	0f 85 b7 01 00
	00		 jne	 $LN13@EstimateUs

; 2072 : 		{
; 2073 : 			//吃碰判断
; 2074 : 			if(!m_bEnjoinChiPeng[i])

  000b4	0f b7 4d f4	 movzx	 ecx, WORD PTR _i$4[ebp]
  000b8	8b 55 f0	 mov	 edx, DWORD PTR _this$[ebp]
  000bb	0f b6 84 0a d4
	04 00 00	 movzx	 eax, BYTE PTR [edx+ecx+1236]
  000c3	85 c0		 test	 eax, eax
  000c5	0f 85 a0 01 00
	00		 jne	 $LN13@EstimateUs

; 2075 : 			{
; 2076 : 				bool bPeng = true;

  000cb	c6 45 ff 01	 mov	 BYTE PTR _bPeng$9[ebp], 1

; 2077 : 				for(UINT j = 0; j < m_vecEnjoinChiPeng[i].size(); j++)

  000cf	c7 45 ec 00 00
	00 00		 mov	 DWORD PTR _j$3[ebp], 0
  000d6	eb 09		 jmp	 SHORT $LN7@EstimateUs
$LN5@EstimateUs:
  000d8	8b 4d ec	 mov	 ecx, DWORD PTR _j$3[ebp]
  000db	83 c1 01	 add	 ecx, 1
  000de	89 4d ec	 mov	 DWORD PTR _j$3[ebp], ecx
$LN7@EstimateUs:
